
main:     file format elf32-tradlittlemips


Disassembly of section .text:

a0800200 <_start>:
a0800200:	27bdffe8 	addiu	sp,sp,-24
a0800204:	afbf0014 	sw	ra,20(sp)
a0800208:	afbe0010 	sw	s8,16(sp)
a080020c:	03a0f021 	move	s8,sp
a0800210:	0c2000ac 	jal	a08002b0 <asm_start>
a0800214:	00000000 	nop
a0800218:	0c2008fa 	jal	a08023e8 <init_exception>
a080021c:	00000000 	nop
a0800220:	3c02a081 	lui	v0,0xa081
a0800224:	2444ae70 	addiu	a0,v0,-20880
a0800228:	0c2018e1 	jal	a0806384 <printk>
a080022c:	00000000 	nop
a0800230:	0c20072c 	jal	a0801cb0 <init_memory>
a0800234:	00000000 	nop
a0800238:	3c02a081 	lui	v0,0xa081
a080023c:	2444aeac 	addiu	a0,v0,-20820
a0800240:	0c2018e1 	jal	a0806384 <printk>
a0800244:	00000000 	nop
a0800248:	0c200927 	jal	a080249c <init_syscall>
a080024c:	00000000 	nop
a0800250:	3c02a081 	lui	v0,0xa081
a0800254:	2444aee0 	addiu	a0,v0,-20768
a0800258:	0c2018e1 	jal	a0806384 <printk>
a080025c:	00000000 	nop
a0800260:	0c20073a 	jal	a0801ce8 <init_pcb>
a0800264:	00000000 	nop
a0800268:	3c02a081 	lui	v0,0xa081
a080026c:	2444af10 	addiu	a0,v0,-20720
a0800270:	0c2018e1 	jal	a0806384 <printk>
a0800274:	00000000 	nop
a0800278:	3c02a0ff 	lui	v0,0xa0ff
a080027c:	3444c000 	ori	a0,v0,0xc000
a0800280:	00002821 	move	a1,zero
a0800284:	24061000 	li	a2,4096
a0800288:	0c20165f 	jal	a080597c <memset>
a080028c:	00000000 	nop
a0800290:	0c200451 	jal	a0801144 <init_screen>
a0800294:	00000000 	nop
a0800298:	0c2002ec 	jal	a0800bb0 <init_clk>
a080029c:	00000000 	nop
a08002a0:	0c2002e1 	jal	a0800b84 <init_int>
a08002a4:	00000000 	nop
a08002a8:	082000aa 	j	a08002a8 <_start+0xa8>
a08002ac:	00000000 	nop

a08002b0 <asm_start>:
a08002b0:	40806000 	mtc0	zero,c0_sr
a08002b4:	00000000 	nop
a08002b8:	40809000 	mtc0	zero,c0_watchlo
a08002bc:	00000000 	nop
a08002c0:	40809800 	mtc0	zero,c0_watchhi
a08002c4:	00000000 	nop
a08002c8:	40088000 	mfc0	t0,c0_config
a08002cc:	2401fff8 	li	at,-8
a08002d0:	01014024 	and	t0,t0,at
a08002d4:	35080002 	ori	t0,t0,0x2
a08002d8:	40888000 	mtc0	t0,c0_config
a08002dc:	03e00008 	jr	ra
a08002e0:	00000000 	nop

a08002e4 <do_scheduler>:
a08002e4:	3c1aa081 	lui	k0,0xa081
a08002e8:	8f5ab498 	lw	k0,-19304(k0)
a08002ec:	235a0000 	addi	k0,k0,0
a08002f0:	af400000 	sw	zero,0(k0)
a08002f4:	af420008 	sw	v0,8(k0)
a08002f8:	af43000c 	sw	v1,12(k0)
a08002fc:	af440010 	sw	a0,16(k0)
a0800300:	af450014 	sw	a1,20(k0)
a0800304:	af460018 	sw	a2,24(k0)
a0800308:	af47001c 	sw	a3,28(k0)
a080030c:	af480020 	sw	t0,32(k0)
a0800310:	af490024 	sw	t1,36(k0)
a0800314:	af4a0028 	sw	t2,40(k0)
a0800318:	af4b002c 	sw	t3,44(k0)
a080031c:	af4c0030 	sw	t4,48(k0)
a0800320:	af4d0034 	sw	t5,52(k0)
a0800324:	af4e0038 	sw	t6,56(k0)
a0800328:	af4f003c 	sw	t7,60(k0)
a080032c:	af500040 	sw	s0,64(k0)
a0800330:	af510044 	sw	s1,68(k0)
a0800334:	af520048 	sw	s2,72(k0)
a0800338:	af53004c 	sw	s3,76(k0)
a080033c:	af540050 	sw	s4,80(k0)
a0800340:	af550054 	sw	s5,84(k0)
a0800344:	af560058 	sw	s6,88(k0)
a0800348:	af57005c 	sw	s7,92(k0)
a080034c:	af580060 	sw	t8,96(k0)
a0800350:	af590064 	sw	t9,100(k0)
a0800354:	af5c0070 	sw	gp,112(k0)
a0800358:	af5d0074 	sw	sp,116(k0)
a080035c:	af5e0078 	sw	s8,120(k0)
a0800360:	af5f007c 	sw	ra,124(k0)
a0800364:	401b6000 	mfc0	k1,c0_sr
a0800368:	00000000 	nop
a080036c:	af5b0080 	sw	k1,128(k0)
a0800370:	0000d810 	mfhi	k1
a0800374:	af5b0084 	sw	k1,132(k0)
a0800378:	0000d812 	mflo	k1
a080037c:	af5b0088 	sw	k1,136(k0)
a0800380:	409b4000 	mtc0	k1,c0_badvaddr
a0800384:	af5b008c 	sw	k1,140(k0)
a0800388:	401b6800 	mfc0	k1,c0_cause
a080038c:	00000000 	nop
a0800390:	af5b0090 	sw	k1,144(k0)
a0800394:	401b7000 	mfc0	k1,c0_epc
a0800398:	00000000 	nop
a080039c:	0c200c60 	jal	a0803180 <scheduler>
a08003a0:	af5b0094 	sw	k1,148(k0)
a08003a4:	3c1aa081 	lui	k0,0xa081
a08003a8:	8f5ab498 	lw	k0,-19304(k0)
a08003ac:	235a0000 	addi	k0,k0,0
a08003b0:	8f400000 	lw	zero,0(k0)
a08003b4:	8f420008 	lw	v0,8(k0)
a08003b8:	8f43000c 	lw	v1,12(k0)
a08003bc:	8f440010 	lw	a0,16(k0)
a08003c0:	8f450014 	lw	a1,20(k0)
a08003c4:	8f460018 	lw	a2,24(k0)
a08003c8:	8f47001c 	lw	a3,28(k0)
a08003cc:	8f480020 	lw	t0,32(k0)
a08003d0:	8f490024 	lw	t1,36(k0)
a08003d4:	8f4a0028 	lw	t2,40(k0)
a08003d8:	8f4b002c 	lw	t3,44(k0)
a08003dc:	8f4c0030 	lw	t4,48(k0)
a08003e0:	8f4d0034 	lw	t5,52(k0)
a08003e4:	8f4e0038 	lw	t6,56(k0)
a08003e8:	8f4f003c 	lw	t7,60(k0)
a08003ec:	8f500040 	lw	s0,64(k0)
a08003f0:	8f510044 	lw	s1,68(k0)
a08003f4:	8f520048 	lw	s2,72(k0)
a08003f8:	8f53004c 	lw	s3,76(k0)
a08003fc:	8f540050 	lw	s4,80(k0)
a0800400:	8f550054 	lw	s5,84(k0)
a0800404:	8f560058 	lw	s6,88(k0)
a0800408:	8f57005c 	lw	s7,92(k0)
a080040c:	8f580060 	lw	t8,96(k0)
a0800410:	8f590064 	lw	t9,100(k0)
a0800414:	8f5c0070 	lw	gp,112(k0)
a0800418:	8f5d0074 	lw	sp,116(k0)
a080041c:	8f5e0078 	lw	s8,120(k0)
a0800420:	8f5f007c 	lw	ra,124(k0)
a0800424:	8f5b0080 	lw	k1,128(k0)
a0800428:	409b6000 	mtc0	k1,c0_sr
a080042c:	8f5b0084 	lw	k1,132(k0)
a0800430:	03600011 	mthi	k1
a0800434:	8f5b0088 	lw	k1,136(k0)
a0800438:	03600013 	mtlo	k1
a080043c:	8f5b008c 	lw	k1,140(k0)
a0800440:	409b4000 	mtc0	k1,c0_badvaddr
a0800444:	8f5b0090 	lw	k1,144(k0)
a0800448:	409b6800 	mtc0	k1,c0_cause
a080044c:	8f5b0094 	lw	k1,148(k0)
a0800450:	409b7000 	mtc0	k1,c0_epc
a0800454:	03e00008 	jr	ra
a0800458:	00000000 	nop

a080045c <TLBexception_handler_entry>:
a080045c:	3c1a8000 	lui	k0,0x8000
a0800460:	375a0180 	ori	k0,k0,0x180
a0800464:	03400008 	jr	k0
a0800468:	00000000 	nop

a080046c <exception_handler_entry>:
a080046c:	3c1aa081 	lui	k0,0xa081
a0800470:	8f5ab498 	lw	k0,-19304(k0)
a0800474:	235a009c 	addi	k0,k0,156
a0800478:	af400000 	sw	zero,0(k0)
a080047c:	af420008 	sw	v0,8(k0)
a0800480:	af43000c 	sw	v1,12(k0)
a0800484:	af440010 	sw	a0,16(k0)
a0800488:	af450014 	sw	a1,20(k0)
a080048c:	af460018 	sw	a2,24(k0)
a0800490:	af47001c 	sw	a3,28(k0)
a0800494:	af480020 	sw	t0,32(k0)
a0800498:	af490024 	sw	t1,36(k0)
a080049c:	af4a0028 	sw	t2,40(k0)
a08004a0:	af4b002c 	sw	t3,44(k0)
a08004a4:	af4c0030 	sw	t4,48(k0)
a08004a8:	af4d0034 	sw	t5,52(k0)
a08004ac:	af4e0038 	sw	t6,56(k0)
a08004b0:	af4f003c 	sw	t7,60(k0)
a08004b4:	af500040 	sw	s0,64(k0)
a08004b8:	af510044 	sw	s1,68(k0)
a08004bc:	af520048 	sw	s2,72(k0)
a08004c0:	af53004c 	sw	s3,76(k0)
a08004c4:	af540050 	sw	s4,80(k0)
a08004c8:	af550054 	sw	s5,84(k0)
a08004cc:	af560058 	sw	s6,88(k0)
a08004d0:	af57005c 	sw	s7,92(k0)
a08004d4:	af580060 	sw	t8,96(k0)
a08004d8:	af590064 	sw	t9,100(k0)
a08004dc:	af5c0070 	sw	gp,112(k0)
a08004e0:	af5d0074 	sw	sp,116(k0)
a08004e4:	af5e0078 	sw	s8,120(k0)
a08004e8:	af5f007c 	sw	ra,124(k0)
a08004ec:	401b6000 	mfc0	k1,c0_sr
a08004f0:	00000000 	nop
a08004f4:	af5b0080 	sw	k1,128(k0)
a08004f8:	0000d810 	mfhi	k1
a08004fc:	af5b0084 	sw	k1,132(k0)
a0800500:	0000d812 	mflo	k1
a0800504:	af5b0088 	sw	k1,136(k0)
a0800508:	409b4000 	mtc0	k1,c0_badvaddr
a080050c:	af5b008c 	sw	k1,140(k0)
a0800510:	401b6800 	mfc0	k1,c0_cause
a0800514:	00000000 	nop
a0800518:	af5b0090 	sw	k1,144(k0)
a080051c:	401b7000 	mfc0	k1,c0_epc
a0800520:	00000000 	nop
a0800524:	af5b0094 	sw	k1,148(k0)
a0800528:	3c1aa081 	lui	k0,0xa081
a080052c:	8f5ab498 	lw	k0,-19304(k0)
a0800530:	8f5d0074 	lw	sp,116(k0)
a0800534:	40086800 	mfc0	t0,c0_cause
a0800538:	00000000 	nop
a080053c:	3108007c 	andi	t0,t0,0x7c
a0800540:	3c09a081 	lui	t1,0xa081
a0800544:	2529ccd0 	addiu	t1,t1,-13104
a0800548:	01284820 	add	t1,t1,t0
a080054c:	8d280000 	lw	t0,0(t1)
a0800550:	01000008 	jr	t0
a0800554:	00000000 	nop

a0800558 <handle_int>:
a0800558:	40046000 	mfc0	a0,c0_sr
a080055c:	40056800 	mfc0	a1,c0_cause
a0800560:	0c200a00 	jal	a0802800 <interrupt_helper>
a0800564:	27bdfff8 	addiu	sp,sp,-8
a0800568:	27bd0008 	addiu	sp,sp,8
a080056c:	3c1aa081 	lui	k0,0xa081
a0800570:	8f5ab498 	lw	k0,-19304(k0)
a0800574:	235a009c 	addi	k0,k0,156
a0800578:	8f400000 	lw	zero,0(k0)
a080057c:	8f420008 	lw	v0,8(k0)
a0800580:	8f43000c 	lw	v1,12(k0)
a0800584:	8f440010 	lw	a0,16(k0)
a0800588:	8f450014 	lw	a1,20(k0)
a080058c:	8f460018 	lw	a2,24(k0)
a0800590:	8f47001c 	lw	a3,28(k0)
a0800594:	8f480020 	lw	t0,32(k0)
a0800598:	8f490024 	lw	t1,36(k0)
a080059c:	8f4a0028 	lw	t2,40(k0)
a08005a0:	8f4b002c 	lw	t3,44(k0)
a08005a4:	8f4c0030 	lw	t4,48(k0)
a08005a8:	8f4d0034 	lw	t5,52(k0)
a08005ac:	8f4e0038 	lw	t6,56(k0)
a08005b0:	8f4f003c 	lw	t7,60(k0)
a08005b4:	8f500040 	lw	s0,64(k0)
a08005b8:	8f510044 	lw	s1,68(k0)
a08005bc:	8f520048 	lw	s2,72(k0)
a08005c0:	8f53004c 	lw	s3,76(k0)
a08005c4:	8f540050 	lw	s4,80(k0)
a08005c8:	8f550054 	lw	s5,84(k0)
a08005cc:	8f560058 	lw	s6,88(k0)
a08005d0:	8f57005c 	lw	s7,92(k0)
a08005d4:	8f580060 	lw	t8,96(k0)
a08005d8:	8f590064 	lw	t9,100(k0)
a08005dc:	8f5c0070 	lw	gp,112(k0)
a08005e0:	8f5d0074 	lw	sp,116(k0)
a08005e4:	8f5e0078 	lw	s8,120(k0)
a08005e8:	8f5f007c 	lw	ra,124(k0)
a08005ec:	8f5b0080 	lw	k1,128(k0)
a08005f0:	409b6000 	mtc0	k1,c0_sr
a08005f4:	8f5b0084 	lw	k1,132(k0)
a08005f8:	03600011 	mthi	k1
a08005fc:	8f5b0088 	lw	k1,136(k0)
a0800600:	03600013 	mtlo	k1
a0800604:	8f5b008c 	lw	k1,140(k0)
a0800608:	409b4000 	mtc0	k1,c0_badvaddr
a080060c:	8f5b0090 	lw	k1,144(k0)
a0800610:	409b6800 	mtc0	k1,c0_cause
a0800614:	8f5b0094 	lw	k1,148(k0)
a0800618:	409b7000 	mtc0	k1,c0_epc
a080061c:	00000000 	nop
a0800620:	40804800 	mtc0	zero,c0_count
a0800624:	3c1a0002 	lui	k0,0x2
a0800628:	375a49f0 	ori	k0,k0,0x49f0
a080062c:	409a5800 	mtc0	k0,c0_compare
a0800630:	42000018 	eret
a0800634:	00000000 	nop

a0800638 <handle_syscall>:
a0800638:	0c201334 	jal	a0804cd0 <system_call_helper>
a080063c:	27bdfff0 	addiu	sp,sp,-16
a0800640:	27bd0010 	addiu	sp,sp,16
a0800644:	3c1aa081 	lui	k0,0xa081
a0800648:	8f5ab498 	lw	k0,-19304(k0)
a080064c:	235a009c 	addi	k0,k0,156
a0800650:	af420008 	sw	v0,8(k0)
a0800654:	3c1aa081 	lui	k0,0xa081
a0800658:	8f5ab498 	lw	k0,-19304(k0)
a080065c:	235a009c 	addi	k0,k0,156
a0800660:	8f400000 	lw	zero,0(k0)
a0800664:	8f420008 	lw	v0,8(k0)
a0800668:	8f43000c 	lw	v1,12(k0)
a080066c:	8f440010 	lw	a0,16(k0)
a0800670:	8f450014 	lw	a1,20(k0)
a0800674:	8f460018 	lw	a2,24(k0)
a0800678:	8f47001c 	lw	a3,28(k0)
a080067c:	8f480020 	lw	t0,32(k0)
a0800680:	8f490024 	lw	t1,36(k0)
a0800684:	8f4a0028 	lw	t2,40(k0)
a0800688:	8f4b002c 	lw	t3,44(k0)
a080068c:	8f4c0030 	lw	t4,48(k0)
a0800690:	8f4d0034 	lw	t5,52(k0)
a0800694:	8f4e0038 	lw	t6,56(k0)
a0800698:	8f4f003c 	lw	t7,60(k0)
a080069c:	8f500040 	lw	s0,64(k0)
a08006a0:	8f510044 	lw	s1,68(k0)
a08006a4:	8f520048 	lw	s2,72(k0)
a08006a8:	8f53004c 	lw	s3,76(k0)
a08006ac:	8f540050 	lw	s4,80(k0)
a08006b0:	8f550054 	lw	s5,84(k0)
a08006b4:	8f560058 	lw	s6,88(k0)
a08006b8:	8f57005c 	lw	s7,92(k0)
a08006bc:	8f580060 	lw	t8,96(k0)
a08006c0:	8f590064 	lw	t9,100(k0)
a08006c4:	8f5c0070 	lw	gp,112(k0)
a08006c8:	8f5d0074 	lw	sp,116(k0)
a08006cc:	8f5e0078 	lw	s8,120(k0)
a08006d0:	8f5f007c 	lw	ra,124(k0)
a08006d4:	8f5b0080 	lw	k1,128(k0)
a08006d8:	409b6000 	mtc0	k1,c0_sr
a08006dc:	8f5b0084 	lw	k1,132(k0)
a08006e0:	03600011 	mthi	k1
a08006e4:	8f5b0088 	lw	k1,136(k0)
a08006e8:	03600013 	mtlo	k1
a08006ec:	8f5b008c 	lw	k1,140(k0)
a08006f0:	409b4000 	mtc0	k1,c0_badvaddr
a08006f4:	8f5b0090 	lw	k1,144(k0)
a08006f8:	409b6800 	mtc0	k1,c0_cause
a08006fc:	8f5b0094 	lw	k1,148(k0)
a0800700:	409b7000 	mtc0	k1,c0_epc
a0800704:	00000000 	nop
a0800708:	401a7000 	mfc0	k0,c0_epc
a080070c:	00000000 	nop
a0800710:	235a0004 	addi	k0,k0,4
a0800714:	409a7000 	mtc0	k0,c0_epc
a0800718:	42000018 	eret
a080071c:	00000000 	nop

a0800720 <handle_other>:
a0800720:	40804800 	mtc0	zero,c0_count
a0800724:	3c1a0002 	lui	k0,0x2
a0800728:	375a49f0 	ori	k0,k0,0x49f0
a080072c:	409a5800 	mtc0	k0,c0_compare
a0800730:	42000018 	eret
a0800734:	00000000 	nop

a0800738 <handle_tlbl>:
a0800738:	0c200b6c 	jal	a0802db0 <do_TLB_Refill>
a080073c:	00000000 	nop
a0800740:	3c1aa081 	lui	k0,0xa081
a0800744:	8f5ab498 	lw	k0,-19304(k0)
a0800748:	235a009c 	addi	k0,k0,156
a080074c:	8f400000 	lw	zero,0(k0)
a0800750:	8f420008 	lw	v0,8(k0)
a0800754:	8f43000c 	lw	v1,12(k0)
a0800758:	8f440010 	lw	a0,16(k0)
a080075c:	8f450014 	lw	a1,20(k0)
a0800760:	8f460018 	lw	a2,24(k0)
a0800764:	8f47001c 	lw	a3,28(k0)
a0800768:	8f480020 	lw	t0,32(k0)
a080076c:	8f490024 	lw	t1,36(k0)
a0800770:	8f4a0028 	lw	t2,40(k0)
a0800774:	8f4b002c 	lw	t3,44(k0)
a0800778:	8f4c0030 	lw	t4,48(k0)
a080077c:	8f4d0034 	lw	t5,52(k0)
a0800780:	8f4e0038 	lw	t6,56(k0)
a0800784:	8f4f003c 	lw	t7,60(k0)
a0800788:	8f500040 	lw	s0,64(k0)
a080078c:	8f510044 	lw	s1,68(k0)
a0800790:	8f520048 	lw	s2,72(k0)
a0800794:	8f53004c 	lw	s3,76(k0)
a0800798:	8f540050 	lw	s4,80(k0)
a080079c:	8f550054 	lw	s5,84(k0)
a08007a0:	8f560058 	lw	s6,88(k0)
a08007a4:	8f57005c 	lw	s7,92(k0)
a08007a8:	8f580060 	lw	t8,96(k0)
a08007ac:	8f590064 	lw	t9,100(k0)
a08007b0:	8f5c0070 	lw	gp,112(k0)
a08007b4:	8f5d0074 	lw	sp,116(k0)
a08007b8:	8f5e0078 	lw	s8,120(k0)
a08007bc:	8f5f007c 	lw	ra,124(k0)
a08007c0:	8f5b0080 	lw	k1,128(k0)
a08007c4:	409b6000 	mtc0	k1,c0_sr
a08007c8:	8f5b0084 	lw	k1,132(k0)
a08007cc:	03600011 	mthi	k1
a08007d0:	8f5b0088 	lw	k1,136(k0)
a08007d4:	03600013 	mtlo	k1
a08007d8:	8f5b008c 	lw	k1,140(k0)
a08007dc:	409b4000 	mtc0	k1,c0_badvaddr
a08007e0:	8f5b0090 	lw	k1,144(k0)
a08007e4:	409b6800 	mtc0	k1,c0_cause
a08007e8:	8f5b0094 	lw	k1,148(k0)
a08007ec:	409b7000 	mtc0	k1,c0_epc
a08007f0:	00000000 	nop
a08007f4:	40804800 	mtc0	zero,c0_count
a08007f8:	3c1a0002 	lui	k0,0x2
a08007fc:	375a49f0 	ori	k0,k0,0x49f0
a0800800:	409a5800 	mtc0	k0,c0_compare
a0800804:	42000018 	eret
a0800808:	00000000 	nop

a080080c <handle_tlbs>:
a080080c:	0c200b6c 	jal	a0802db0 <do_TLB_Refill>
a0800810:	00000000 	nop
a0800814:	3c1aa081 	lui	k0,0xa081
a0800818:	8f5ab498 	lw	k0,-19304(k0)
a080081c:	235a009c 	addi	k0,k0,156
a0800820:	8f400000 	lw	zero,0(k0)
a0800824:	8f420008 	lw	v0,8(k0)
a0800828:	8f43000c 	lw	v1,12(k0)
a080082c:	8f440010 	lw	a0,16(k0)
a0800830:	8f450014 	lw	a1,20(k0)
a0800834:	8f460018 	lw	a2,24(k0)
a0800838:	8f47001c 	lw	a3,28(k0)
a080083c:	8f480020 	lw	t0,32(k0)
a0800840:	8f490024 	lw	t1,36(k0)
a0800844:	8f4a0028 	lw	t2,40(k0)
a0800848:	8f4b002c 	lw	t3,44(k0)
a080084c:	8f4c0030 	lw	t4,48(k0)
a0800850:	8f4d0034 	lw	t5,52(k0)
a0800854:	8f4e0038 	lw	t6,56(k0)
a0800858:	8f4f003c 	lw	t7,60(k0)
a080085c:	8f500040 	lw	s0,64(k0)
a0800860:	8f510044 	lw	s1,68(k0)
a0800864:	8f520048 	lw	s2,72(k0)
a0800868:	8f53004c 	lw	s3,76(k0)
a080086c:	8f540050 	lw	s4,80(k0)
a0800870:	8f550054 	lw	s5,84(k0)
a0800874:	8f560058 	lw	s6,88(k0)
a0800878:	8f57005c 	lw	s7,92(k0)
a080087c:	8f580060 	lw	t8,96(k0)
a0800880:	8f590064 	lw	t9,100(k0)
a0800884:	8f5c0070 	lw	gp,112(k0)
a0800888:	8f5d0074 	lw	sp,116(k0)
a080088c:	8f5e0078 	lw	s8,120(k0)
a0800890:	8f5f007c 	lw	ra,124(k0)
a0800894:	8f5b0080 	lw	k1,128(k0)
a0800898:	409b6000 	mtc0	k1,c0_sr
a080089c:	8f5b0084 	lw	k1,132(k0)
a08008a0:	03600011 	mthi	k1
a08008a4:	8f5b0088 	lw	k1,136(k0)
a08008a8:	03600013 	mtlo	k1
a08008ac:	8f5b008c 	lw	k1,140(k0)
a08008b0:	409b4000 	mtc0	k1,c0_badvaddr
a08008b4:	8f5b0090 	lw	k1,144(k0)
a08008b8:	409b6800 	mtc0	k1,c0_cause
a08008bc:	8f5b0094 	lw	k1,148(k0)
a08008c0:	409b7000 	mtc0	k1,c0_epc
a08008c4:	00000000 	nop
a08008c8:	40804800 	mtc0	zero,c0_count
a08008cc:	3c1a0002 	lui	k0,0x2
a08008d0:	375a49f0 	ori	k0,k0,0x49f0
a08008d4:	409a5800 	mtc0	k0,c0_compare
a08008d8:	42000018 	eret
a08008dc:	00000000 	nop

a08008e0 <handle_mod>:
a08008e0:	0c200c00 	jal	a0803000 <mod_helper>
a08008e4:	3c1da0e8 	lui	sp,0xa0e8
a08008e8:	3c1aa081 	lui	k0,0xa081
a08008ec:	8f5ab498 	lw	k0,-19304(k0)
a08008f0:	235a009c 	addi	k0,k0,156
a08008f4:	8f400000 	lw	zero,0(k0)
a08008f8:	8f420008 	lw	v0,8(k0)
a08008fc:	8f43000c 	lw	v1,12(k0)
a0800900:	8f440010 	lw	a0,16(k0)
a0800904:	8f450014 	lw	a1,20(k0)
a0800908:	8f460018 	lw	a2,24(k0)
a080090c:	8f47001c 	lw	a3,28(k0)
a0800910:	8f480020 	lw	t0,32(k0)
a0800914:	8f490024 	lw	t1,36(k0)
a0800918:	8f4a0028 	lw	t2,40(k0)
a080091c:	8f4b002c 	lw	t3,44(k0)
a0800920:	8f4c0030 	lw	t4,48(k0)
a0800924:	8f4d0034 	lw	t5,52(k0)
a0800928:	8f4e0038 	lw	t6,56(k0)
a080092c:	8f4f003c 	lw	t7,60(k0)
a0800930:	8f500040 	lw	s0,64(k0)
a0800934:	8f510044 	lw	s1,68(k0)
a0800938:	8f520048 	lw	s2,72(k0)
a080093c:	8f53004c 	lw	s3,76(k0)
a0800940:	8f540050 	lw	s4,80(k0)
a0800944:	8f550054 	lw	s5,84(k0)
a0800948:	8f560058 	lw	s6,88(k0)
a080094c:	8f57005c 	lw	s7,92(k0)
a0800950:	8f580060 	lw	t8,96(k0)
a0800954:	8f590064 	lw	t9,100(k0)
a0800958:	8f5c0070 	lw	gp,112(k0)
a080095c:	8f5d0074 	lw	sp,116(k0)
a0800960:	8f5e0078 	lw	s8,120(k0)
a0800964:	8f5f007c 	lw	ra,124(k0)
a0800968:	8f5b0080 	lw	k1,128(k0)
a080096c:	409b6000 	mtc0	k1,c0_sr
a0800970:	8f5b0084 	lw	k1,132(k0)
a0800974:	03600011 	mthi	k1
a0800978:	8f5b0088 	lw	k1,136(k0)
a080097c:	03600013 	mtlo	k1
a0800980:	8f5b008c 	lw	k1,140(k0)
a0800984:	409b4000 	mtc0	k1,c0_badvaddr
a0800988:	8f5b0090 	lw	k1,144(k0)
a080098c:	409b6800 	mtc0	k1,c0_cause
a0800990:	8f5b0094 	lw	k1,148(k0)
a0800994:	409b7000 	mtc0	k1,c0_epc
a0800998:	00000000 	nop
a080099c:	40804800 	mtc0	zero,c0_count
a08009a0:	3c1a0002 	lui	k0,0x2
a08009a4:	375a49f0 	ori	k0,k0,0x49f0
a08009a8:	409a5800 	mtc0	k0,c0_compare
a08009ac:	42000018 	eret
a08009b0:	00000000 	nop

a08009b4 <init_TLB>:
a08009b4:	40802800 	mtc0	zero,c0_pagemask
a08009b8:	00000000 	nop
a08009bc:	40805000 	mtc0	zero,c0_entryhi
a08009c0:	241a0004 	li	k0,4
a08009c4:	409a1000 	mtc0	k0,c0_entrylo0
a08009c8:	00000000 	nop
a08009cc:	409a1800 	mtc0	k0,c0_entrylo1
a08009d0:	241a0000 	li	k0,0
a08009d4:	409a0000 	mtc0	k0,c0_index
a08009d8:	42000002 	tlbwi
a08009dc:	235a0001 	addi	k0,k0,1
a08009e0:	409a0000 	mtc0	k0,c0_index
a08009e4:	42000002 	tlbwi
a08009e8:	235a0001 	addi	k0,k0,1
a08009ec:	409a0000 	mtc0	k0,c0_index
a08009f0:	42000002 	tlbwi
a08009f4:	235a0001 	addi	k0,k0,1
a08009f8:	409a0000 	mtc0	k0,c0_index
a08009fc:	42000002 	tlbwi
a0800a00:	235a0001 	addi	k0,k0,1
a0800a04:	409a0000 	mtc0	k0,c0_index
a0800a08:	42000002 	tlbwi
a0800a0c:	235a0001 	addi	k0,k0,1
a0800a10:	409a0000 	mtc0	k0,c0_index
a0800a14:	42000002 	tlbwi
a0800a18:	235a0001 	addi	k0,k0,1
a0800a1c:	409a0000 	mtc0	k0,c0_index
a0800a20:	42000002 	tlbwi
a0800a24:	235a0001 	addi	k0,k0,1
a0800a28:	409a0000 	mtc0	k0,c0_index
a0800a2c:	42000002 	tlbwi
a0800a30:	235a0001 	addi	k0,k0,1
a0800a34:	409a0000 	mtc0	k0,c0_index
a0800a38:	42000002 	tlbwi
a0800a3c:	235a0001 	addi	k0,k0,1
a0800a40:	409a0000 	mtc0	k0,c0_index
a0800a44:	42000002 	tlbwi
a0800a48:	235a0001 	addi	k0,k0,1
a0800a4c:	409a0000 	mtc0	k0,c0_index
a0800a50:	42000002 	tlbwi
a0800a54:	235a0001 	addi	k0,k0,1
a0800a58:	409a0000 	mtc0	k0,c0_index
a0800a5c:	42000002 	tlbwi
a0800a60:	235a0001 	addi	k0,k0,1
a0800a64:	409a0000 	mtc0	k0,c0_index
a0800a68:	42000002 	tlbwi
a0800a6c:	235a0001 	addi	k0,k0,1
a0800a70:	409a0000 	mtc0	k0,c0_index
a0800a74:	42000002 	tlbwi
a0800a78:	235a0001 	addi	k0,k0,1
a0800a7c:	409a0000 	mtc0	k0,c0_index
a0800a80:	42000002 	tlbwi
a0800a84:	235a0001 	addi	k0,k0,1
a0800a88:	409a0000 	mtc0	k0,c0_index
a0800a8c:	42000002 	tlbwi
a0800a90:	235a0001 	addi	k0,k0,1
a0800a94:	409a0000 	mtc0	k0,c0_index
a0800a98:	42000002 	tlbwi
a0800a9c:	235a0001 	addi	k0,k0,1
a0800aa0:	409a0000 	mtc0	k0,c0_index
a0800aa4:	42000002 	tlbwi
a0800aa8:	235a0001 	addi	k0,k0,1
a0800aac:	409a0000 	mtc0	k0,c0_index
a0800ab0:	42000002 	tlbwi
a0800ab4:	235a0001 	addi	k0,k0,1
a0800ab8:	409a0000 	mtc0	k0,c0_index
a0800abc:	42000002 	tlbwi
a0800ac0:	235a0001 	addi	k0,k0,1
a0800ac4:	409a0000 	mtc0	k0,c0_index
a0800ac8:	42000002 	tlbwi
a0800acc:	235a0001 	addi	k0,k0,1
a0800ad0:	409a0000 	mtc0	k0,c0_index
a0800ad4:	42000002 	tlbwi
a0800ad8:	235a0001 	addi	k0,k0,1
a0800adc:	409a0000 	mtc0	k0,c0_index
a0800ae0:	42000002 	tlbwi
a0800ae4:	235a0001 	addi	k0,k0,1
a0800ae8:	409a0000 	mtc0	k0,c0_index
a0800aec:	42000002 	tlbwi
a0800af0:	235a0001 	addi	k0,k0,1
a0800af4:	409a0000 	mtc0	k0,c0_index
a0800af8:	42000002 	tlbwi
a0800afc:	235a0001 	addi	k0,k0,1
a0800b00:	409a0000 	mtc0	k0,c0_index
a0800b04:	42000002 	tlbwi
a0800b08:	235a0001 	addi	k0,k0,1
a0800b0c:	409a0000 	mtc0	k0,c0_index
a0800b10:	42000002 	tlbwi
a0800b14:	235a0001 	addi	k0,k0,1
a0800b18:	409a0000 	mtc0	k0,c0_index
a0800b1c:	42000002 	tlbwi
a0800b20:	235a0001 	addi	k0,k0,1
a0800b24:	409a0000 	mtc0	k0,c0_index
a0800b28:	42000002 	tlbwi
a0800b2c:	235a0001 	addi	k0,k0,1
a0800b30:	409a0000 	mtc0	k0,c0_index
a0800b34:	42000002 	tlbwi
a0800b38:	235a0001 	addi	k0,k0,1
a0800b3c:	409a0000 	mtc0	k0,c0_index
a0800b40:	42000002 	tlbwi
a0800b44:	235a0001 	addi	k0,k0,1
a0800b48:	409a0000 	mtc0	k0,c0_index
a0800b4c:	03e00008 	jr	ra
a0800b50:	42000002 	tlbwi

a0800b54 <enable_int>:
a0800b54:	401a6000 	mfc0	k0,c0_sr
a0800b58:	00000000 	nop
a0800b5c:	375a0001 	ori	k0,k0,0x1
a0800b60:	409a6000 	mtc0	k0,c0_sr
a0800b64:	03e00008 	jr	ra
a0800b68:	00000000 	nop

a0800b6c <disable_int>:
a0800b6c:	401a6000 	mfc0	k0,c0_sr
a0800b70:	241bfffe 	li	k1,-2
a0800b74:	035bd024 	and	k0,k0,k1
a0800b78:	409a6000 	mtc0	k0,c0_sr
a0800b7c:	03e00008 	jr	ra
a0800b80:	00000000 	nop

a0800b84 <init_int>:
a0800b84:	3c1a1000 	lui	k0,0x1000
a0800b88:	375a8001 	ori	k0,k0,0x8001
a0800b8c:	409a6000 	mtc0	k0,c0_sr
a0800b90:	03e00008 	jr	ra
a0800b94:	00000000 	nop

a0800b98 <save_clk>:
a0800b98:	40024800 	mfc0	v0,c0_count
a0800b9c:	03e00008 	jr	ra
a0800ba0:	00000000 	nop

a0800ba4 <restore_clk>:
a0800ba4:	40844800 	mtc0	a0,c0_count
a0800ba8:	03e00008 	jr	ra
a0800bac:	00000000 	nop

a0800bb0 <init_clk>:
a0800bb0:	40804800 	mtc0	zero,c0_count
a0800bb4:	3c1a0002 	lui	k0,0x2
a0800bb8:	375a49f0 	ori	k0,k0,0x49f0
a0800bbc:	409a5800 	mtc0	k0,c0_compare
a0800bc0:	03e00008 	jr	ra
a0800bc4:	00000000 	nop

a0800bc8 <get_cp0_status>:
a0800bc8:	40026000 	mfc0	v0,c0_sr
a0800bcc:	03e00008 	jr	ra
a0800bd0:	00000000 	nop

a0800bd4 <set_cp0_status>:
a0800bd4:	40846000 	mtc0	a0,c0_sr
a0800bd8:	03e00008 	jr	ra
a0800bdc:	00000000 	nop

a0800be0 <set_entryhi>:
a0800be0:	40845000 	mtc0	a0,c0_entryhi
a0800be4:	03e00008 	jr	ra
a0800be8:	00000000 	nop

a0800bec <set_entrylo>:
a0800bec:	40841000 	mtc0	a0,c0_entrylo0
a0800bf0:	24840040 	addiu	a0,a0,64
a0800bf4:	40841800 	mtc0	a0,c0_entrylo1
a0800bf8:	03e00008 	jr	ra
a0800bfc:	00000000 	nop

a0800c00 <get_entryhi>:
a0800c00:	40025000 	mfc0	v0,c0_entryhi
a0800c04:	03e00008 	jr	ra
a0800c08:	00000000 	nop

a0800c0c <get_badvaddr>:
a0800c0c:	40024000 	mfc0	v0,c0_badvaddr
a0800c10:	03e00008 	jr	ra
a0800c14:	00000000 	nop

a0800c18 <get_index>:
a0800c18:	40845000 	mtc0	a0,c0_entryhi
a0800c1c:	42000008 	tlbp
a0800c20:	40020000 	mfc0	v0,c0_index
a0800c24:	03e00008 	jr	ra
a0800c28:	00000000 	nop

a0800c2c <set_index>:
a0800c2c:	40840000 	mtc0	a0,c0_index
a0800c30:	03e00008 	jr	ra
a0800c34:	00000000 	nop

a0800c38 <tlb_fill>:
a0800c38:	40802800 	mtc0	zero,c0_pagemask
a0800c3c:	03e00008 	jr	ra
a0800c40:	42000002 	tlbwi
	...

a0800c50 <invoke_syscall>:
a0800c50:	0000000c 	syscall
a0800c54:	03e00008 	jr	ra
a0800c58:	00000000 	nop
a0800c5c:	00000000 	nop

a0800c60 <port_write_ch>:
a0800c60:	27bdffe0 	addiu	sp,sp,-32
a0800c64:	afbf001c 	sw	ra,28(sp)
a0800c68:	afbe0018 	sw	s8,24(sp)
a0800c6c:	03a0f021 	move	s8,sp
a0800c70:	00801021 	move	v0,a0
a0800c74:	a3c20020 	sb	v0,32(s8)
a0800c78:	3c028001 	lui	v0,0x8001
a0800c7c:	34421140 	ori	v0,v0,0x1140
a0800c80:	afc20010 	sw	v0,16(s8)
a0800c84:	83c20020 	lb	v0,32(s8)
a0800c88:	8fc30010 	lw	v1,16(s8)
a0800c8c:	00402021 	move	a0,v0
a0800c90:	0060f809 	jalr	v1
a0800c94:	00000000 	nop
a0800c98:	03c0e821 	move	sp,s8
a0800c9c:	8fbf001c 	lw	ra,28(sp)
a0800ca0:	8fbe0018 	lw	s8,24(sp)
a0800ca4:	27bd0020 	addiu	sp,sp,32
a0800ca8:	03e00008 	jr	ra
a0800cac:	00000000 	nop

a0800cb0 <port_write>:
a0800cb0:	27bdffe0 	addiu	sp,sp,-32
a0800cb4:	afbf001c 	sw	ra,28(sp)
a0800cb8:	afbe0018 	sw	s8,24(sp)
a0800cbc:	03a0f021 	move	s8,sp
a0800cc0:	afc40020 	sw	a0,32(s8)
a0800cc4:	3c028001 	lui	v0,0x8001
a0800cc8:	34421100 	ori	v0,v0,0x1100
a0800ccc:	afc20010 	sw	v0,16(s8)
a0800cd0:	8fc20010 	lw	v0,16(s8)
a0800cd4:	8fc40020 	lw	a0,32(s8)
a0800cd8:	0040f809 	jalr	v0
a0800cdc:	00000000 	nop
a0800ce0:	03c0e821 	move	sp,s8
a0800ce4:	8fbf001c 	lw	ra,28(sp)
a0800ce8:	8fbe0018 	lw	s8,24(sp)
a0800cec:	27bd0020 	addiu	sp,sp,32
a0800cf0:	03e00008 	jr	ra
a0800cf4:	00000000 	nop
	...

a0800d00 <vt100_move_cursor>:
a0800d00:	27bdffe8 	addiu	sp,sp,-24
a0800d04:	afbf0014 	sw	ra,20(sp)
a0800d08:	afbe0010 	sw	s8,16(sp)
a0800d0c:	03a0f021 	move	s8,sp
a0800d10:	afc40018 	sw	a0,24(s8)
a0800d14:	afc5001c 	sw	a1,28(s8)
a0800d18:	3c02a081 	lui	v0,0xa081
a0800d1c:	2444ade0 	addiu	a0,v0,-21024
a0800d20:	2405001b 	li	a1,27
a0800d24:	8fc6001c 	lw	a2,28(s8)
a0800d28:	8fc70018 	lw	a3,24(s8)
a0800d2c:	0c2018e1 	jal	a0806384 <printk>
a0800d30:	00000000 	nop
a0800d34:	03c0e821 	move	sp,s8
a0800d38:	8fbf0014 	lw	ra,20(sp)
a0800d3c:	8fbe0010 	lw	s8,16(sp)
a0800d40:	27bd0018 	addiu	sp,sp,24
a0800d44:	03e00008 	jr	ra
a0800d48:	00000000 	nop

a0800d4c <vt100_clear>:
a0800d4c:	27bdffe8 	addiu	sp,sp,-24
a0800d50:	afbf0014 	sw	ra,20(sp)
a0800d54:	afbe0010 	sw	s8,16(sp)
a0800d58:	03a0f021 	move	s8,sp
a0800d5c:	3c02a081 	lui	v0,0xa081
a0800d60:	2444adec 	addiu	a0,v0,-21012
a0800d64:	2405001b 	li	a1,27
a0800d68:	0c2018e1 	jal	a0806384 <printk>
a0800d6c:	00000000 	nop
a0800d70:	03c0e821 	move	sp,s8
a0800d74:	8fbf0014 	lw	ra,20(sp)
a0800d78:	8fbe0010 	lw	s8,16(sp)
a0800d7c:	27bd0018 	addiu	sp,sp,24
a0800d80:	03e00008 	jr	ra
a0800d84:	00000000 	nop

a0800d88 <vt100_hidden_cursor>:
a0800d88:	27bdffe8 	addiu	sp,sp,-24
a0800d8c:	afbf0014 	sw	ra,20(sp)
a0800d90:	afbe0010 	sw	s8,16(sp)
a0800d94:	03a0f021 	move	s8,sp
a0800d98:	3c02a081 	lui	v0,0xa081
a0800d9c:	2444adf4 	addiu	a0,v0,-21004
a0800da0:	2405001b 	li	a1,27
a0800da4:	0c2018e1 	jal	a0806384 <printk>
a0800da8:	00000000 	nop
a0800dac:	03c0e821 	move	sp,s8
a0800db0:	8fbf0014 	lw	ra,20(sp)
a0800db4:	8fbe0010 	lw	s8,16(sp)
a0800db8:	27bd0018 	addiu	sp,sp,24
a0800dbc:	03e00008 	jr	ra
a0800dc0:	00000000 	nop

a0800dc4 <screen_scroll>:
a0800dc4:	27bdfff0 	addiu	sp,sp,-16
a0800dc8:	afbe000c 	sw	s8,12(sp)
a0800dcc:	03a0f021 	move	s8,sp
a0800dd0:	afc40010 	sw	a0,16(s8)
a0800dd4:	afc50014 	sw	a1,20(s8)
a0800dd8:	8fc20010 	lw	v0,16(s8)
a0800ddc:	afc20004 	sw	v0,4(s8)
a0800de0:	08200391 	j	a0800e44 <screen_scroll+0x80>
a0800de4:	00000000 	nop
a0800de8:	afc00000 	sw	zero,0(s8)
a0800dec:	0820038a 	j	a0800e28 <screen_scroll+0x64>
a0800df0:	00000000 	nop
a0800df4:	8fc20004 	lw	v0,4(s8)
a0800df8:	00021900 	sll	v1,v0,0x4
a0800dfc:	00031080 	sll	v0,v1,0x2
a0800e00:	00621821 	addu	v1,v1,v0
a0800e04:	8fc20000 	lw	v0,0(s8)
a0800e08:	00621821 	addu	v1,v1,v0
a0800e0c:	3c02a081 	lui	v0,0xa081
a0800e10:	2442be10 	addiu	v0,v0,-16880
a0800e14:	00621021 	addu	v0,v1,v0
a0800e18:	a0400000 	sb	zero,0(v0)
a0800e1c:	8fc20000 	lw	v0,0(s8)
a0800e20:	24420001 	addiu	v0,v0,1
a0800e24:	afc20000 	sw	v0,0(s8)
a0800e28:	8fc20000 	lw	v0,0(s8)
a0800e2c:	28420050 	slti	v0,v0,80
a0800e30:	1440fff0 	bnez	v0,a0800df4 <screen_scroll+0x30>
a0800e34:	00000000 	nop
a0800e38:	8fc20004 	lw	v0,4(s8)
a0800e3c:	24420001 	addiu	v0,v0,1
a0800e40:	afc20004 	sw	v0,4(s8)
a0800e44:	8fc20004 	lw	v0,4(s8)
a0800e48:	8fc30014 	lw	v1,20(s8)
a0800e4c:	0062102a 	slt	v0,v1,v0
a0800e50:	1040ffe5 	beqz	v0,a0800de8 <screen_scroll+0x24>
a0800e54:	00000000 	nop
a0800e58:	8fc20010 	lw	v0,16(s8)
a0800e5c:	afc20004 	sw	v0,4(s8)
a0800e60:	082003cd 	j	a0800f34 <screen_scroll+0x170>
a0800e64:	00000000 	nop
a0800e68:	afc00000 	sw	zero,0(s8)
a0800e6c:	082003c6 	j	a0800f18 <screen_scroll+0x154>
a0800e70:	00000000 	nop
a0800e74:	8fc30004 	lw	v1,4(s8)
a0800e78:	8fc20014 	lw	v0,20(s8)
a0800e7c:	1462000e 	bne	v1,v0,a0800eb8 <screen_scroll+0xf4>
a0800e80:	00000000 	nop
a0800e84:	8fc20004 	lw	v0,4(s8)
a0800e88:	00021900 	sll	v1,v0,0x4
a0800e8c:	00031080 	sll	v0,v1,0x2
a0800e90:	00621821 	addu	v1,v1,v0
a0800e94:	8fc20000 	lw	v0,0(s8)
a0800e98:	00621821 	addu	v1,v1,v0
a0800e9c:	3c02a081 	lui	v0,0xa081
a0800ea0:	2442b4b0 	addiu	v0,v0,-19280
a0800ea4:	00621821 	addu	v1,v1,v0
a0800ea8:	24020020 	li	v0,32
a0800eac:	a0620000 	sb	v0,0(v1)
a0800eb0:	082003c3 	j	a0800f0c <screen_scroll+0x148>
a0800eb4:	00000000 	nop
a0800eb8:	8fc20004 	lw	v0,4(s8)
a0800ebc:	00021900 	sll	v1,v0,0x4
a0800ec0:	00031080 	sll	v0,v1,0x2
a0800ec4:	00621821 	addu	v1,v1,v0
a0800ec8:	8fc20000 	lw	v0,0(s8)
a0800ecc:	00622021 	addu	a0,v1,v0
a0800ed0:	8fc20004 	lw	v0,4(s8)
a0800ed4:	24420001 	addiu	v0,v0,1
a0800ed8:	00021900 	sll	v1,v0,0x4
a0800edc:	00031080 	sll	v0,v1,0x2
a0800ee0:	00621821 	addu	v1,v1,v0
a0800ee4:	8fc20000 	lw	v0,0(s8)
a0800ee8:	00621821 	addu	v1,v1,v0
a0800eec:	3c02a081 	lui	v0,0xa081
a0800ef0:	2442b4b0 	addiu	v0,v0,-19280
a0800ef4:	00621021 	addu	v0,v1,v0
a0800ef8:	80430000 	lb	v1,0(v0)
a0800efc:	3c02a081 	lui	v0,0xa081
a0800f00:	2442b4b0 	addiu	v0,v0,-19280
a0800f04:	00821021 	addu	v0,a0,v0
a0800f08:	a0430000 	sb	v1,0(v0)
a0800f0c:	8fc20000 	lw	v0,0(s8)
a0800f10:	24420001 	addiu	v0,v0,1
a0800f14:	afc20000 	sw	v0,0(s8)
a0800f18:	8fc20000 	lw	v0,0(s8)
a0800f1c:	28420050 	slti	v0,v0,80
a0800f20:	1440ffd4 	bnez	v0,a0800e74 <screen_scroll+0xb0>
a0800f24:	00000000 	nop
a0800f28:	8fc20004 	lw	v0,4(s8)
a0800f2c:	24420001 	addiu	v0,v0,1
a0800f30:	afc20004 	sw	v0,4(s8)
a0800f34:	8fc20004 	lw	v0,4(s8)
a0800f38:	8fc30014 	lw	v1,20(s8)
a0800f3c:	0062102a 	slt	v0,v1,v0
a0800f40:	1040ffc9 	beqz	v0,a0800e68 <screen_scroll+0xa4>
a0800f44:	00000000 	nop
a0800f48:	03c0e821 	move	sp,s8
a0800f4c:	8fbe000c 	lw	s8,12(sp)
a0800f50:	27bd0010 	addiu	sp,sp,16
a0800f54:	03e00008 	jr	ra
a0800f58:	00000000 	nop

a0800f5c <screen_write_ch>:
a0800f5c:	27bdffe8 	addiu	sp,sp,-24
a0800f60:	afbf0014 	sw	ra,20(sp)
a0800f64:	afbe0010 	sw	s8,16(sp)
a0800f68:	03a0f021 	move	s8,sp
a0800f6c:	00801021 	move	v0,a0
a0800f70:	a3c20018 	sb	v0,24(s8)
a0800f74:	83c30018 	lb	v1,24(s8)
a0800f78:	2402000a 	li	v0,10
a0800f7c:	1462000a 	bne	v1,v0,a0800fa8 <screen_write_ch+0x4c>
a0800f80:	00000000 	nop
a0800f84:	3c02a081 	lui	v0,0xa081
a0800f88:	ac40b490 	sw	zero,-19312(v0)
a0800f8c:	3c02a081 	lui	v0,0xa081
a0800f90:	8c42b494 	lw	v0,-19308(v0)
a0800f94:	24430001 	addiu	v1,v0,1
a0800f98:	3c02a081 	lui	v0,0xa081
a0800f9c:	ac43b494 	sw	v1,-19308(v0)
a0800fa0:	08200425 	j	a0801094 <screen_write_ch+0x138>
a0800fa4:	00000000 	nop
a0800fa8:	83c30018 	lb	v1,24(s8)
a0800fac:	24020008 	li	v0,8
a0800fb0:	14620019 	bne	v1,v0,a0801018 <screen_write_ch+0xbc>
a0800fb4:	00000000 	nop
a0800fb8:	3c02a081 	lui	v0,0xa081
a0800fbc:	8c42b490 	lw	v0,-19312(v0)
a0800fc0:	18400034 	blez	v0,a0801094 <screen_write_ch+0x138>
a0800fc4:	00000000 	nop
a0800fc8:	3c02a081 	lui	v0,0xa081
a0800fcc:	8c42b490 	lw	v0,-19312(v0)
a0800fd0:	2443ffff 	addiu	v1,v0,-1
a0800fd4:	3c02a081 	lui	v0,0xa081
a0800fd8:	ac43b490 	sw	v1,-19312(v0)
a0800fdc:	3c02a081 	lui	v0,0xa081
a0800fe0:	8c42b494 	lw	v0,-19308(v0)
a0800fe4:	00021900 	sll	v1,v0,0x4
a0800fe8:	00031080 	sll	v0,v1,0x2
a0800fec:	00621821 	addu	v1,v1,v0
a0800ff0:	3c02a081 	lui	v0,0xa081
a0800ff4:	8c42b490 	lw	v0,-19312(v0)
a0800ff8:	00621821 	addu	v1,v1,v0
a0800ffc:	3c02a081 	lui	v0,0xa081
a0801000:	2442b4b0 	addiu	v0,v0,-19280
a0801004:	00621821 	addu	v1,v1,v0
a0801008:	24020020 	li	v0,32
a080100c:	a0620000 	sb	v0,0(v1)
a0801010:	08200425 	j	a0801094 <screen_write_ch+0x138>
a0801014:	00000000 	nop
a0801018:	83c30018 	lb	v1,24(s8)
a080101c:	2402000d 	li	v0,13
a0801020:	1462000a 	bne	v1,v0,a080104c <screen_write_ch+0xf0>
a0801024:	00000000 	nop
a0801028:	3c02a081 	lui	v0,0xa081
a080102c:	ac40b490 	sw	zero,-19312(v0)
a0801030:	3c02a081 	lui	v0,0xa081
a0801034:	8c42b494 	lw	v0,-19308(v0)
a0801038:	24430001 	addiu	v1,v0,1
a080103c:	3c02a081 	lui	v0,0xa081
a0801040:	ac43b494 	sw	v1,-19308(v0)
a0801044:	08200425 	j	a0801094 <screen_write_ch+0x138>
a0801048:	00000000 	nop
a080104c:	3c02a081 	lui	v0,0xa081
a0801050:	8c42b494 	lw	v0,-19308(v0)
a0801054:	00021900 	sll	v1,v0,0x4
a0801058:	00031080 	sll	v0,v1,0x2
a080105c:	00621821 	addu	v1,v1,v0
a0801060:	3c02a081 	lui	v0,0xa081
a0801064:	8c42b490 	lw	v0,-19312(v0)
a0801068:	00621821 	addu	v1,v1,v0
a080106c:	3c02a081 	lui	v0,0xa081
a0801070:	2442b4b0 	addiu	v0,v0,-19280
a0801074:	00621821 	addu	v1,v1,v0
a0801078:	93c20018 	lbu	v0,24(s8)
a080107c:	a0620000 	sb	v0,0(v1)
a0801080:	3c02a081 	lui	v0,0xa081
a0801084:	8c42b490 	lw	v0,-19312(v0)
a0801088:	24430001 	addiu	v1,v0,1
a080108c:	3c02a081 	lui	v0,0xa081
a0801090:	ac43b490 	sw	v1,-19312(v0)
a0801094:	3c02a081 	lui	v0,0xa081
a0801098:	8c42b490 	lw	v0,-19312(v0)
a080109c:	04410003 	bgez	v0,a08010ac <screen_write_ch+0x150>
a08010a0:	00000000 	nop
a08010a4:	3c02a081 	lui	v0,0xa081
a08010a8:	ac40b490 	sw	zero,-19312(v0)
a08010ac:	3c02a081 	lui	v0,0xa081
a08010b0:	8c42b490 	lw	v0,-19312(v0)
a08010b4:	28420050 	slti	v0,v0,80
a08010b8:	14400008 	bnez	v0,a08010dc <screen_write_ch+0x180>
a08010bc:	00000000 	nop
a08010c0:	3c02a081 	lui	v0,0xa081
a08010c4:	8c42b494 	lw	v0,-19308(v0)
a08010c8:	24430001 	addiu	v1,v0,1
a08010cc:	3c02a081 	lui	v0,0xa081
a08010d0:	ac43b494 	sw	v1,-19308(v0)
a08010d4:	3c02a081 	lui	v0,0xa081
a08010d8:	ac40b490 	sw	zero,-19312(v0)
a08010dc:	3c02a081 	lui	v0,0xa081
a08010e0:	8c42b494 	lw	v0,-19308(v0)
a08010e4:	04410003 	bgez	v0,a08010f4 <screen_write_ch+0x198>
a08010e8:	00000000 	nop
a08010ec:	3c02a081 	lui	v0,0xa081
a08010f0:	ac40b494 	sw	zero,-19308(v0)
a08010f4:	3c02a081 	lui	v0,0xa081
a08010f8:	8c42b494 	lw	v0,-19308(v0)
a08010fc:	2842001e 	slti	v0,v0,30
a0801100:	1440000a 	bnez	v0,a080112c <screen_write_ch+0x1d0>
a0801104:	00000000 	nop
a0801108:	24040010 	li	a0,16
a080110c:	2405001d 	li	a1,29
a0801110:	0c200371 	jal	a0800dc4 <screen_scroll>
a0801114:	00000000 	nop
a0801118:	3c02a081 	lui	v0,0xa081
a080111c:	ac40b490 	sw	zero,-19312(v0)
a0801120:	3c03a081 	lui	v1,0xa081
a0801124:	2402001d 	li	v0,29
a0801128:	ac62b494 	sw	v0,-19308(v1)
a080112c:	03c0e821 	move	sp,s8
a0801130:	8fbf0014 	lw	ra,20(sp)
a0801134:	8fbe0010 	lw	s8,16(sp)
a0801138:	27bd0018 	addiu	sp,sp,24
a080113c:	03e00008 	jr	ra
a0801140:	00000000 	nop

a0801144 <init_screen>:
a0801144:	27bdffe8 	addiu	sp,sp,-24
a0801148:	afbf0014 	sw	ra,20(sp)
a080114c:	afbe0010 	sw	s8,16(sp)
a0801150:	03a0f021 	move	s8,sp
a0801154:	0c200362 	jal	a0800d88 <vt100_hidden_cursor>
a0801158:	00000000 	nop
a080115c:	0c200353 	jal	a0800d4c <vt100_clear>
a0801160:	00000000 	nop
a0801164:	00002021 	move	a0,zero
a0801168:	2405001e 	li	a1,30
a080116c:	0c200463 	jal	a080118c <screen_clear>
a0801170:	00000000 	nop
a0801174:	03c0e821 	move	sp,s8
a0801178:	8fbf0014 	lw	ra,20(sp)
a080117c:	8fbe0010 	lw	s8,16(sp)
a0801180:	27bd0018 	addiu	sp,sp,24
a0801184:	03e00008 	jr	ra
a0801188:	00000000 	nop

a080118c <screen_clear>:
a080118c:	27bdffe0 	addiu	sp,sp,-32
a0801190:	afbf001c 	sw	ra,28(sp)
a0801194:	afbe0018 	sw	s8,24(sp)
a0801198:	03a0f021 	move	s8,sp
a080119c:	afc40020 	sw	a0,32(s8)
a08011a0:	afc50024 	sw	a1,36(s8)
a08011a4:	8fc20020 	lw	v0,32(s8)
a08011a8:	afc20014 	sw	v0,20(s8)
a08011ac:	0820048f 	j	a080123c <screen_clear+0xb0>
a08011b0:	00000000 	nop
a08011b4:	afc00010 	sw	zero,16(s8)
a08011b8:	08200488 	j	a0801220 <screen_clear+0x94>
a08011bc:	00000000 	nop
a08011c0:	8fc20014 	lw	v0,20(s8)
a08011c4:	00021900 	sll	v1,v0,0x4
a08011c8:	00031080 	sll	v0,v1,0x2
a08011cc:	00621821 	addu	v1,v1,v0
a08011d0:	8fc20010 	lw	v0,16(s8)
a08011d4:	00621821 	addu	v1,v1,v0
a08011d8:	3c02a081 	lui	v0,0xa081
a08011dc:	2442b4b0 	addiu	v0,v0,-19280
a08011e0:	00621821 	addu	v1,v1,v0
a08011e4:	24020020 	li	v0,32
a08011e8:	a0620000 	sb	v0,0(v1)
a08011ec:	8fc20014 	lw	v0,20(s8)
a08011f0:	00021900 	sll	v1,v0,0x4
a08011f4:	00031080 	sll	v0,v1,0x2
a08011f8:	00621821 	addu	v1,v1,v0
a08011fc:	8fc20010 	lw	v0,16(s8)
a0801200:	00621821 	addu	v1,v1,v0
a0801204:	3c02a081 	lui	v0,0xa081
a0801208:	2442be10 	addiu	v0,v0,-16880
a080120c:	00621021 	addu	v0,v1,v0
a0801210:	a0400000 	sb	zero,0(v0)
a0801214:	8fc20010 	lw	v0,16(s8)
a0801218:	24420001 	addiu	v0,v0,1
a080121c:	afc20010 	sw	v0,16(s8)
a0801220:	8fc20010 	lw	v0,16(s8)
a0801224:	28420050 	slti	v0,v0,80
a0801228:	1440ffe5 	bnez	v0,a08011c0 <screen_clear+0x34>
a080122c:	00000000 	nop
a0801230:	8fc20014 	lw	v0,20(s8)
a0801234:	24420001 	addiu	v0,v0,1
a0801238:	afc20014 	sw	v0,20(s8)
a080123c:	8fc20014 	lw	v0,20(s8)
a0801240:	8fc30024 	lw	v1,36(s8)
a0801244:	0043102a 	slt	v0,v0,v1
a0801248:	1440ffda 	bnez	v0,a08011b4 <screen_clear+0x28>
a080124c:	00000000 	nop
a0801250:	3c02a081 	lui	v0,0xa081
a0801254:	ac40b490 	sw	zero,-19312(v0)
a0801258:	3c02a081 	lui	v0,0xa081
a080125c:	ac40b494 	sw	zero,-19308(v0)
a0801260:	0c2004d2 	jal	a0801348 <screen_reflush>
a0801264:	00000000 	nop
a0801268:	03c0e821 	move	sp,s8
a080126c:	8fbf001c 	lw	ra,28(sp)
a0801270:	8fbe0018 	lw	s8,24(sp)
a0801274:	27bd0020 	addiu	sp,sp,32
a0801278:	03e00008 	jr	ra
a080127c:	00000000 	nop

a0801280 <screen_move_cursor>:
a0801280:	27bdfff8 	addiu	sp,sp,-8
a0801284:	afbe0004 	sw	s8,4(sp)
a0801288:	03a0f021 	move	s8,sp
a080128c:	afc40008 	sw	a0,8(s8)
a0801290:	afc5000c 	sw	a1,12(s8)
a0801294:	3c03a081 	lui	v1,0xa081
a0801298:	8fc20008 	lw	v0,8(s8)
a080129c:	ac62b490 	sw	v0,-19312(v1)
a08012a0:	3c03a081 	lui	v1,0xa081
a08012a4:	8fc2000c 	lw	v0,12(s8)
a08012a8:	ac62b494 	sw	v0,-19308(v1)
a08012ac:	03c0e821 	move	sp,s8
a08012b0:	8fbe0004 	lw	s8,4(sp)
a08012b4:	27bd0008 	addiu	sp,sp,8
a08012b8:	03e00008 	jr	ra
a08012bc:	00000000 	nop

a08012c0 <screen_write>:
a08012c0:	27bdffe0 	addiu	sp,sp,-32
a08012c4:	afbf001c 	sw	ra,28(sp)
a08012c8:	afbe0018 	sw	s8,24(sp)
a08012cc:	03a0f021 	move	s8,sp
a08012d0:	afc40020 	sw	a0,32(s8)
a08012d4:	afc00014 	sw	zero,20(s8)
a08012d8:	8fc40020 	lw	a0,32(s8)
a08012dc:	0c20162c 	jal	a08058b0 <strlen>
a08012e0:	00000000 	nop
a08012e4:	afc20010 	sw	v0,16(s8)
a08012e8:	afc00014 	sw	zero,20(s8)
a08012ec:	082004c7 	j	a080131c <screen_write+0x5c>
a08012f0:	00000000 	nop
a08012f4:	8fc30014 	lw	v1,20(s8)
a08012f8:	8fc20020 	lw	v0,32(s8)
a08012fc:	00431021 	addu	v0,v0,v1
a0801300:	80420000 	lb	v0,0(v0)
a0801304:	00402021 	move	a0,v0
a0801308:	0c2003d7 	jal	a0800f5c <screen_write_ch>
a080130c:	00000000 	nop
a0801310:	8fc20014 	lw	v0,20(s8)
a0801314:	24420001 	addiu	v0,v0,1
a0801318:	afc20014 	sw	v0,20(s8)
a080131c:	8fc20014 	lw	v0,20(s8)
a0801320:	8fc30010 	lw	v1,16(s8)
a0801324:	0043102a 	slt	v0,v0,v1
a0801328:	1440fff2 	bnez	v0,a08012f4 <screen_write+0x34>
a080132c:	00000000 	nop
a0801330:	03c0e821 	move	sp,s8
a0801334:	8fbf001c 	lw	ra,28(sp)
a0801338:	8fbe0018 	lw	s8,24(sp)
a080133c:	27bd0020 	addiu	sp,sp,32
a0801340:	03e00008 	jr	ra
a0801344:	00000000 	nop

a0801348 <screen_reflush>:
a0801348:	27bdffe0 	addiu	sp,sp,-32
a080134c:	afbf001c 	sw	ra,28(sp)
a0801350:	afbe0018 	sw	s8,24(sp)
a0801354:	03a0f021 	move	s8,sp
a0801358:	afc00014 	sw	zero,20(s8)
a080135c:	08200525 	j	a0801494 <screen_reflush+0x14c>
a0801360:	00000000 	nop
a0801364:	afc00010 	sw	zero,16(s8)
a0801368:	0820051e 	j	a0801478 <screen_reflush+0x130>
a080136c:	00000000 	nop
a0801370:	8fc20014 	lw	v0,20(s8)
a0801374:	00021900 	sll	v1,v0,0x4
a0801378:	00031080 	sll	v0,v1,0x2
a080137c:	00621821 	addu	v1,v1,v0
a0801380:	8fc20010 	lw	v0,16(s8)
a0801384:	00621821 	addu	v1,v1,v0
a0801388:	3c02a081 	lui	v0,0xa081
a080138c:	2442b4b0 	addiu	v0,v0,-19280
a0801390:	00621021 	addu	v0,v1,v0
a0801394:	80440000 	lb	a0,0(v0)
a0801398:	8fc20014 	lw	v0,20(s8)
a080139c:	00021900 	sll	v1,v0,0x4
a08013a0:	00031080 	sll	v0,v1,0x2
a08013a4:	00621821 	addu	v1,v1,v0
a08013a8:	8fc20010 	lw	v0,16(s8)
a08013ac:	00621821 	addu	v1,v1,v0
a08013b0:	3c02a081 	lui	v0,0xa081
a08013b4:	2442be10 	addiu	v0,v0,-16880
a08013b8:	00621021 	addu	v0,v1,v0
a08013bc:	80420000 	lb	v0,0(v0)
a08013c0:	1082002a 	beq	a0,v0,a080146c <screen_reflush+0x124>
a08013c4:	00000000 	nop
a08013c8:	8fc20010 	lw	v0,16(s8)
a08013cc:	24430001 	addiu	v1,v0,1
a08013d0:	8fc20014 	lw	v0,20(s8)
a08013d4:	24420001 	addiu	v0,v0,1
a08013d8:	00602021 	move	a0,v1
a08013dc:	00402821 	move	a1,v0
a08013e0:	0c200340 	jal	a0800d00 <vt100_move_cursor>
a08013e4:	00000000 	nop
a08013e8:	8fc20014 	lw	v0,20(s8)
a08013ec:	00021900 	sll	v1,v0,0x4
a08013f0:	00031080 	sll	v0,v1,0x2
a08013f4:	00621821 	addu	v1,v1,v0
a08013f8:	8fc20010 	lw	v0,16(s8)
a08013fc:	00621821 	addu	v1,v1,v0
a0801400:	3c02a081 	lui	v0,0xa081
a0801404:	2442b4b0 	addiu	v0,v0,-19280
a0801408:	00621021 	addu	v0,v1,v0
a080140c:	80420000 	lb	v0,0(v0)
a0801410:	00402021 	move	a0,v0
a0801414:	0c200318 	jal	a0800c60 <port_write_ch>
a0801418:	00000000 	nop
a080141c:	8fc20014 	lw	v0,20(s8)
a0801420:	00021900 	sll	v1,v0,0x4
a0801424:	00031080 	sll	v0,v1,0x2
a0801428:	00621821 	addu	v1,v1,v0
a080142c:	8fc20010 	lw	v0,16(s8)
a0801430:	00622021 	addu	a0,v1,v0
a0801434:	8fc20014 	lw	v0,20(s8)
a0801438:	00021900 	sll	v1,v0,0x4
a080143c:	00031080 	sll	v0,v1,0x2
a0801440:	00621821 	addu	v1,v1,v0
a0801444:	8fc20010 	lw	v0,16(s8)
a0801448:	00621821 	addu	v1,v1,v0
a080144c:	3c02a081 	lui	v0,0xa081
a0801450:	2442b4b0 	addiu	v0,v0,-19280
a0801454:	00621021 	addu	v0,v1,v0
a0801458:	80430000 	lb	v1,0(v0)
a080145c:	3c02a081 	lui	v0,0xa081
a0801460:	2442be10 	addiu	v0,v0,-16880
a0801464:	00821021 	addu	v0,a0,v0
a0801468:	a0430000 	sb	v1,0(v0)
a080146c:	8fc20010 	lw	v0,16(s8)
a0801470:	24420001 	addiu	v0,v0,1
a0801474:	afc20010 	sw	v0,16(s8)
a0801478:	8fc20010 	lw	v0,16(s8)
a080147c:	28420050 	slti	v0,v0,80
a0801480:	1440ffbb 	bnez	v0,a0801370 <screen_reflush+0x28>
a0801484:	00000000 	nop
a0801488:	8fc20014 	lw	v0,20(s8)
a080148c:	24420001 	addiu	v0,v0,1
a0801490:	afc20014 	sw	v0,20(s8)
a0801494:	8fc20014 	lw	v0,20(s8)
a0801498:	2842001e 	slti	v0,v0,30
a080149c:	1440ffb1 	bnez	v0,a0801364 <screen_reflush+0x1c>
a08014a0:	00000000 	nop
a08014a4:	3c02a081 	lui	v0,0xa081
a08014a8:	8c43b490 	lw	v1,-19312(v0)
a08014ac:	3c02a081 	lui	v0,0xa081
a08014b0:	8c42b494 	lw	v0,-19308(v0)
a08014b4:	00602021 	move	a0,v1
a08014b8:	00402821 	move	a1,v0
a08014bc:	0c200340 	jal	a0800d00 <vt100_move_cursor>
a08014c0:	00000000 	nop
a08014c4:	03c0e821 	move	sp,s8
a08014c8:	8fbf001c 	lw	ra,28(sp)
a08014cc:	8fbe0018 	lw	s8,24(sp)
a08014d0:	27bd0020 	addiu	sp,sp,32
a08014d4:	03e00008 	jr	ra
a08014d8:	00000000 	nop
a08014dc:	00000000 	nop

a08014e0 <reg_read_32>:
a08014e0:	27bdfff8 	addiu	sp,sp,-8
a08014e4:	afbe0004 	sw	s8,4(sp)
a08014e8:	03a0f021 	move	s8,sp
a08014ec:	afc40008 	sw	a0,8(s8)
a08014f0:	8fc20008 	lw	v0,8(s8)
a08014f4:	8c420000 	lw	v0,0(v0)
a08014f8:	03c0e821 	move	sp,s8
a08014fc:	8fbe0004 	lw	s8,4(sp)
a0801500:	27bd0008 	addiu	sp,sp,8
a0801504:	03e00008 	jr	ra
a0801508:	00000000 	nop

a080150c <read_register>:
a080150c:	27bdfff0 	addiu	sp,sp,-16
a0801510:	afbe000c 	sw	s8,12(sp)
a0801514:	03a0f021 	move	s8,sp
a0801518:	afc40010 	sw	a0,16(s8)
a080151c:	afc50014 	sw	a1,20(s8)
a0801520:	8fc30010 	lw	v1,16(s8)
a0801524:	8fc20014 	lw	v0,20(s8)
a0801528:	00621021 	addu	v0,v1,v0
a080152c:	afc20004 	sw	v0,4(s8)
a0801530:	8fc20004 	lw	v0,4(s8)
a0801534:	8c420000 	lw	v0,0(v0)
a0801538:	afc20000 	sw	v0,0(s8)
a080153c:	8fc20000 	lw	v0,0(s8)
a0801540:	03c0e821 	move	sp,s8
a0801544:	8fbe000c 	lw	s8,12(sp)
a0801548:	27bd0010 	addiu	sp,sp,16
a080154c:	03e00008 	jr	ra
a0801550:	00000000 	nop

a0801554 <reg_write_32>:
a0801554:	27bdfff8 	addiu	sp,sp,-8
a0801558:	afbe0004 	sw	s8,4(sp)
a080155c:	03a0f021 	move	s8,sp
a0801560:	afc40008 	sw	a0,8(s8)
a0801564:	afc5000c 	sw	a1,12(s8)
a0801568:	8fc30008 	lw	v1,8(s8)
a080156c:	8fc2000c 	lw	v0,12(s8)
a0801570:	ac620000 	sw	v0,0(v1)
a0801574:	03c0e821 	move	sp,s8
a0801578:	8fbe0004 	lw	s8,4(sp)
a080157c:	27bd0008 	addiu	sp,sp,8
a0801580:	03e00008 	jr	ra
a0801584:	00000000 	nop

a0801588 <gmac_get_mac_addr>:
a0801588:	27bdffe0 	addiu	sp,sp,-32
a080158c:	afbf001c 	sw	ra,28(sp)
a0801590:	afbe0018 	sw	s8,24(sp)
a0801594:	03a0f021 	move	s8,sp
a0801598:	afc40020 	sw	a0,32(s8)
a080159c:	3c04bfe1 	lui	a0,0xbfe1
a08015a0:	24050044 	li	a1,68
a08015a4:	0c200543 	jal	a080150c <read_register>
a08015a8:	00000000 	nop
a08015ac:	afc20010 	sw	v0,16(s8)
a08015b0:	8fc20010 	lw	v0,16(s8)
a08015b4:	304300ff 	andi	v1,v0,0xff
a08015b8:	8fc20020 	lw	v0,32(s8)
a08015bc:	a0430000 	sb	v1,0(v0)
a08015c0:	8fc20020 	lw	v0,32(s8)
a08015c4:	24430001 	addiu	v1,v0,1
a08015c8:	8fc20010 	lw	v0,16(s8)
a08015cc:	00021202 	srl	v0,v0,0x8
a08015d0:	304200ff 	andi	v0,v0,0xff
a08015d4:	a0620000 	sb	v0,0(v1)
a08015d8:	8fc20020 	lw	v0,32(s8)
a08015dc:	24430002 	addiu	v1,v0,2
a08015e0:	8fc20010 	lw	v0,16(s8)
a08015e4:	00021402 	srl	v0,v0,0x10
a08015e8:	304200ff 	andi	v0,v0,0xff
a08015ec:	a0620000 	sb	v0,0(v1)
a08015f0:	8fc20020 	lw	v0,32(s8)
a08015f4:	24430003 	addiu	v1,v0,3
a08015f8:	8fc20010 	lw	v0,16(s8)
a08015fc:	00021602 	srl	v0,v0,0x18
a0801600:	304200ff 	andi	v0,v0,0xff
a0801604:	a0620000 	sb	v0,0(v1)
a0801608:	3c04bfe1 	lui	a0,0xbfe1
a080160c:	24050040 	li	a1,64
a0801610:	0c200543 	jal	a080150c <read_register>
a0801614:	00000000 	nop
a0801618:	afc20010 	sw	v0,16(s8)
a080161c:	8fc20020 	lw	v0,32(s8)
a0801620:	24430004 	addiu	v1,v0,4
a0801624:	8fc20010 	lw	v0,16(s8)
a0801628:	304200ff 	andi	v0,v0,0xff
a080162c:	a0620000 	sb	v0,0(v1)
a0801630:	8fc20020 	lw	v0,32(s8)
a0801634:	24430005 	addiu	v1,v0,5
a0801638:	8fc20010 	lw	v0,16(s8)
a080163c:	00021202 	srl	v0,v0,0x8
a0801640:	304200ff 	andi	v0,v0,0xff
a0801644:	a0620000 	sb	v0,0(v1)
a0801648:	03c0e821 	move	sp,s8
a080164c:	8fbf001c 	lw	ra,28(sp)
a0801650:	8fbe0018 	lw	s8,24(sp)
a0801654:	27bd0020 	addiu	sp,sp,32
a0801658:	03e00008 	jr	ra
a080165c:	00000000 	nop

a0801660 <print_rx_dscrb>:
a0801660:	27bdffe0 	addiu	sp,sp,-32
a0801664:	afbf001c 	sw	ra,28(sp)
a0801668:	afbe0018 	sw	s8,24(sp)
a080166c:	03a0f021 	move	s8,sp
a0801670:	afc40020 	sw	a0,32(s8)
a0801674:	8fc20020 	lw	v0,32(s8)
a0801678:	8c430014 	lw	v1,20(v0)
a080167c:	3c02a081 	lui	v0,0xa081
a0801680:	2444ae00 	addiu	a0,v0,-20992
a0801684:	00602821 	move	a1,v1
a0801688:	0c201903 	jal	a080640c <printf>
a080168c:	00000000 	nop
a0801690:	8fc20020 	lw	v0,32(s8)
a0801694:	8c43001c 	lw	v1,28(v0)
a0801698:	3c02a081 	lui	v0,0xa081
a080169c:	2444ae24 	addiu	a0,v0,-20956
a08016a0:	00602821 	move	a1,v1
a08016a4:	0c201903 	jal	a080640c <printf>
a08016a8:	00000000 	nop
a08016ac:	8fc20020 	lw	v0,32(s8)
a08016b0:	8c43002c 	lw	v1,44(v0)
a08016b4:	3c02a081 	lui	v0,0xa081
a08016b8:	2444ae3c 	addiu	a0,v0,-20932
a08016bc:	00602821 	move	a1,v1
a08016c0:	0c201903 	jal	a080640c <printf>
a08016c4:	00000000 	nop
a08016c8:	8fc20020 	lw	v0,32(s8)
a08016cc:	8c420024 	lw	v0,36(v0)
a08016d0:	afc20010 	sw	v0,16(s8)
a08016d4:	03c0e821 	move	sp,s8
a08016d8:	8fbf001c 	lw	ra,28(sp)
a08016dc:	8fbe0018 	lw	s8,24(sp)
a08016e0:	27bd0020 	addiu	sp,sp,32
a08016e4:	03e00008 	jr	ra
a08016e8:	00000000 	nop

a08016ec <mac_irq_handle>:
a08016ec:	27bdffe0 	addiu	sp,sp,-32
a08016f0:	afbf001c 	sw	ra,28(sp)
a08016f4:	afbe0018 	sw	s8,24(sp)
a08016f8:	03a0f021 	move	s8,sp
a08016fc:	3c02a081 	lui	v0,0xa081
a0801700:	2444c7b0 	addiu	a0,v0,-14416
a0801704:	0c200d5f 	jal	a080357c <do_unblock_all>
a0801708:	00000000 	nop
a080170c:	3c02a081 	lui	v0,0xa081
a0801710:	8c43b3d0 	lw	v1,-19504(v0)
a0801714:	000317c3 	sra	v0,v1,0x1f
a0801718:	00022682 	srl	a0,v0,0x1a
a080171c:	00641021 	addu	v0,v1,a0
a0801720:	3042003f 	andi	v0,v0,0x3f
a0801724:	00441023 	subu	v0,v0,a0
a0801728:	afc20010 	sw	v0,16(s8)
a080172c:	3c02a081 	lui	v0,0xa081
a0801730:	8c42b3d0 	lw	v0,-19504(v0)
a0801734:	24430001 	addiu	v1,v0,1
a0801738:	3c02a081 	lui	v0,0xa081
a080173c:	ac43b3d0 	sw	v1,-19504(v0)
a0801740:	0c200601 	jal	a0801804 <clear_interrupt>
a0801744:	00000000 	nop
a0801748:	03c0e821 	move	sp,s8
a080174c:	8fbf001c 	lw	ra,28(sp)
a0801750:	8fbe0018 	lw	s8,24(sp)
a0801754:	27bd0020 	addiu	sp,sp,32
a0801758:	03e00008 	jr	ra
a080175c:	00000000 	nop

a0801760 <irq_enable>:
a0801760:	27bdffe8 	addiu	sp,sp,-24
a0801764:	afbf0014 	sw	ra,20(sp)
a0801768:	afbe0010 	sw	s8,16(sp)
a080176c:	03a0f021 	move	s8,sp
a0801770:	afc40018 	sw	a0,24(s8)
a0801774:	8fc20018 	lw	v0,24(s8)
a0801778:	10400008 	beqz	v0,a080179c <irq_enable+0x3c>
a080177c:	00000000 	nop
a0801780:	3c02bfd0 	lui	v0,0xbfd0
a0801784:	3444105c 	ori	a0,v0,0x105c
a0801788:	24050008 	li	a1,8
a080178c:	0c200555 	jal	a0801554 <reg_write_32>
a0801790:	00000000 	nop
a0801794:	082005ec 	j	a08017b0 <irq_enable+0x50>
a0801798:	00000000 	nop
a080179c:	3c02bfd0 	lui	v0,0xbfd0
a08017a0:	3444105c 	ori	a0,v0,0x105c
a08017a4:	00002821 	move	a1,zero
a08017a8:	0c200555 	jal	a0801554 <reg_write_32>
a08017ac:	00000000 	nop
a08017b0:	3c02bfd0 	lui	v0,0xbfd0
a08017b4:	34441064 	ori	a0,v0,0x1064
a08017b8:	2405ffff 	li	a1,-1
a08017bc:	0c200555 	jal	a0801554 <reg_write_32>
a08017c0:	00000000 	nop
a08017c4:	3c02bfd0 	lui	v0,0xbfd0
a08017c8:	34441068 	ori	a0,v0,0x1068
a08017cc:	2405ffff 	li	a1,-1
a08017d0:	0c200555 	jal	a0801554 <reg_write_32>
a08017d4:	00000000 	nop
a08017d8:	3c02bfd0 	lui	v0,0xbfd0
a08017dc:	3444106c 	ori	a0,v0,0x106c
a08017e0:	00002821 	move	a1,zero
a08017e4:	0c200555 	jal	a0801554 <reg_write_32>
a08017e8:	00000000 	nop
a08017ec:	03c0e821 	move	sp,s8
a08017f0:	8fbf0014 	lw	ra,20(sp)
a08017f4:	8fbe0010 	lw	s8,16(sp)
a08017f8:	27bd0018 	addiu	sp,sp,24
a08017fc:	03e00008 	jr	ra
a0801800:	00000000 	nop

a0801804 <clear_interrupt>:
a0801804:	27bdffe0 	addiu	sp,sp,-32
a0801808:	afbf001c 	sw	ra,28(sp)
a080180c:	afbe0018 	sw	s8,24(sp)
a0801810:	03a0f021 	move	s8,sp
a0801814:	3c02bfe1 	lui	v0,0xbfe1
a0801818:	34441014 	ori	a0,v0,0x1014
a080181c:	0c200538 	jal	a08014e0 <reg_read_32>
a0801820:	00000000 	nop
a0801824:	afc20010 	sw	v0,16(s8)
a0801828:	3c02bfe1 	lui	v0,0xbfe1
a080182c:	34441014 	ori	a0,v0,0x1014
a0801830:	8fc50010 	lw	a1,16(s8)
a0801834:	0c200555 	jal	a0801554 <reg_write_32>
a0801838:	00000000 	nop
a080183c:	03c0e821 	move	sp,s8
a0801840:	8fbf001c 	lw	ra,28(sp)
a0801844:	8fbe0018 	lw	s8,24(sp)
a0801848:	27bd0020 	addiu	sp,sp,32
a080184c:	03e00008 	jr	ra
a0801850:	00000000 	nop

a0801854 <set_sram_ctr>:
a0801854:	27bdfff8 	addiu	sp,sp,-8
a0801858:	afbe0004 	sw	s8,4(sp)
a080185c:	03a0f021 	move	s8,sp
a0801860:	3c02bfd0 	lui	v0,0xbfd0
a0801864:	34430420 	ori	v1,v0,0x420
a0801868:	34028000 	li	v0,0x8000
a080186c:	ac620000 	sw	v0,0(v1)
a0801870:	03c0e821 	move	sp,s8
a0801874:	8fbe0004 	lw	s8,4(sp)
a0801878:	27bd0008 	addiu	sp,sp,8
a080187c:	03e00008 	jr	ra
a0801880:	00000000 	nop

a0801884 <s_reset>:
a0801884:	27bdffe0 	addiu	sp,sp,-32
a0801888:	afbf001c 	sw	ra,28(sp)
a080188c:	afbe0018 	sw	s8,24(sp)
a0801890:	03a0f021 	move	s8,sp
a0801894:	afc40020 	sw	a0,32(s8)
a0801898:	3c02000f 	lui	v0,0xf
a080189c:	34424240 	ori	v0,v0,0x4240
a08018a0:	afc20010 	sw	v0,16(s8)
a08018a4:	8fc20020 	lw	v0,32(s8)
a08018a8:	8c42000c 	lw	v0,12(v0)
a08018ac:	00402021 	move	a0,v0
a08018b0:	24050001 	li	a1,1
a08018b4:	0c200555 	jal	a0801554 <reg_write_32>
a08018b8:	00000000 	nop
a08018bc:	0820063f 	j	a08018fc <s_reset+0x78>
a08018c0:	00000000 	nop
a08018c4:	8fc20020 	lw	v0,32(s8)
a08018c8:	8c42000c 	lw	v0,12(v0)
a08018cc:	00402021 	move	a0,v0
a08018d0:	24050001 	li	a1,1
a08018d4:	0c200555 	jal	a0801554 <reg_write_32>
a08018d8:	00000000 	nop
a08018dc:	0820063c 	j	a08018f0 <s_reset+0x6c>
a08018e0:	00000000 	nop
a08018e4:	8fc20010 	lw	v0,16(s8)
a08018e8:	2442ffff 	addiu	v0,v0,-1
a08018ec:	afc20010 	sw	v0,16(s8)
a08018f0:	8fc20010 	lw	v0,16(s8)
a08018f4:	1440fffb 	bnez	v0,a08018e4 <s_reset+0x60>
a08018f8:	00000000 	nop
a08018fc:	8fc20020 	lw	v0,32(s8)
a0801900:	8c42000c 	lw	v0,12(v0)
a0801904:	00402021 	move	a0,v0
a0801908:	0c200538 	jal	a08014e0 <reg_read_32>
a080190c:	00000000 	nop
a0801910:	30420001 	andi	v0,v0,0x1
a0801914:	304200ff 	andi	v0,v0,0xff
a0801918:	1440ffea 	bnez	v0,a08018c4 <s_reset+0x40>
a080191c:	00000000 	nop
a0801920:	03c0e821 	move	sp,s8
a0801924:	8fbf001c 	lw	ra,28(sp)
a0801928:	8fbe0018 	lw	s8,24(sp)
a080192c:	27bd0020 	addiu	sp,sp,32
a0801930:	03e00008 	jr	ra
a0801934:	00000000 	nop

a0801938 <disable_interrupt_all>:
a0801938:	27bdffe8 	addiu	sp,sp,-24
a080193c:	afbf0014 	sw	ra,20(sp)
a0801940:	afbe0010 	sw	s8,16(sp)
a0801944:	03a0f021 	move	s8,sp
a0801948:	afc40018 	sw	a0,24(s8)
a080194c:	8fc20018 	lw	v0,24(s8)
a0801950:	8c42000c 	lw	v0,12(v0)
a0801954:	2442001c 	addiu	v0,v0,28
a0801958:	00402021 	move	a0,v0
a080195c:	00002821 	move	a1,zero
a0801960:	0c200555 	jal	a0801554 <reg_write_32>
a0801964:	00000000 	nop
a0801968:	03c0e821 	move	sp,s8
a080196c:	8fbf0014 	lw	ra,20(sp)
a0801970:	8fbe0010 	lw	s8,16(sp)
a0801974:	27bd0018 	addiu	sp,sp,24
a0801978:	03e00008 	jr	ra
a080197c:	00000000 	nop

a0801980 <set_mac_addr>:
a0801980:	27bdffd0 	addiu	sp,sp,-48
a0801984:	afbf002c 	sw	ra,44(sp)
a0801988:	afbe0028 	sw	s8,40(sp)
a080198c:	03a0f021 	move	s8,sp
a0801990:	afc40030 	sw	a0,48(s8)
a0801994:	3c03a081 	lui	v1,0xa081
a0801998:	8c62ae64 	lw	v0,-20892(v1)
a080199c:	afc2001c 	sw	v0,28(s8)
a08019a0:	2462ae64 	addiu	v0,v1,-20892
a08019a4:	94420004 	lhu	v0,4(v0)
a08019a8:	a7c20020 	sh	v0,32(s8)
a08019ac:	24020040 	li	v0,64
a08019b0:	afc20014 	sw	v0,20(s8)
a08019b4:	24020044 	li	v0,68
a08019b8:	afc20010 	sw	v0,16(s8)
a08019bc:	93c20021 	lbu	v0,33(s8)
a08019c0:	00021a00 	sll	v1,v0,0x8
a08019c4:	93c20020 	lbu	v0,32(s8)
a08019c8:	00621025 	or	v0,v1,v0
a08019cc:	afc20018 	sw	v0,24(s8)
a08019d0:	8fc20030 	lw	v0,48(s8)
a08019d4:	8c430008 	lw	v1,8(v0)
a08019d8:	8fc20014 	lw	v0,20(s8)
a08019dc:	00621021 	addu	v0,v1,v0
a08019e0:	00402021 	move	a0,v0
a08019e4:	8fc50018 	lw	a1,24(s8)
a08019e8:	0c200555 	jal	a0801554 <reg_write_32>
a08019ec:	00000000 	nop
a08019f0:	93c2001f 	lbu	v0,31(s8)
a08019f4:	00021e00 	sll	v1,v0,0x18
a08019f8:	93c2001e 	lbu	v0,30(s8)
a08019fc:	00021400 	sll	v0,v0,0x10
a0801a00:	00621825 	or	v1,v1,v0
a0801a04:	93c2001d 	lbu	v0,29(s8)
a0801a08:	00021200 	sll	v0,v0,0x8
a0801a0c:	00621825 	or	v1,v1,v0
a0801a10:	93c2001c 	lbu	v0,28(s8)
a0801a14:	00621025 	or	v0,v1,v0
a0801a18:	afc20018 	sw	v0,24(s8)
a0801a1c:	8fc20030 	lw	v0,48(s8)
a0801a20:	8c430008 	lw	v1,8(v0)
a0801a24:	8fc20010 	lw	v0,16(s8)
a0801a28:	00621021 	addu	v0,v1,v0
a0801a2c:	00402021 	move	a0,v0
a0801a30:	8fc50018 	lw	a1,24(s8)
a0801a34:	0c200555 	jal	a0801554 <reg_write_32>
a0801a38:	00000000 	nop
a0801a3c:	03c0e821 	move	sp,s8
a0801a40:	8fbf002c 	lw	ra,44(sp)
a0801a44:	8fbe0028 	lw	s8,40(sp)
a0801a48:	27bd0030 	addiu	sp,sp,48
a0801a4c:	03e00008 	jr	ra
a0801a50:	00000000 	nop

a0801a54 <do_net_recv>:
a0801a54:	27bdffe8 	addiu	sp,sp,-24
a0801a58:	afbf0014 	sw	ra,20(sp)
a0801a5c:	afbe0010 	sw	s8,16(sp)
a0801a60:	03a0f021 	move	s8,sp
a0801a64:	afc40018 	sw	a0,24(s8)
a0801a68:	afc5001c 	sw	a1,28(s8)
a0801a6c:	afc60020 	sw	a2,32(s8)
a0801a70:	3c02bfe1 	lui	v0,0xbfe1
a0801a74:	3444100c 	ori	a0,v0,0x100c
a0801a78:	8fc5001c 	lw	a1,28(s8)
a0801a7c:	0c200555 	jal	a0801554 <reg_write_32>
a0801a80:	00000000 	nop
a0801a84:	3c04bfe1 	lui	a0,0xbfe1
a0801a88:	0c200538 	jal	a08014e0 <reg_read_32>
a0801a8c:	00000000 	nop
a0801a90:	34420004 	ori	v0,v0,0x4
a0801a94:	3c04bfe1 	lui	a0,0xbfe1
a0801a98:	00402821 	move	a1,v0
a0801a9c:	0c200555 	jal	a0801554 <reg_write_32>
a0801aa0:	00000000 	nop
a0801aa4:	3c02bfe1 	lui	v0,0xbfe1
a0801aa8:	34441018 	ori	a0,v0,0x1018
a0801aac:	0c200538 	jal	a08014e0 <reg_read_32>
a0801ab0:	00000000 	nop
a0801ab4:	00401821 	move	v1,v0
a0801ab8:	3c020220 	lui	v0,0x220
a0801abc:	34420002 	ori	v0,v0,0x2
a0801ac0:	00621825 	or	v1,v1,v0
a0801ac4:	3c02bfe1 	lui	v0,0xbfe1
a0801ac8:	34441018 	ori	a0,v0,0x1018
a0801acc:	00602821 	move	a1,v1
a0801ad0:	0c200555 	jal	a0801554 <reg_write_32>
a0801ad4:	00000000 	nop
a0801ad8:	3c02bfe1 	lui	v0,0xbfe1
a0801adc:	3444101c 	ori	a0,v0,0x101c
a0801ae0:	3c020001 	lui	v0,0x1
a0801ae4:	34450041 	ori	a1,v0,0x41
a0801ae8:	0c200555 	jal	a0801554 <reg_write_32>
a0801aec:	00000000 	nop
a0801af0:	00001021 	move	v0,zero
a0801af4:	03c0e821 	move	sp,s8
a0801af8:	8fbf0014 	lw	ra,20(sp)
a0801afc:	8fbe0010 	lw	s8,16(sp)
a0801b00:	27bd0018 	addiu	sp,sp,24
a0801b04:	03e00008 	jr	ra
a0801b08:	00000000 	nop

a0801b0c <do_init_mac>:
a0801b0c:	27bdffb0 	addiu	sp,sp,-80
a0801b10:	afbf004c 	sw	ra,76(sp)
a0801b14:	afbe0048 	sw	s8,72(sp)
a0801b18:	03a0f021 	move	s8,sp
a0801b1c:	3c02bfe1 	lui	v0,0xbfe1
a0801b20:	afc2001c 	sw	v0,28(s8)
a0801b24:	3c02bfe1 	lui	v0,0xbfe1
a0801b28:	34421000 	ori	v0,v0,0x1000
a0801b2c:	afc20020 	sw	v0,32(s8)
a0801b30:	24020400 	li	v0,1024
a0801b34:	afc20014 	sw	v0,20(s8)
a0801b38:	24020040 	li	v0,64
a0801b3c:	afc20018 	sw	v0,24(s8)
a0801b40:	0c200615 	jal	a0801854 <set_sram_ctr>
a0801b44:	00000000 	nop
a0801b48:	27c20014 	addiu	v0,s8,20
a0801b4c:	00402021 	move	a0,v0
a0801b50:	0c200621 	jal	a0801884 <s_reset>
a0801b54:	00000000 	nop
a0801b58:	27c20014 	addiu	v0,s8,20
a0801b5c:	00402021 	move	a0,v0
a0801b60:	0c20064e 	jal	a0801938 <disable_interrupt_all>
a0801b64:	00000000 	nop
a0801b68:	27c20014 	addiu	v0,s8,20
a0801b6c:	00402021 	move	a0,v0
a0801b70:	0c200660 	jal	a0801980 <set_mac_addr>
a0801b74:	00000000 	nop
a0801b78:	03c0e821 	move	sp,s8
a0801b7c:	8fbf004c 	lw	ra,76(sp)
a0801b80:	8fbe0048 	lw	s8,72(sp)
a0801b84:	27bd0050 	addiu	sp,sp,80
a0801b88:	03e00008 	jr	ra
a0801b8c:	00000000 	nop

a0801b90 <do_wait_recv_package>:
a0801b90:	27bdffe8 	addiu	sp,sp,-24
a0801b94:	afbf0014 	sw	ra,20(sp)
a0801b98:	afbe0010 	sw	s8,16(sp)
a0801b9c:	03a0f021 	move	s8,sp
a0801ba0:	3c02a081 	lui	v0,0xa081
a0801ba4:	2444c7b0 	addiu	a0,v0,-14416
a0801ba8:	0c200d22 	jal	a0803488 <do_block>
a0801bac:	00000000 	nop
a0801bb0:	0c2000b9 	jal	a08002e4 <do_scheduler>
a0801bb4:	00000000 	nop
a0801bb8:	03c0e821 	move	sp,s8
a0801bbc:	8fbf0014 	lw	ra,20(sp)
a0801bc0:	8fbe0010 	lw	s8,16(sp)
a0801bc4:	27bd0018 	addiu	sp,sp,24
a0801bc8:	03e00008 	jr	ra
a0801bcc:	00000000 	nop

a0801bd0 <init_page_table>:
a0801bd0:	27bdfff0 	addiu	sp,sp,-16
a0801bd4:	afbe000c 	sw	s8,12(sp)
a0801bd8:	03a0f021 	move	s8,sp
a0801bdc:	afc00000 	sw	zero,0(s8)
a0801be0:	08200702 	j	a0801c08 <init_page_table+0x38>
a0801be4:	00000000 	nop
a0801be8:	8fc30000 	lw	v1,0(s8)
a0801bec:	3c02a0ff 	lui	v0,0xa0ff
a0801bf0:	3442d000 	ori	v0,v0,0xd000
a0801bf4:	00621021 	addu	v0,v1,v0
a0801bf8:	a0400000 	sb	zero,0(v0)
a0801bfc:	8fc20000 	lw	v0,0(s8)
a0801c00:	24420001 	addiu	v0,v0,1
a0801c04:	afc20000 	sw	v0,0(s8)
a0801c08:	8fc20000 	lw	v0,0(s8)
a0801c0c:	2c421000 	sltiu	v0,v0,4096
a0801c10:	1440fff5 	bnez	v0,a0801be8 <init_page_table+0x18>
a0801c14:	00000000 	nop
a0801c18:	afc00000 	sw	zero,0(s8)
a0801c1c:	08200713 	j	a0801c4c <init_page_table+0x7c>
a0801c20:	00000000 	nop
a0801c24:	8fc30000 	lw	v1,0(s8)
a0801c28:	3c02a0ff 	lui	v0,0xa0ff
a0801c2c:	3442e000 	ori	v0,v0,0xe000
a0801c30:	00621021 	addu	v0,v1,v0
a0801c34:	00401821 	move	v1,v0
a0801c38:	2402ffff 	li	v0,-1
a0801c3c:	a0620000 	sb	v0,0(v1)
a0801c40:	8fc20000 	lw	v0,0(s8)
a0801c44:	24420001 	addiu	v0,v0,1
a0801c48:	afc20000 	sw	v0,0(s8)
a0801c4c:	8fc20000 	lw	v0,0(s8)
a0801c50:	2c420100 	sltiu	v0,v0,256
a0801c54:	1440fff3 	bnez	v0,a0801c24 <init_page_table+0x54>
a0801c58:	00000000 	nop
a0801c5c:	24020100 	li	v0,256
a0801c60:	afc20000 	sw	v0,0(s8)
a0801c64:	08200723 	j	a0801c8c <init_page_table+0xbc>
a0801c68:	00000000 	nop
a0801c6c:	8fc30000 	lw	v1,0(s8)
a0801c70:	3c02a0ff 	lui	v0,0xa0ff
a0801c74:	3442e000 	ori	v0,v0,0xe000
a0801c78:	00621021 	addu	v0,v1,v0
a0801c7c:	a0400000 	sb	zero,0(v0)
a0801c80:	8fc20000 	lw	v0,0(s8)
a0801c84:	24420001 	addiu	v0,v0,1
a0801c88:	afc20000 	sw	v0,0(s8)
a0801c8c:	8fc20000 	lw	v0,0(s8)
a0801c90:	2c420200 	sltiu	v0,v0,512
a0801c94:	1440fff5 	bnez	v0,a0801c6c <init_page_table+0x9c>
a0801c98:	00000000 	nop
a0801c9c:	03c0e821 	move	sp,s8
a0801ca0:	8fbe000c 	lw	s8,12(sp)
a0801ca4:	27bd0010 	addiu	sp,sp,16
a0801ca8:	03e00008 	jr	ra
a0801cac:	00000000 	nop

a0801cb0 <init_memory>:
a0801cb0:	27bdffe8 	addiu	sp,sp,-24
a0801cb4:	afbf0014 	sw	ra,20(sp)
a0801cb8:	afbe0010 	sw	s8,16(sp)
a0801cbc:	03a0f021 	move	s8,sp
a0801cc0:	0c2006f4 	jal	a0801bd0 <init_page_table>
a0801cc4:	00000000 	nop
a0801cc8:	0c20026d 	jal	a08009b4 <init_TLB>
a0801ccc:	00000000 	nop
a0801cd0:	03c0e821 	move	sp,s8
a0801cd4:	8fbf0014 	lw	ra,20(sp)
a0801cd8:	8fbe0010 	lw	s8,16(sp)
a0801cdc:	27bd0018 	addiu	sp,sp,24
a0801ce0:	03e00008 	jr	ra
a0801ce4:	00000000 	nop

a0801ce8 <init_pcb>:
a0801ce8:	27bdffe0 	addiu	sp,sp,-32
a0801cec:	afbf001c 	sw	ra,28(sp)
a0801cf0:	afbe0018 	sw	s8,24(sp)
a0801cf4:	03a0f021 	move	s8,sp
a0801cf8:	3c02a081 	lui	v0,0xa081
a0801cfc:	2442cbc0 	addiu	v0,v0,-13376
a0801d00:	ac400008 	sw	zero,8(v0)
a0801d04:	3c02a081 	lui	v0,0xa081
a0801d08:	2442cbc0 	addiu	v0,v0,-13376
a0801d0c:	ac40000c 	sw	zero,12(v0)
a0801d10:	3c02a081 	lui	v0,0xa081
a0801d14:	ac40cbc0 	sw	zero,-13376(v0)
a0801d18:	3c02a081 	lui	v0,0xa081
a0801d1c:	2442cbc0 	addiu	v0,v0,-13376
a0801d20:	ac400004 	sw	zero,4(v0)
a0801d24:	3c02a081 	lui	v0,0xa081
a0801d28:	2444cd50 	addiu	a0,v0,-12976
a0801d2c:	0c2011c4 	jal	a0804710 <queue_init>
a0801d30:	00000000 	nop
a0801d34:	3c02a081 	lui	v0,0xa081
a0801d38:	2444cd60 	addiu	a0,v0,-12960
a0801d3c:	0c2011c4 	jal	a0804710 <queue_init>
a0801d40:	00000000 	nop
a0801d44:	afc00014 	sw	zero,20(s8)
a0801d48:	08200852 	j	a0802148 <init_pcb+0x460>
a0801d4c:	00000000 	nop
a0801d50:	afc00010 	sw	zero,16(s8)
a0801d54:	08200771 	j	a0801dc4 <init_pcb+0xdc>
a0801d58:	00000000 	nop
a0801d5c:	8fc20014 	lw	v0,20(s8)
a0801d60:	8fc40010 	lw	a0,16(s8)
a0801d64:	3c05a081 	lui	a1,0xa081
a0801d68:	00021140 	sll	v0,v0,0x5
a0801d6c:	00021880 	sll	v1,v0,0x2
a0801d70:	00431021 	addu	v0,v0,v1
a0801d74:	00441021 	addu	v0,v0,a0
a0801d78:	00021880 	sll	v1,v0,0x2
a0801d7c:	24a2cd88 	addiu	v0,a1,-12920
a0801d80:	00621021 	addu	v0,v1,v0
a0801d84:	ac400000 	sw	zero,0(v0)
a0801d88:	8fc20014 	lw	v0,20(s8)
a0801d8c:	8fc40010 	lw	a0,16(s8)
a0801d90:	3c05a081 	lui	a1,0xa081
a0801d94:	00021140 	sll	v0,v0,0x5
a0801d98:	00021880 	sll	v1,v0,0x2
a0801d9c:	00431021 	addu	v0,v0,v1
a0801da0:	00441021 	addu	v0,v0,a0
a0801da4:	24420026 	addiu	v0,v0,38
a0801da8:	24a3cd88 	addiu	v1,a1,-12920
a0801dac:	00021080 	sll	v0,v0,0x2
a0801db0:	00621021 	addu	v0,v1,v0
a0801db4:	ac400004 	sw	zero,4(v0)
a0801db8:	8fc20010 	lw	v0,16(s8)
a0801dbc:	24420001 	addiu	v0,v0,1
a0801dc0:	afc20010 	sw	v0,16(s8)
a0801dc4:	8fc20010 	lw	v0,16(s8)
a0801dc8:	28420020 	slti	v0,v0,32
a0801dcc:	1440ffe3 	bnez	v0,a0801d5c <init_pcb+0x74>
a0801dd0:	00000000 	nop
a0801dd4:	8fc50014 	lw	a1,20(s8)
a0801dd8:	8fc20014 	lw	v0,20(s8)
a0801ddc:	00021380 	sll	v0,v0,0xe
a0801de0:	00021823 	negu	v1,v0
a0801de4:	3c02a0f0 	lui	v0,0xa0f0
a0801de8:	00623021 	addu	a2,v1,v0
a0801dec:	3c04a081 	lui	a0,0xa081
a0801df0:	00a01021 	move	v0,a1
a0801df4:	000211c0 	sll	v0,v0,0x7
a0801df8:	00021880 	sll	v1,v0,0x2
a0801dfc:	00431021 	addu	v0,v0,v1
a0801e00:	2483cd88 	addiu	v1,a0,-12920
a0801e04:	00431021 	addu	v0,v0,v1
a0801e08:	ac460138 	sw	a2,312(v0)
a0801e0c:	8fc60014 	lw	a2,20(s8)
a0801e10:	8fc20014 	lw	v0,20(s8)
a0801e14:	3c04a081 	lui	a0,0xa081
a0801e18:	000211c0 	sll	v0,v0,0x7
a0801e1c:	00021880 	sll	v1,v0,0x2
a0801e20:	00431021 	addu	v0,v0,v1
a0801e24:	2483cd88 	addiu	v1,a0,-12920
a0801e28:	00431021 	addu	v0,v0,v1
a0801e2c:	8c450138 	lw	a1,312(v0)
a0801e30:	3c04a081 	lui	a0,0xa081
a0801e34:	00c01021 	move	v0,a2
a0801e38:	000211c0 	sll	v0,v0,0x7
a0801e3c:	00021880 	sll	v1,v0,0x2
a0801e40:	00431021 	addu	v0,v0,v1
a0801e44:	2483cd88 	addiu	v1,a0,-12920
a0801e48:	00431021 	addu	v0,v0,v1
a0801e4c:	ac450074 	sw	a1,116(v0)
a0801e50:	8fc30014 	lw	v1,20(s8)
a0801e54:	3c02a080 	lui	v0,0xa080
a0801e58:	24420568 	addiu	v0,v0,1384
a0801e5c:	00402821 	move	a1,v0
a0801e60:	3c04a081 	lui	a0,0xa081
a0801e64:	00601021 	move	v0,v1
a0801e68:	000211c0 	sll	v0,v0,0x7
a0801e6c:	00021880 	sll	v1,v0,0x2
a0801e70:	00431021 	addu	v0,v0,v1
a0801e74:	2483cd88 	addiu	v1,a0,-12920
a0801e78:	00431021 	addu	v0,v0,v1
a0801e7c:	ac45007c 	sw	a1,124(v0)
a0801e80:	8fc30014 	lw	v1,20(s8)
a0801e84:	3c04a081 	lui	a0,0xa081
a0801e88:	00601021 	move	v0,v1
a0801e8c:	00021080 	sll	v0,v0,0x2
a0801e90:	00431021 	addu	v0,v0,v1
a0801e94:	24420001 	addiu	v0,v0,1
a0801e98:	000219c0 	sll	v1,v0,0x7
a0801e9c:	2482cd88 	addiu	v0,a0,-12920
a0801ea0:	00621821 	addu	v1,v1,v0
a0801ea4:	3c021000 	lui	v0,0x1000
a0801ea8:	34428002 	ori	v0,v0,0x8002
a0801eac:	ac620000 	sw	v0,0(v1)
a0801eb0:	8fc30014 	lw	v1,20(s8)
a0801eb4:	3c04a081 	lui	a0,0xa081
a0801eb8:	00601021 	move	v0,v1
a0801ebc:	00021080 	sll	v0,v0,0x2
a0801ec0:	00431021 	addu	v0,v0,v1
a0801ec4:	24420001 	addiu	v0,v0,1
a0801ec8:	2483cd88 	addiu	v1,a0,-12920
a0801ecc:	000211c0 	sll	v0,v0,0x7
a0801ed0:	00621021 	addu	v0,v1,v0
a0801ed4:	ac400004 	sw	zero,4(v0)
a0801ed8:	8fc20014 	lw	v0,20(s8)
a0801edc:	3c04a081 	lui	a0,0xa081
a0801ee0:	000211c0 	sll	v0,v0,0x7
a0801ee4:	00021880 	sll	v1,v0,0x2
a0801ee8:	00431021 	addu	v0,v0,v1
a0801eec:	2483cd88 	addiu	v1,a0,-12920
a0801ef0:	00431021 	addu	v0,v0,v1
a0801ef4:	ac400088 	sw	zero,136(v0)
a0801ef8:	8fc30014 	lw	v1,20(s8)
a0801efc:	3c02a081 	lui	v0,0xa081
a0801f00:	2444cd88 	addiu	a0,v0,-12920
a0801f04:	00601021 	move	v0,v1
a0801f08:	000219c0 	sll	v1,v0,0x7
a0801f0c:	00031080 	sll	v0,v1,0x2
a0801f10:	00621021 	addu	v0,v1,v0
a0801f14:	00821021 	addu	v0,a0,v0
a0801f18:	ac40008c 	sw	zero,140(v0)
a0801f1c:	8fc20014 	lw	v0,20(s8)
a0801f20:	3c04a081 	lui	a0,0xa081
a0801f24:	000211c0 	sll	v0,v0,0x7
a0801f28:	00021880 	sll	v1,v0,0x2
a0801f2c:	00431021 	addu	v0,v0,v1
a0801f30:	2483cd88 	addiu	v1,a0,-12920
a0801f34:	00431021 	addu	v0,v0,v1
a0801f38:	ac400090 	sw	zero,144(v0)
a0801f3c:	8fc30014 	lw	v1,20(s8)
a0801f40:	3c02a081 	lui	v0,0xa081
a0801f44:	2444cd88 	addiu	a0,v0,-12920
a0801f48:	00601021 	move	v0,v1
a0801f4c:	000219c0 	sll	v1,v0,0x7
a0801f50:	00031080 	sll	v0,v1,0x2
a0801f54:	00621021 	addu	v0,v1,v0
a0801f58:	00821021 	addu	v0,a0,v0
a0801f5c:	ac400094 	sw	zero,148(v0)
a0801f60:	8fc60014 	lw	a2,20(s8)
a0801f64:	8fc20014 	lw	v0,20(s8)
a0801f68:	00021380 	sll	v0,v0,0xe
a0801f6c:	00021023 	negu	v0,v0
a0801f70:	00401821 	move	v1,v0
a0801f74:	3c02a0ef 	lui	v0,0xa0ef
a0801f78:	3442e000 	ori	v0,v0,0xe000
a0801f7c:	00622821 	addu	a1,v1,v0
a0801f80:	3c02a081 	lui	v0,0xa081
a0801f84:	2444cd88 	addiu	a0,v0,-12920
a0801f88:	00c01021 	move	v0,a2
a0801f8c:	000219c0 	sll	v1,v0,0x7
a0801f90:	00031080 	sll	v0,v1,0x2
a0801f94:	00621021 	addu	v0,v1,v0
a0801f98:	00821021 	addu	v0,a0,v0
a0801f9c:	ac45013c 	sw	a1,316(v0)
a0801fa0:	8fc60014 	lw	a2,20(s8)
a0801fa4:	8fc30014 	lw	v1,20(s8)
a0801fa8:	3c02a081 	lui	v0,0xa081
a0801fac:	2444cd88 	addiu	a0,v0,-12920
a0801fb0:	00601021 	move	v0,v1
a0801fb4:	000219c0 	sll	v1,v0,0x7
a0801fb8:	00031080 	sll	v0,v1,0x2
a0801fbc:	00621021 	addu	v0,v1,v0
a0801fc0:	00821021 	addu	v0,a0,v0
a0801fc4:	8c45013c 	lw	a1,316(v0)
a0801fc8:	3c02a081 	lui	v0,0xa081
a0801fcc:	2444cd88 	addiu	a0,v0,-12920
a0801fd0:	00c01021 	move	v0,a2
a0801fd4:	000219c0 	sll	v1,v0,0x7
a0801fd8:	00031080 	sll	v0,v1,0x2
a0801fdc:	00621021 	addu	v0,v1,v0
a0801fe0:	00821021 	addu	v0,a0,v0
a0801fe4:	ac450110 	sw	a1,272(v0)
a0801fe8:	8fc30014 	lw	v1,20(s8)
a0801fec:	3c02a081 	lui	v0,0xa081
a0801ff0:	2444cd88 	addiu	a0,v0,-12920
a0801ff4:	00601021 	move	v0,v1
a0801ff8:	000219c0 	sll	v1,v0,0x7
a0801ffc:	00031080 	sll	v0,v1,0x2
a0802000:	00621021 	addu	v0,v1,v0
a0802004:	00821021 	addu	v0,a0,v0
a0802008:	ac400118 	sw	zero,280(v0)
a080200c:	8fc30014 	lw	v1,20(s8)
a0802010:	3c02a081 	lui	v0,0xa081
a0802014:	2444cd88 	addiu	a0,v0,-12920
a0802018:	00601021 	move	v0,v1
a080201c:	000219c0 	sll	v1,v0,0x7
a0802020:	00031080 	sll	v0,v1,0x2
a0802024:	00621021 	addu	v0,v1,v0
a0802028:	00821021 	addu	v0,a0,v0
a080202c:	3c031000 	lui	v1,0x1000
a0802030:	34638003 	ori	v1,v1,0x8003
a0802034:	ac43011c 	sw	v1,284(v0)
a0802038:	8fc30014 	lw	v1,20(s8)
a080203c:	3c02a081 	lui	v0,0xa081
a0802040:	2444cd88 	addiu	a0,v0,-12920
a0802044:	00601021 	move	v0,v1
a0802048:	000219c0 	sll	v1,v0,0x7
a080204c:	00031080 	sll	v0,v1,0x2
a0802050:	00621021 	addu	v0,v1,v0
a0802054:	00821021 	addu	v0,a0,v0
a0802058:	ac400120 	sw	zero,288(v0)
a080205c:	8fc30014 	lw	v1,20(s8)
a0802060:	3c02a081 	lui	v0,0xa081
a0802064:	2444cd88 	addiu	a0,v0,-12920
a0802068:	00601021 	move	v0,v1
a080206c:	000219c0 	sll	v1,v0,0x7
a0802070:	00031080 	sll	v0,v1,0x2
a0802074:	00621021 	addu	v0,v1,v0
a0802078:	00821021 	addu	v0,a0,v0
a080207c:	ac400124 	sw	zero,292(v0)
a0802080:	8fc30014 	lw	v1,20(s8)
a0802084:	3c02a081 	lui	v0,0xa081
a0802088:	2444cd88 	addiu	a0,v0,-12920
a080208c:	00601021 	move	v0,v1
a0802090:	000219c0 	sll	v1,v0,0x7
a0802094:	00031080 	sll	v0,v1,0x2
a0802098:	00621021 	addu	v0,v1,v0
a080209c:	00821021 	addu	v0,a0,v0
a08020a0:	ac400128 	sw	zero,296(v0)
a08020a4:	8fc30014 	lw	v1,20(s8)
a08020a8:	3c02a081 	lui	v0,0xa081
a08020ac:	2444cd88 	addiu	a0,v0,-12920
a08020b0:	00601021 	move	v0,v1
a08020b4:	000219c0 	sll	v1,v0,0x7
a08020b8:	00031080 	sll	v0,v1,0x2
a08020bc:	00621021 	addu	v0,v1,v0
a08020c0:	00821021 	addu	v0,a0,v0
a08020c4:	ac40012c 	sw	zero,300(v0)
a08020c8:	8fc20014 	lw	v0,20(s8)
a08020cc:	3c04a081 	lui	a0,0xa081
a08020d0:	000211c0 	sll	v0,v0,0x7
a08020d4:	00021880 	sll	v1,v0,0x2
a08020d8:	00431021 	addu	v0,v0,v1
a08020dc:	2483cd88 	addiu	v1,a0,-12920
a08020e0:	00431021 	addu	v0,v0,v1
a08020e4:	ac400158 	sw	zero,344(v0)
a08020e8:	8fc20014 	lw	v0,20(s8)
a08020ec:	3c04a081 	lui	a0,0xa081
a08020f0:	000211c0 	sll	v0,v0,0x7
a08020f4:	00021880 	sll	v1,v0,0x2
a08020f8:	00431021 	addu	v0,v0,v1
a08020fc:	2483cd88 	addiu	v1,a0,-12920
a0802100:	00431821 	addu	v1,v0,v1
a0802104:	24020003 	li	v0,3
a0802108:	ac620150 	sw	v0,336(v1)
a080210c:	8fc20014 	lw	v0,20(s8)
a0802110:	000211c0 	sll	v0,v0,0x7
a0802114:	00021880 	sll	v1,v0,0x2
a0802118:	00431021 	addu	v0,v0,v1
a080211c:	24430170 	addiu	v1,v0,368
a0802120:	3c02a081 	lui	v0,0xa081
a0802124:	2442cd88 	addiu	v0,v0,-12920
a0802128:	00621021 	addu	v0,v1,v0
a080212c:	24420004 	addiu	v0,v0,4
a0802130:	00402021 	move	a0,v0
a0802134:	0c2011c4 	jal	a0804710 <queue_init>
a0802138:	00000000 	nop
a080213c:	8fc20014 	lw	v0,20(s8)
a0802140:	24420001 	addiu	v0,v0,1
a0802144:	afc20014 	sw	v0,20(s8)
a0802148:	8fc20014 	lw	v0,20(s8)
a080214c:	28420010 	slti	v0,v0,16
a0802150:	1440feff 	bnez	v0,a0801d50 <init_pcb+0x68>
a0802154:	00000000 	nop
a0802158:	3c02a081 	lui	v0,0xa081
a080215c:	2443cd88 	addiu	v1,v0,-12920
a0802160:	3c02a081 	lui	v0,0xa081
a0802164:	2442cd88 	addiu	v0,v0,-12920
a0802168:	ac6203c4 	sw	v0,964(v1)
a080216c:	3c02a081 	lui	v0,0xa081
a0802170:	2442cd88 	addiu	v0,v0,-12920
a0802174:	ac4003c0 	sw	zero,960(v0)
a0802178:	3c03a081 	lui	v1,0xa081
a080217c:	3c02a081 	lui	v0,0xa081
a0802180:	2442d008 	addiu	v0,v0,-12280
a0802184:	ac62b498 	sw	v0,-19304(v1)
a0802188:	3c02a081 	lui	v0,0xa081
a080218c:	2443cd88 	addiu	v1,v0,-12920
a0802190:	3c02a0d6 	lui	v0,0xa0d6
a0802194:	3442fffc 	ori	v0,v0,0xfffc
a0802198:	ac620138 	sw	v0,312(v1)
a080219c:	3c02a081 	lui	v0,0xa081
a08021a0:	2442cd88 	addiu	v0,v0,-12920
a08021a4:	8c430138 	lw	v1,312(v0)
a08021a8:	3c02a081 	lui	v0,0xa081
a08021ac:	2442cd88 	addiu	v0,v0,-12920
a08021b0:	ac430074 	sw	v1,116(v0)
a08021b4:	3c02a081 	lui	v0,0xa081
a08021b8:	2443cd88 	addiu	v1,v0,-12920
a08021bc:	3c02a0dd 	lui	v0,0xa0dd
a08021c0:	3442fffc 	ori	v0,v0,0xfffc
a08021c4:	ac62013c 	sw	v0,316(v1)
a08021c8:	3c02a081 	lui	v0,0xa081
a08021cc:	2442cd88 	addiu	v0,v0,-12920
a08021d0:	8c43013c 	lw	v1,316(v0)
a08021d4:	3c02a081 	lui	v0,0xa081
a08021d8:	2442cd88 	addiu	v0,v0,-12920
a08021dc:	ac430110 	sw	v1,272(v0)
a08021e0:	3c02a081 	lui	v0,0xa081
a08021e4:	24439cc0 	addiu	v1,v0,-25408
a08021e8:	3c02a081 	lui	v0,0xa081
a08021ec:	2442cd88 	addiu	v0,v0,-12920
a08021f0:	ac430130 	sw	v1,304(v0)
a08021f4:	3c02a081 	lui	v0,0xa081
a08021f8:	2443cd88 	addiu	v1,v0,-12920
a08021fc:	24020002 	li	v0,2
a0802200:	ac62014c 	sw	v0,332(v1)
a0802204:	3c02a081 	lui	v0,0xa081
a0802208:	2443cd88 	addiu	v1,v0,-12920
a080220c:	24020002 	li	v0,2
a0802210:	ac620150 	sw	v0,336(v1)
a0802214:	3c02a081 	lui	v0,0xa081
a0802218:	2443cd88 	addiu	v1,v0,-12920
a080221c:	24020007 	li	v0,7
a0802220:	ac620154 	sw	v0,340(v1)
a0802224:	3c02a081 	lui	v0,0xa081
a0802228:	8c42c780 	lw	v0,-14464(v0)
a080222c:	24430001 	addiu	v1,v0,1
a0802230:	3c02a081 	lui	v0,0xa081
a0802234:	ac43c780 	sw	v1,-14464(v0)
a0802238:	3c02a081 	lui	v0,0xa081
a080223c:	8c43c780 	lw	v1,-14464(v0)
a0802240:	3c02a081 	lui	v0,0xa081
a0802244:	2442cd88 	addiu	v0,v0,-12920
a0802248:	ac430148 	sw	v1,328(v0)
a080224c:	3c02a081 	lui	v0,0xa081
a0802250:	2442cd88 	addiu	v0,v0,-12920
a0802254:	ac400224 	sw	zero,548(v0)
a0802258:	3c02a081 	lui	v0,0xa081
a080225c:	2442cd88 	addiu	v0,v0,-12920
a0802260:	ac400228 	sw	zero,552(v0)
a0802264:	afc00014 	sw	zero,20(s8)
a0802268:	082008b5 	j	a08022d4 <init_pcb+0x5ec>
a080226c:	00000000 	nop
a0802270:	8fc20014 	lw	v0,20(s8)
a0802274:	3c03a081 	lui	v1,0xa081
a0802278:	24420060 	addiu	v0,v0,96
a080227c:	2463cd88 	addiu	v1,v1,-12920
a0802280:	00021080 	sll	v0,v0,0x2
a0802284:	00621021 	addu	v0,v1,v0
a0802288:	ac400004 	sw	zero,4(v0)
a080228c:	8fc20014 	lw	v0,20(s8)
a0802290:	3c03a081 	lui	v1,0xa081
a0802294:	24420074 	addiu	v0,v0,116
a0802298:	2463cd88 	addiu	v1,v1,-12920
a080229c:	00021080 	sll	v0,v0,0x2
a08022a0:	00621021 	addu	v0,v1,v0
a08022a4:	ac400004 	sw	zero,4(v0)
a08022a8:	8fc20014 	lw	v0,20(s8)
a08022ac:	3c03a081 	lui	v1,0xa081
a08022b0:	2442008a 	addiu	v0,v0,138
a08022b4:	2463cd88 	addiu	v1,v1,-12920
a08022b8:	00021080 	sll	v0,v0,0x2
a08022bc:	00621021 	addu	v0,v1,v0
a08022c0:	2403ffff 	li	v1,-1
a08022c4:	ac430004 	sw	v1,4(v0)
a08022c8:	8fc20014 	lw	v0,20(s8)
a08022cc:	24420001 	addiu	v0,v0,1
a08022d0:	afc20014 	sw	v0,20(s8)
a08022d4:	8fc20014 	lw	v0,20(s8)
a08022d8:	28420014 	slti	v0,v0,20
a08022dc:	1440ffe4 	bnez	v0,a0802270 <init_pcb+0x588>
a08022e0:	00000000 	nop
a08022e4:	24040040 	li	a0,64
a08022e8:	0c200b43 	jal	a0802d0c <alloc_top_pte>
a08022ec:	00000000 	nop
a08022f0:	3c02a081 	lui	v0,0xa081
a08022f4:	2444cd50 	addiu	a0,v0,-12976
a08022f8:	3c02a081 	lui	v0,0xa081
a08022fc:	2445cd88 	addiu	a1,v0,-12920
a0802300:	0c2011eb 	jal	a08047ac <queue_push>
a0802304:	00000000 	nop
a0802308:	03c0e821 	move	sp,s8
a080230c:	8fbf001c 	lw	ra,28(sp)
a0802310:	8fbe0018 	lw	s8,24(sp)
a0802314:	27bd0020 	addiu	sp,sp,32
a0802318:	03e00008 	jr	ra
a080231c:	00000000 	nop

a0802320 <init_exception_handler>:
a0802320:	27bdfff0 	addiu	sp,sp,-16
a0802324:	afbe000c 	sw	s8,12(sp)
a0802328:	03a0f021 	move	s8,sp
a080232c:	afc00000 	sw	zero,0(s8)
a0802330:	082008d9 	j	a0802364 <init_exception_handler+0x44>
a0802334:	00000000 	nop
a0802338:	8fc30000 	lw	v1,0(s8)
a080233c:	3c02a080 	lui	v0,0xa080
a0802340:	24440720 	addiu	a0,v0,1824
a0802344:	3c02a081 	lui	v0,0xa081
a0802348:	00031880 	sll	v1,v1,0x2
a080234c:	2442ccd0 	addiu	v0,v0,-13104
a0802350:	00621021 	addu	v0,v1,v0
a0802354:	ac440000 	sw	a0,0(v0)
a0802358:	8fc20000 	lw	v0,0(s8)
a080235c:	24420001 	addiu	v0,v0,1
a0802360:	afc20000 	sw	v0,0(s8)
a0802364:	8fc20000 	lw	v0,0(s8)
a0802368:	28420020 	slti	v0,v0,32
a080236c:	1440fff2 	bnez	v0,a0802338 <init_exception_handler+0x18>
a0802370:	00000000 	nop
a0802374:	3c02a080 	lui	v0,0xa080
a0802378:	24430558 	addiu	v1,v0,1368
a080237c:	3c02a081 	lui	v0,0xa081
a0802380:	ac43ccd0 	sw	v1,-13104(v0)
a0802384:	3c02a080 	lui	v0,0xa080
a0802388:	244308e0 	addiu	v1,v0,2272
a080238c:	3c02a081 	lui	v0,0xa081
a0802390:	2442ccd0 	addiu	v0,v0,-13104
a0802394:	ac430004 	sw	v1,4(v0)
a0802398:	3c02a080 	lui	v0,0xa080
a080239c:	24430738 	addiu	v1,v0,1848
a08023a0:	3c02a081 	lui	v0,0xa081
a08023a4:	2442ccd0 	addiu	v0,v0,-13104
a08023a8:	ac430008 	sw	v1,8(v0)
a08023ac:	3c02a080 	lui	v0,0xa080
a08023b0:	2443080c 	addiu	v1,v0,2060
a08023b4:	3c02a081 	lui	v0,0xa081
a08023b8:	2442ccd0 	addiu	v0,v0,-13104
a08023bc:	ac43000c 	sw	v1,12(v0)
a08023c0:	3c02a080 	lui	v0,0xa080
a08023c4:	24430638 	addiu	v1,v0,1592
a08023c8:	3c02a081 	lui	v0,0xa081
a08023cc:	2442ccd0 	addiu	v0,v0,-13104
a08023d0:	ac430020 	sw	v1,32(v0)
a08023d4:	03c0e821 	move	sp,s8
a08023d8:	8fbe000c 	lw	s8,12(sp)
a08023dc:	27bd0010 	addiu	sp,sp,16
a08023e0:	03e00008 	jr	ra
a08023e4:	00000000 	nop

a08023e8 <init_exception>:
a08023e8:	27bdffe0 	addiu	sp,sp,-32
a08023ec:	afbf001c 	sw	ra,28(sp)
a08023f0:	afbe0018 	sw	s8,24(sp)
a08023f4:	03a0f021 	move	s8,sp
a08023f8:	0c2008c8 	jal	a0802320 <init_exception_handler>
a08023fc:	00000000 	nop
a0802400:	3c02a080 	lui	v0,0xa080
a0802404:	2443046c 	addiu	v1,v0,1132
a0802408:	24020001 	li	v0,1
a080240c:	00431823 	subu	v1,v0,v1
a0802410:	3c02a080 	lui	v0,0xa080
a0802414:	24420558 	addiu	v0,v0,1368
a0802418:	00621021 	addu	v0,v1,v0
a080241c:	afc20014 	sw	v0,20(s8)
a0802420:	3c028000 	lui	v0,0x8000
a0802424:	34420180 	ori	v0,v0,0x180
a0802428:	afc20010 	sw	v0,16(s8)
a080242c:	8fc40010 	lw	a0,16(s8)
a0802430:	3c02a080 	lui	v0,0xa080
a0802434:	2445046c 	addiu	a1,v0,1132
a0802438:	8fc60014 	lw	a2,20(s8)
a080243c:	0c201642 	jal	a0805908 <memcpy>
a0802440:	00000000 	nop
a0802444:	3c02a080 	lui	v0,0xa080
a0802448:	2443045c 	addiu	v1,v0,1116
a080244c:	24020001 	li	v0,1
a0802450:	00431823 	subu	v1,v0,v1
a0802454:	3c02a080 	lui	v0,0xa080
a0802458:	2442046c 	addiu	v0,v0,1132
a080245c:	00621021 	addu	v0,v1,v0
a0802460:	afc20014 	sw	v0,20(s8)
a0802464:	3c028000 	lui	v0,0x8000
a0802468:	afc20010 	sw	v0,16(s8)
a080246c:	8fc40010 	lw	a0,16(s8)
a0802470:	3c02a080 	lui	v0,0xa080
a0802474:	2445045c 	addiu	a1,v0,1116
a0802478:	8fc60014 	lw	a2,20(s8)
a080247c:	0c201642 	jal	a0805908 <memcpy>
a0802480:	00000000 	nop
a0802484:	03c0e821 	move	sp,s8
a0802488:	8fbf001c 	lw	ra,28(sp)
a080248c:	8fbe0018 	lw	s8,24(sp)
a0802490:	27bd0020 	addiu	sp,sp,32
a0802494:	03e00008 	jr	ra
a0802498:	00000000 	nop

a080249c <init_syscall>:
a080249c:	27bdfff8 	addiu	sp,sp,-8
a08024a0:	afbe0004 	sw	s8,4(sp)
a08024a4:	03a0f021 	move	s8,sp
a08024a8:	3c02a080 	lui	v0,0xa080
a08024ac:	244333dc 	addiu	v1,v0,13276
a08024b0:	3c02a081 	lui	v0,0xa081
a08024b4:	2442cbd0 	addiu	v0,v0,-13360
a08024b8:	ac430008 	sw	v1,8(v0)
a08024bc:	3c02a080 	lui	v0,0xa080
a08024c0:	244312c0 	addiu	v1,v0,4800
a08024c4:	3c02a081 	lui	v0,0xa081
a08024c8:	2442cbd0 	addiu	v0,v0,-13360
a08024cc:	ac430050 	sw	v1,80(v0)
a08024d0:	3c02a080 	lui	v0,0xa080
a08024d4:	24431280 	addiu	v1,v0,4736
a08024d8:	3c02a081 	lui	v0,0xa081
a08024dc:	2442cbd0 	addiu	v0,v0,-13360
a08024e0:	ac430058 	sw	v1,88(v0)
a08024e4:	3c02a080 	lui	v0,0xa080
a08024e8:	24431348 	addiu	v1,v0,4936
a08024ec:	3c02a081 	lui	v0,0xa081
a08024f0:	2442cbd0 	addiu	v0,v0,-13360
a08024f4:	ac43005c 	sw	v1,92(v0)
a08024f8:	3c02a080 	lui	v0,0xa080
a08024fc:	2443293c 	addiu	v1,v0,10556
a0802500:	3c02a081 	lui	v0,0xa081
a0802504:	2442cbd0 	addiu	v0,v0,-13360
a0802508:	ac430068 	sw	v1,104(v0)
a080250c:	3c02a080 	lui	v0,0xa080
a0802510:	24432984 	addiu	v1,v0,10628
a0802514:	3c02a081 	lui	v0,0xa081
a0802518:	2442cbd0 	addiu	v0,v0,-13360
a080251c:	ac43006c 	sw	v1,108(v0)
a0802520:	3c02a080 	lui	v0,0xa080
a0802524:	24432a88 	addiu	v1,v0,10888
a0802528:	3c02a081 	lui	v0,0xa081
a080252c:	2442cbd0 	addiu	v0,v0,-13360
a0802530:	ac430070 	sw	v1,112(v0)
a0802534:	3c02a080 	lui	v0,0xa080
a0802538:	24433e98 	addiu	v1,v0,16024
a080253c:	3c02a081 	lui	v0,0xa081
a0802540:	2442cbd0 	addiu	v0,v0,-13360
a0802544:	ac4300c0 	sw	v1,192(v0)
a0802548:	3c02a080 	lui	v0,0xa080
a080254c:	24433fd0 	addiu	v1,v0,16336
a0802550:	3c02a081 	lui	v0,0xa081
a0802554:	2442cbd0 	addiu	v0,v0,-13360
a0802558:	ac4300c4 	sw	v1,196(v0)
a080255c:	3c02a080 	lui	v0,0xa080
a0802560:	24434318 	addiu	v1,v0,17176
a0802564:	3c02a081 	lui	v0,0xa081
a0802568:	2442cbd0 	addiu	v0,v0,-13360
a080256c:	ac4300b8 	sw	v1,184(v0)
a0802570:	3c02a080 	lui	v0,0xa080
a0802574:	24434604 	addiu	v1,v0,17924
a0802578:	3c02a081 	lui	v0,0xa081
a080257c:	2442cbd0 	addiu	v0,v0,-13360
a0802580:	ac4300bc 	sw	v1,188(v0)
a0802584:	3c02a081 	lui	v0,0xa081
a0802588:	2443cbd0 	addiu	v1,v0,-13360
a080258c:	3c02a080 	lui	v0,0xa080
a0802590:	244246d8 	addiu	v0,v0,18136
a0802594:	ac6200c8 	sw	v0,200(v1)
a0802598:	3c02a080 	lui	v0,0xa080
a080259c:	244335f4 	addiu	v1,v0,13812
a08025a0:	3c02a081 	lui	v0,0xa081
a08025a4:	2442cbd0 	addiu	v0,v0,-13360
a08025a8:	ac430064 	sw	v1,100(v0)
a08025ac:	3c02a080 	lui	v0,0xa080
a08025b0:	2443118c 	addiu	v1,v0,4492
a08025b4:	3c02a081 	lui	v0,0xa081
a08025b8:	2442cbd0 	addiu	v0,v0,-13360
a08025bc:	ac430060 	sw	v1,96(v0)
a08025c0:	3c02a080 	lui	v0,0xa080
a08025c4:	244373c8 	addiu	v1,v0,29640
a08025c8:	3c02a081 	lui	v0,0xa081
a08025cc:	2442cbd0 	addiu	v0,v0,-13360
a08025d0:	ac4300cc 	sw	v1,204(v0)
a08025d4:	3c02a080 	lui	v0,0xa080
a08025d8:	24437658 	addiu	v1,v0,30296
a08025dc:	3c02a081 	lui	v0,0xa081
a08025e0:	2442cbd0 	addiu	v0,v0,-13360
a08025e4:	ac4300d0 	sw	v1,208(v0)
a08025e8:	3c02a080 	lui	v0,0xa080
a08025ec:	24437a6c 	addiu	v1,v0,31340
a08025f0:	3c02a081 	lui	v0,0xa081
a08025f4:	2442cbd0 	addiu	v0,v0,-13360
a08025f8:	ac4300d4 	sw	v1,212(v0)
a08025fc:	3c02a080 	lui	v0,0xa080
a0802600:	24437c48 	addiu	v1,v0,31816
a0802604:	3c02a081 	lui	v0,0xa081
a0802608:	2442cbd0 	addiu	v0,v0,-13360
a080260c:	ac4300d8 	sw	v1,216(v0)
a0802610:	3c02a081 	lui	v0,0xa081
a0802614:	2443803c 	addiu	v1,v0,-32708
a0802618:	3c02a081 	lui	v0,0xa081
a080261c:	2442cbd0 	addiu	v0,v0,-13360
a0802620:	ac4300dc 	sw	v1,220(v0)
a0802624:	3c02a081 	lui	v0,0xa081
a0802628:	2443cbd0 	addiu	v1,v0,-13360
a080262c:	3c02a081 	lui	v0,0xa081
a0802630:	24428120 	addiu	v0,v0,-32480
a0802634:	ac6200e0 	sw	v0,224(v1)
a0802638:	3c02a081 	lui	v0,0xa081
a080263c:	2443831c 	addiu	v1,v0,-31972
a0802640:	3c02a081 	lui	v0,0xa081
a0802644:	2442cbd0 	addiu	v0,v0,-13360
a0802648:	ac4300e4 	sw	v1,228(v0)
a080264c:	3c02a081 	lui	v0,0xa081
a0802650:	2443cbd0 	addiu	v1,v0,-13360
a0802654:	3c02a081 	lui	v0,0xa081
a0802658:	244283d8 	addiu	v0,v0,-31784
a080265c:	ac6200e8 	sw	v0,232(v1)
a0802660:	3c02a081 	lui	v0,0xa081
a0802664:	2443868c 	addiu	v1,v0,-31092
a0802668:	3c02a081 	lui	v0,0xa081
a080266c:	2442cbd0 	addiu	v0,v0,-13360
a0802670:	ac4300ec 	sw	v1,236(v0)
a0802674:	3c02a081 	lui	v0,0xa081
a0802678:	24438c04 	addiu	v1,v0,-29692
a080267c:	3c02a081 	lui	v0,0xa081
a0802680:	2442cbd0 	addiu	v0,v0,-13360
a0802684:	ac4300f8 	sw	v1,248(v0)
a0802688:	3c02a081 	lui	v0,0xa081
a080268c:	24438a18 	addiu	v1,v0,-30184
a0802690:	3c02a081 	lui	v0,0xa081
a0802694:	2442cbd0 	addiu	v0,v0,-13360
a0802698:	ac4300f4 	sw	v1,244(v0)
a080269c:	3c02a081 	lui	v0,0xa081
a08026a0:	244389d4 	addiu	v1,v0,-30252
a08026a4:	3c02a081 	lui	v0,0xa081
a08026a8:	2442cbd0 	addiu	v0,v0,-13360
a08026ac:	ac4300f0 	sw	v1,240(v0)
a08026b0:	3c02a081 	lui	v0,0xa081
a08026b4:	24438ed0 	addiu	v1,v0,-28976
a08026b8:	3c02a081 	lui	v0,0xa081
a08026bc:	2442cbd0 	addiu	v0,v0,-13360
a08026c0:	ac4300fc 	sw	v1,252(v0)
a08026c4:	3c02a080 	lui	v0,0xa080
a08026c8:	24431a54 	addiu	v1,v0,6740
a08026cc:	3c02a081 	lui	v0,0xa081
a08026d0:	2442cbd0 	addiu	v0,v0,-13360
a08026d4:	ac43007c 	sw	v1,124(v0)
a08026d8:	3c02a080 	lui	v0,0xa080
a08026dc:	24431b0c 	addiu	v1,v0,6924
a08026e0:	3c02a081 	lui	v0,0xa081
a08026e4:	2442cbd0 	addiu	v0,v0,-13360
a08026e8:	ac430080 	sw	v1,128(v0)
a08026ec:	3c02a080 	lui	v0,0xa080
a08026f0:	24431b90 	addiu	v1,v0,7056
a08026f4:	3c02a081 	lui	v0,0xa081
a08026f8:	2442cbd0 	addiu	v0,v0,-13360
a08026fc:	ac430084 	sw	v1,132(v0)
a0802700:	03c0e821 	move	sp,s8
a0802704:	8fbe0004 	lw	s8,4(sp)
a0802708:	27bd0008 	addiu	sp,sp,8
a080270c:	03e00008 	jr	ra
a0802710:	00000000 	nop
	...

a0802720 <irq_timer>:
a0802720:	27bdffe0 	addiu	sp,sp,-32
a0802724:	afbf001c 	sw	ra,28(sp)
a0802728:	afbe0018 	sw	s8,24(sp)
a080272c:	03a0f021 	move	s8,sp
a0802730:	0c2004d2 	jal	a0801348 <screen_reflush>
a0802734:	00000000 	nop
a0802738:	3c02a081 	lui	v0,0xa081
a080273c:	8c42c790 	lw	v0,-14448(v0)
a0802740:	24432710 	addiu	v1,v0,10000
a0802744:	3c02a081 	lui	v0,0xa081
a0802748:	ac43c790 	sw	v1,-14448(v0)
a080274c:	3c02a081 	lui	v0,0xa081
a0802750:	8c42cd60 	lw	v0,-12960(v0)
a0802754:	afc20014 	sw	v0,20(s8)
a0802758:	082009e0 	j	a0802780 <irq_timer+0x60>
a080275c:	00000000 	nop
a0802760:	8fc30014 	lw	v1,20(s8)
a0802764:	8fc20014 	lw	v0,20(s8)
a0802768:	8c42015c 	lw	v0,348(v0)
a080276c:	24420001 	addiu	v0,v0,1
a0802770:	ac62015c 	sw	v0,348(v1)
a0802774:	8fc20014 	lw	v0,20(s8)
a0802778:	8c420144 	lw	v0,324(v0)
a080277c:	afc20014 	sw	v0,20(s8)
a0802780:	8fc20014 	lw	v0,20(s8)
a0802784:	1440fff6 	bnez	v0,a0802760 <irq_timer+0x40>
a0802788:	00000000 	nop
a080278c:	3c02a081 	lui	v0,0xa081
a0802790:	8c42b498 	lw	v0,-19304(v0)
a0802794:	ac400158 	sw	zero,344(v0)
a0802798:	3c02a081 	lui	v0,0xa081
a080279c:	8c42b3d0 	lw	v0,-19504(v0)
a08027a0:	0440000f 	bltz	v0,a08027e0 <irq_timer+0xc0>
a08027a4:	00000000 	nop
a08027a8:	3c02a081 	lui	v0,0xa081
a08027ac:	8c42b3d0 	lw	v0,-19504(v0)
a08027b0:	3c03a081 	lui	v1,0xa081
a08027b4:	00022100 	sll	a0,v0,0x4
a08027b8:	2462c7c0 	addiu	v0,v1,-14400
a08027bc:	00821021 	addu	v0,a0,v0
a08027c0:	8c420000 	lw	v0,0(v0)
a08027c4:	000217c2 	srl	v0,v0,0x1f
a08027c8:	afc20010 	sw	v0,16(s8)
a08027cc:	8fc20010 	lw	v0,16(s8)
a08027d0:	14400003 	bnez	v0,a08027e0 <irq_timer+0xc0>
a08027d4:	00000000 	nop
a08027d8:	0c2005bb 	jal	a08016ec <mac_irq_handle>
a08027dc:	00000000 	nop
a08027e0:	0c2000b9 	jal	a08002e4 <do_scheduler>
a08027e4:	00000000 	nop
a08027e8:	03c0e821 	move	sp,s8
a08027ec:	8fbf001c 	lw	ra,28(sp)
a08027f0:	8fbe0018 	lw	s8,24(sp)
a08027f4:	27bd0020 	addiu	sp,sp,32
a08027f8:	03e00008 	jr	ra
a08027fc:	00000000 	nop

a0802800 <interrupt_helper>:
a0802800:	27bdffd8 	addiu	sp,sp,-40
a0802804:	afbf0024 	sw	ra,36(sp)
a0802808:	afbe0020 	sw	s8,32(sp)
a080280c:	03a0f021 	move	s8,sp
a0802810:	afc40028 	sw	a0,40(s8)
a0802814:	afc5002c 	sw	a1,44(s8)
a0802818:	8fc20028 	lw	v0,40(s8)
a080281c:	30428000 	andi	v0,v0,0x8000
a0802820:	afc2001c 	sw	v0,28(s8)
a0802824:	8fc20028 	lw	v0,40(s8)
a0802828:	30420001 	andi	v0,v0,0x1
a080282c:	afc20018 	sw	v0,24(s8)
a0802830:	8fc2002c 	lw	v0,44(s8)
a0802834:	3042ff00 	andi	v0,v0,0xff00
a0802838:	afc20014 	sw	v0,20(s8)
a080283c:	8fc2002c 	lw	v0,44(s8)
a0802840:	3042007c 	andi	v0,v0,0x7c
a0802844:	afc20010 	sw	v0,16(s8)
a0802848:	8fc30014 	lw	v1,20(s8)
a080284c:	34028000 	li	v0,0x8000
a0802850:	14620003 	bne	v1,v0,a0802860 <interrupt_helper+0x60>
a0802854:	00000000 	nop
a0802858:	0c2009c8 	jal	a0802720 <irq_timer>
a080285c:	00000000 	nop
a0802860:	03c0e821 	move	sp,s8
a0802864:	8fbf0024 	lw	ra,36(sp)
a0802868:	8fbe0020 	lw	s8,32(sp)
a080286c:	27bd0028 	addiu	sp,sp,40
a0802870:	03e00008 	jr	ra
a0802874:	00000000 	nop

a0802878 <other_exception_handler>:
a0802878:	27bdfff8 	addiu	sp,sp,-8
a080287c:	afbe0004 	sw	s8,4(sp)
a0802880:	03a0f021 	move	s8,sp
a0802884:	03c0e821 	move	sp,s8
a0802888:	8fbe0004 	lw	s8,4(sp)
a080288c:	27bd0008 	addiu	sp,sp,8
a0802890:	03e00008 	jr	ra
a0802894:	00000000 	nop
	...

a08028a0 <spin_lock_init>:
a08028a0:	27bdfff8 	addiu	sp,sp,-8
a08028a4:	afbe0004 	sw	s8,4(sp)
a08028a8:	03a0f021 	move	s8,sp
a08028ac:	afc40008 	sw	a0,8(s8)
a08028b0:	8fc20008 	lw	v0,8(s8)
a08028b4:	ac400000 	sw	zero,0(v0)
a08028b8:	03c0e821 	move	sp,s8
a08028bc:	8fbe0004 	lw	s8,4(sp)
a08028c0:	27bd0008 	addiu	sp,sp,8
a08028c4:	03e00008 	jr	ra
a08028c8:	00000000 	nop

a08028cc <spin_lock_acquire>:
a08028cc:	27bdfff8 	addiu	sp,sp,-8
a08028d0:	afbe0004 	sw	s8,4(sp)
a08028d4:	03a0f021 	move	s8,sp
a08028d8:	afc40008 	sw	a0,8(s8)
a08028dc:	8fc20008 	lw	v0,8(s8)
a08028e0:	8c430000 	lw	v1,0(v0)
a08028e4:	24020001 	li	v0,1
a08028e8:	1062fffc 	beq	v1,v0,a08028dc <spin_lock_acquire+0x10>
a08028ec:	00000000 	nop
a08028f0:	8fc30008 	lw	v1,8(s8)
a08028f4:	24020001 	li	v0,1
a08028f8:	ac620000 	sw	v0,0(v1)
a08028fc:	03c0e821 	move	sp,s8
a0802900:	8fbe0004 	lw	s8,4(sp)
a0802904:	27bd0008 	addiu	sp,sp,8
a0802908:	03e00008 	jr	ra
a080290c:	00000000 	nop

a0802910 <spin_lock_release>:
a0802910:	27bdfff8 	addiu	sp,sp,-8
a0802914:	afbe0004 	sw	s8,4(sp)
a0802918:	03a0f021 	move	s8,sp
a080291c:	afc40008 	sw	a0,8(s8)
a0802920:	8fc20008 	lw	v0,8(s8)
a0802924:	ac400000 	sw	zero,0(v0)
a0802928:	03c0e821 	move	sp,s8
a080292c:	8fbe0004 	lw	s8,4(sp)
a0802930:	27bd0008 	addiu	sp,sp,8
a0802934:	03e00008 	jr	ra
a0802938:	00000000 	nop

a080293c <do_mutex_lock_init>:
a080293c:	27bdffe8 	addiu	sp,sp,-24
a0802940:	afbf0014 	sw	ra,20(sp)
a0802944:	afbe0010 	sw	s8,16(sp)
a0802948:	03a0f021 	move	s8,sp
a080294c:	afc40018 	sw	a0,24(s8)
a0802950:	8fc20018 	lw	v0,24(s8)
a0802954:	ac400000 	sw	zero,0(v0)
a0802958:	8fc20018 	lw	v0,24(s8)
a080295c:	24420004 	addiu	v0,v0,4
a0802960:	00402021 	move	a0,v0
a0802964:	0c2011c4 	jal	a0804710 <queue_init>
a0802968:	00000000 	nop
a080296c:	03c0e821 	move	sp,s8
a0802970:	8fbf0014 	lw	ra,20(sp)
a0802974:	8fbe0010 	lw	s8,16(sp)
a0802978:	27bd0018 	addiu	sp,sp,24
a080297c:	03e00008 	jr	ra
a0802980:	00000000 	nop

a0802984 <do_mutex_lock_acquire>:
a0802984:	27bdffe0 	addiu	sp,sp,-32
a0802988:	afbf001c 	sw	ra,28(sp)
a080298c:	afbe0018 	sw	s8,24(sp)
a0802990:	03a0f021 	move	s8,sp
a0802994:	afc40020 	sw	a0,32(s8)
a0802998:	08200a6f 	j	a08029bc <do_mutex_lock_acquire+0x38>
a080299c:	00000000 	nop
a08029a0:	8fc20020 	lw	v0,32(s8)
a08029a4:	24420004 	addiu	v0,v0,4
a08029a8:	00402021 	move	a0,v0
a08029ac:	0c200d22 	jal	a0803488 <do_block>
a08029b0:	00000000 	nop
a08029b4:	0c2000b9 	jal	a08002e4 <do_scheduler>
a08029b8:	00000000 	nop
a08029bc:	8fc20020 	lw	v0,32(s8)
a08029c0:	8c430000 	lw	v1,0(v0)
a08029c4:	24020001 	li	v0,1
a08029c8:	1062fff5 	beq	v1,v0,a08029a0 <do_mutex_lock_acquire+0x1c>
a08029cc:	00000000 	nop
a08029d0:	afc00010 	sw	zero,16(s8)
a08029d4:	afc00014 	sw	zero,20(s8)
a08029d8:	08200a88 	j	a0802a20 <do_mutex_lock_acquire+0x9c>
a08029dc:	00000000 	nop
a08029e0:	3c02a081 	lui	v0,0xa081
a08029e4:	8c43b498 	lw	v1,-19304(v0)
a08029e8:	8fc20014 	lw	v0,20(s8)
a08029ec:	24420060 	addiu	v0,v0,96
a08029f0:	00021080 	sll	v0,v0,0x2
a08029f4:	00621021 	addu	v0,v1,v0
a08029f8:	8c420004 	lw	v0,4(v0)
a08029fc:	14400005 	bnez	v0,a0802a14 <do_mutex_lock_acquire+0x90>
a0802a00:	00000000 	nop
a0802a04:	24020001 	li	v0,1
a0802a08:	afc20010 	sw	v0,16(s8)
a0802a0c:	08200a8c 	j	a0802a30 <do_mutex_lock_acquire+0xac>
a0802a10:	00000000 	nop
a0802a14:	8fc20014 	lw	v0,20(s8)
a0802a18:	24420001 	addiu	v0,v0,1
a0802a1c:	afc20014 	sw	v0,20(s8)
a0802a20:	8fc20014 	lw	v0,20(s8)
a0802a24:	28420014 	slti	v0,v0,20
a0802a28:	1440ffed 	bnez	v0,a08029e0 <do_mutex_lock_acquire+0x5c>
a0802a2c:	00000000 	nop
a0802a30:	8fc20010 	lw	v0,16(s8)
a0802a34:	14400003 	bnez	v0,a0802a44 <do_mutex_lock_acquire+0xc0>
a0802a38:	00000000 	nop
a0802a3c:	0c2010c6 	jal	a0804318 <do_exit>
a0802a40:	00000000 	nop
a0802a44:	3c02a081 	lui	v0,0xa081
a0802a48:	8c43b498 	lw	v1,-19304(v0)
a0802a4c:	8fc20014 	lw	v0,20(s8)
a0802a50:	24420060 	addiu	v0,v0,96
a0802a54:	00021080 	sll	v0,v0,0x2
a0802a58:	00621021 	addu	v0,v1,v0
a0802a5c:	8fc30020 	lw	v1,32(s8)
a0802a60:	ac430004 	sw	v1,4(v0)
a0802a64:	8fc30020 	lw	v1,32(s8)
a0802a68:	24020001 	li	v0,1
a0802a6c:	ac620000 	sw	v0,0(v1)
a0802a70:	03c0e821 	move	sp,s8
a0802a74:	8fbf001c 	lw	ra,28(sp)
a0802a78:	8fbe0018 	lw	s8,24(sp)
a0802a7c:	27bd0020 	addiu	sp,sp,32
a0802a80:	03e00008 	jr	ra
a0802a84:	00000000 	nop

a0802a88 <do_mutex_lock_release>:
a0802a88:	27bdffe0 	addiu	sp,sp,-32
a0802a8c:	afbf001c 	sw	ra,28(sp)
a0802a90:	afbe0018 	sw	s8,24(sp)
a0802a94:	03a0f021 	move	s8,sp
a0802a98:	afc40020 	sw	a0,32(s8)
a0802a9c:	8fc20020 	lw	v0,32(s8)
a0802aa0:	24420004 	addiu	v0,v0,4
a0802aa4:	00402021 	move	a0,v0
a0802aa8:	0c200d5f 	jal	a080357c <do_unblock_all>
a0802aac:	00000000 	nop
a0802ab0:	afc00010 	sw	zero,16(s8)
a0802ab4:	08200ac5 	j	a0802b14 <do_mutex_lock_release+0x8c>
a0802ab8:	00000000 	nop
a0802abc:	3c02a081 	lui	v0,0xa081
a0802ac0:	8c43b498 	lw	v1,-19304(v0)
a0802ac4:	8fc20010 	lw	v0,16(s8)
a0802ac8:	24420060 	addiu	v0,v0,96
a0802acc:	00021080 	sll	v0,v0,0x2
a0802ad0:	00621021 	addu	v0,v1,v0
a0802ad4:	8c430004 	lw	v1,4(v0)
a0802ad8:	8fc20020 	lw	v0,32(s8)
a0802adc:	1462000a 	bne	v1,v0,a0802b08 <do_mutex_lock_release+0x80>
a0802ae0:	00000000 	nop
a0802ae4:	3c02a081 	lui	v0,0xa081
a0802ae8:	8c43b498 	lw	v1,-19304(v0)
a0802aec:	8fc20010 	lw	v0,16(s8)
a0802af0:	24420060 	addiu	v0,v0,96
a0802af4:	00021080 	sll	v0,v0,0x2
a0802af8:	00621021 	addu	v0,v1,v0
a0802afc:	ac400004 	sw	zero,4(v0)
a0802b00:	08200ac9 	j	a0802b24 <do_mutex_lock_release+0x9c>
a0802b04:	00000000 	nop
a0802b08:	8fc20010 	lw	v0,16(s8)
a0802b0c:	24420001 	addiu	v0,v0,1
a0802b10:	afc20010 	sw	v0,16(s8)
a0802b14:	8fc20010 	lw	v0,16(s8)
a0802b18:	28420014 	slti	v0,v0,20
a0802b1c:	1440ffe7 	bnez	v0,a0802abc <do_mutex_lock_release+0x34>
a0802b20:	00000000 	nop
a0802b24:	8fc20020 	lw	v0,32(s8)
a0802b28:	ac400000 	sw	zero,0(v0)
a0802b2c:	03c0e821 	move	sp,s8
a0802b30:	8fbf001c 	lw	ra,28(sp)
a0802b34:	8fbe0018 	lw	s8,24(sp)
a0802b38:	27bd0020 	addiu	sp,sp,32
a0802b3c:	03e00008 	jr	ra
a0802b40:	00000000 	nop
	...

a0802b50 <alloc_page>:
a0802b50:	27bdfff0 	addiu	sp,sp,-16
a0802b54:	afbe000c 	sw	s8,12(sp)
a0802b58:	03a0f021 	move	s8,sp
a0802b5c:	a7c00002 	sh	zero,2(s8)
a0802b60:	a7c00004 	sh	zero,4(s8)
a0802b64:	08200ae8 	j	a0802ba0 <alloc_page+0x50>
a0802b68:	00000000 	nop
a0802b6c:	97c30004 	lhu	v1,4(s8)
a0802b70:	3c02a0ff 	lui	v0,0xa0ff
a0802b74:	3442e000 	ori	v0,v0,0xe000
a0802b78:	00621021 	addu	v0,v1,v0
a0802b7c:	90420000 	lbu	v0,0(v0)
a0802b80:	a3c20000 	sb	v0,0(s8)
a0802b84:	93c30000 	lbu	v1,0(s8)
a0802b88:	240200ff 	li	v0,255
a0802b8c:	14620008 	bne	v1,v0,a0802bb0 <alloc_page+0x60>
a0802b90:	00000000 	nop
a0802b94:	97c20004 	lhu	v0,4(s8)
a0802b98:	24420001 	addiu	v0,v0,1
a0802b9c:	a7c20004 	sh	v0,4(s8)
a0802ba0:	97c20004 	lhu	v0,4(s8)
a0802ba4:	2c420200 	sltiu	v0,v0,512
a0802ba8:	1440fff0 	bnez	v0,a0802b6c <alloc_page+0x1c>
a0802bac:	00000000 	nop
a0802bb0:	a7c00002 	sh	zero,2(s8)
a0802bb4:	08200af9 	j	a0802be4 <alloc_page+0x94>
a0802bb8:	00000000 	nop
a0802bbc:	93c20000 	lbu	v0,0(s8)
a0802bc0:	30420001 	andi	v0,v0,0x1
a0802bc4:	1040000b 	beqz	v0,a0802bf4 <alloc_page+0xa4>
a0802bc8:	00000000 	nop
a0802bcc:	93c20000 	lbu	v0,0(s8)
a0802bd0:	00021042 	srl	v0,v0,0x1
a0802bd4:	a3c20000 	sb	v0,0(s8)
a0802bd8:	97c20002 	lhu	v0,2(s8)
a0802bdc:	24420001 	addiu	v0,v0,1
a0802be0:	a7c20002 	sh	v0,2(s8)
a0802be4:	97c20002 	lhu	v0,2(s8)
a0802be8:	2c420008 	sltiu	v0,v0,8
a0802bec:	1440fff3 	bnez	v0,a0802bbc <alloc_page+0x6c>
a0802bf0:	00000000 	nop
a0802bf4:	97c30002 	lhu	v1,2(s8)
a0802bf8:	24020001 	li	v0,1
a0802bfc:	00621004 	sllv	v0,v0,v1
a0802c00:	a3c20000 	sb	v0,0(s8)
a0802c04:	97c30004 	lhu	v1,4(s8)
a0802c08:	3c02a0ff 	lui	v0,0xa0ff
a0802c0c:	3442e000 	ori	v0,v0,0xe000
a0802c10:	00621021 	addu	v0,v1,v0
a0802c14:	00402021 	move	a0,v0
a0802c18:	97c30004 	lhu	v1,4(s8)
a0802c1c:	3c02a0ff 	lui	v0,0xa0ff
a0802c20:	3442e000 	ori	v0,v0,0xe000
a0802c24:	00621021 	addu	v0,v1,v0
a0802c28:	90430000 	lbu	v1,0(v0)
a0802c2c:	93c20000 	lbu	v0,0(s8)
a0802c30:	00621025 	or	v0,v1,v0
a0802c34:	304200ff 	andi	v0,v0,0xff
a0802c38:	a0820000 	sb	v0,0(a0)
a0802c3c:	97c20004 	lhu	v0,4(s8)
a0802c40:	000210c0 	sll	v0,v0,0x3
a0802c44:	3043ffff 	andi	v1,v0,0xffff
a0802c48:	97c20002 	lhu	v0,2(s8)
a0802c4c:	00621021 	addu	v0,v1,v0
a0802c50:	3042ffff 	andi	v0,v0,0xffff
a0802c54:	03c0e821 	move	sp,s8
a0802c58:	8fbe000c 	lw	s8,12(sp)
a0802c5c:	27bd0010 	addiu	sp,sp,16
a0802c60:	03e00008 	jr	ra
a0802c64:	00000000 	nop

a0802c68 <free_page>:
a0802c68:	27bdfff0 	addiu	sp,sp,-16
a0802c6c:	afbe000c 	sw	s8,12(sp)
a0802c70:	03a0f021 	move	s8,sp
a0802c74:	afc40010 	sw	a0,16(s8)
a0802c78:	8fc20010 	lw	v0,16(s8)
a0802c7c:	000210c2 	srl	v0,v0,0x3
a0802c80:	a7c20004 	sh	v0,4(s8)
a0802c84:	8fc20010 	lw	v0,16(s8)
a0802c88:	3042ffff 	andi	v0,v0,0xffff
a0802c8c:	30420007 	andi	v0,v0,0x7
a0802c90:	a7c20002 	sh	v0,2(s8)
a0802c94:	97c30002 	lhu	v1,2(s8)
a0802c98:	24020001 	li	v0,1
a0802c9c:	00621004 	sllv	v0,v0,v1
a0802ca0:	a3c20000 	sb	v0,0(s8)
a0802ca4:	97c30004 	lhu	v1,4(s8)
a0802ca8:	3c02a0ff 	lui	v0,0xa0ff
a0802cac:	3442e000 	ori	v0,v0,0xe000
a0802cb0:	00621021 	addu	v0,v1,v0
a0802cb4:	00402021 	move	a0,v0
a0802cb8:	97c30004 	lhu	v1,4(s8)
a0802cbc:	3c02a0ff 	lui	v0,0xa0ff
a0802cc0:	3442e000 	ori	v0,v0,0xe000
a0802cc4:	00621021 	addu	v0,v1,v0
a0802cc8:	90420000 	lbu	v0,0(v0)
a0802ccc:	00021e00 	sll	v1,v0,0x18
a0802cd0:	00031e03 	sra	v1,v1,0x18
a0802cd4:	83c20000 	lb	v0,0(s8)
a0802cd8:	00021027 	nor	v0,zero,v0
a0802cdc:	00021600 	sll	v0,v0,0x18
a0802ce0:	00021603 	sra	v0,v0,0x18
a0802ce4:	00621024 	and	v0,v1,v0
a0802ce8:	00021600 	sll	v0,v0,0x18
a0802cec:	00021603 	sra	v0,v0,0x18
a0802cf0:	304200ff 	andi	v0,v0,0xff
a0802cf4:	a0820000 	sb	v0,0(a0)
a0802cf8:	03c0e821 	move	sp,s8
a0802cfc:	8fbe000c 	lw	s8,12(sp)
a0802d00:	27bd0010 	addiu	sp,sp,16
a0802d04:	03e00008 	jr	ra
a0802d08:	00000000 	nop

a0802d0c <alloc_top_pte>:
a0802d0c:	27bdffe0 	addiu	sp,sp,-32
a0802d10:	afbf001c 	sw	ra,28(sp)
a0802d14:	afbe0018 	sw	s8,24(sp)
a0802d18:	03a0f021 	move	s8,sp
a0802d1c:	00801021 	move	v0,a0
a0802d20:	a3c20020 	sb	v0,32(s8)
a0802d24:	0c200ad4 	jal	a0802b50 <alloc_page>
a0802d28:	00000000 	nop
a0802d2c:	a7c20014 	sh	v0,20(s8)
a0802d30:	93c30020 	lbu	v1,32(s8)
a0802d34:	3c02507f 	lui	v0,0x507f
a0802d38:	3442e800 	ori	v0,v0,0xe800
a0802d3c:	00621021 	addu	v0,v1,v0
a0802d40:	00021040 	sll	v0,v0,0x1
a0802d44:	00401821 	move	v1,v0
a0802d48:	97c20014 	lhu	v0,20(s8)
a0802d4c:	a4620000 	sh	v0,0(v1)
a0802d50:	afc00010 	sw	zero,16(s8)
a0802d54:	08200b61 	j	a0802d84 <alloc_top_pte+0x78>
a0802d58:	00000000 	nop
a0802d5c:	97c30014 	lhu	v1,20(s8)
a0802d60:	3c020005 	lui	v0,0x5
a0802d64:	00621021 	addu	v0,v1,v0
a0802d68:	00021b40 	sll	v1,v0,0xd
a0802d6c:	8fc20010 	lw	v0,16(s8)
a0802d70:	00621021 	addu	v0,v1,v0
a0802d74:	a0400000 	sb	zero,0(v0)
a0802d78:	8fc20010 	lw	v0,16(s8)
a0802d7c:	24420001 	addiu	v0,v0,1
a0802d80:	afc20010 	sw	v0,16(s8)
a0802d84:	8fc20010 	lw	v0,16(s8)
a0802d88:	28422000 	slti	v0,v0,8192
a0802d8c:	1440fff3 	bnez	v0,a0802d5c <alloc_top_pte+0x50>
a0802d90:	00000000 	nop
a0802d94:	97c20014 	lhu	v0,20(s8)
a0802d98:	03c0e821 	move	sp,s8
a0802d9c:	8fbf001c 	lw	ra,28(sp)
a0802da0:	8fbe0018 	lw	s8,24(sp)
a0802da4:	27bd0020 	addiu	sp,sp,32
a0802da8:	03e00008 	jr	ra
a0802dac:	00000000 	nop

a0802db0 <do_TLB_Refill>:
a0802db0:	27bdffb8 	addiu	sp,sp,-72
a0802db4:	afbf0044 	sw	ra,68(sp)
a0802db8:	afbe0040 	sw	s8,64(sp)
a0802dbc:	03a0f021 	move	s8,sp
a0802dc0:	0c200303 	jal	a0800c0c <get_badvaddr>
a0802dc4:	00000000 	nop
a0802dc8:	afc20038 	sw	v0,56(s8)
a0802dcc:	8fc20038 	lw	v0,56(s8)
a0802dd0:	000215c2 	srl	v0,v0,0x17
a0802dd4:	a3c20034 	sb	v0,52(s8)
a0802dd8:	93c20034 	lbu	v0,52(s8)
a0802ddc:	000215c0 	sll	v0,v0,0x17
a0802de0:	00401821 	move	v1,v0
a0802de4:	8fc20038 	lw	v0,56(s8)
a0802de8:	00431023 	subu	v0,v0,v1
a0802dec:	00021342 	srl	v0,v0,0xd
a0802df0:	a7c20032 	sh	v0,50(s8)
a0802df4:	93c30034 	lbu	v1,52(s8)
a0802df8:	3c02507f 	lui	v0,0x507f
a0802dfc:	3442e800 	ori	v0,v0,0xe800
a0802e00:	00621021 	addu	v0,v1,v0
a0802e04:	00021040 	sll	v0,v0,0x1
a0802e08:	94420000 	lhu	v0,0(v0)
a0802e0c:	a7c20030 	sh	v0,48(s8)
a0802e10:	3c02a081 	lui	v0,0xa081
a0802e14:	8c42b498 	lw	v0,-19304(v0)
a0802e18:	8c420148 	lw	v0,328(v0)
a0802e1c:	afc2002c 	sw	v0,44(s8)
a0802e20:	97c20030 	lhu	v0,48(s8)
a0802e24:	14400006 	bnez	v0,a0802e40 <do_TLB_Refill+0x90>
a0802e28:	00000000 	nop
a0802e2c:	93c20034 	lbu	v0,52(s8)
a0802e30:	00402021 	move	a0,v0
a0802e34:	0c200b43 	jal	a0802d0c <alloc_top_pte>
a0802e38:	00000000 	nop
a0802e3c:	a7c20030 	sh	v0,48(s8)
a0802e40:	97c30030 	lhu	v1,48(s8)
a0802e44:	3c020005 	lui	v0,0x5
a0802e48:	00621021 	addu	v0,v1,v0
a0802e4c:	00021a80 	sll	v1,v0,0xa
a0802e50:	97c20032 	lhu	v0,50(s8)
a0802e54:	00621021 	addu	v0,v1,v0
a0802e58:	000210c0 	sll	v0,v0,0x3
a0802e5c:	afc20028 	sw	v0,40(s8)
a0802e60:	8fc20028 	lw	v0,40(s8)
a0802e64:	8c420004 	lw	v0,4(v0)
a0802e68:	14400011 	bnez	v0,a0802eb0 <do_TLB_Refill+0x100>
a0802e6c:	00000000 	nop
a0802e70:	0c200ad4 	jal	a0802b50 <alloc_page>
a0802e74:	00000000 	nop
a0802e78:	afc20010 	sw	v0,16(s8)
a0802e7c:	8fc30038 	lw	v1,56(s8)
a0802e80:	2402e000 	li	v0,-8192
a0802e84:	00621824 	and	v1,v1,v0
a0802e88:	8fc2002c 	lw	v0,44(s8)
a0802e8c:	304200ff 	andi	v0,v0,0xff
a0802e90:	00621825 	or	v1,v1,v0
a0802e94:	8fc20028 	lw	v0,40(s8)
a0802e98:	ac430000 	sw	v1,0(v0)
a0802e9c:	8fc20010 	lw	v0,16(s8)
a0802ea0:	000211c0 	sll	v0,v0,0x7
a0802ea4:	34430016 	ori	v1,v0,0x16
a0802ea8:	8fc20028 	lw	v0,40(s8)
a0802eac:	ac430004 	sw	v1,4(v0)
a0802eb0:	8fc20028 	lw	v0,40(s8)
a0802eb4:	8c420000 	lw	v0,0(v0)
a0802eb8:	afc20024 	sw	v0,36(s8)
a0802ebc:	8fc20028 	lw	v0,40(s8)
a0802ec0:	8c420004 	lw	v0,4(v0)
a0802ec4:	afc20020 	sw	v0,32(s8)
a0802ec8:	8fc20028 	lw	v0,40(s8)
a0802ecc:	8c420000 	lw	v0,0(v0)
a0802ed0:	304200ff 	andi	v0,v0,0xff
a0802ed4:	afc2001c 	sw	v0,28(s8)
a0802ed8:	8fc3001c 	lw	v1,28(s8)
a0802edc:	8fc2002c 	lw	v0,44(s8)
a0802ee0:	10620007 	beq	v1,v0,a0802f00 <do_TLB_Refill+0x150>
a0802ee4:	00000000 	nop
a0802ee8:	3c02a081 	lui	v0,0xa081
a0802eec:	2444af40 	addiu	a0,v0,-20672
a0802ef0:	0c2018e1 	jal	a0806384 <printk>
a0802ef4:	00000000 	nop
a0802ef8:	0c2010c6 	jal	a0804318 <do_exit>
a0802efc:	00000000 	nop
a0802f00:	afc00018 	sw	zero,24(s8)
a0802f04:	08200bdb 	j	a0802f6c <do_TLB_Refill+0x1bc>
a0802f08:	00000000 	nop
a0802f0c:	3c02a081 	lui	v0,0xa081
a0802f10:	8c43b498 	lw	v1,-19304(v0)
a0802f14:	8fc20018 	lw	v0,24(s8)
a0802f18:	2442008a 	addiu	v0,v0,138
a0802f1c:	00021080 	sll	v0,v0,0x2
a0802f20:	00621021 	addu	v0,v1,v0
a0802f24:	8c430004 	lw	v1,4(v0)
a0802f28:	2402ffff 	li	v0,-1
a0802f2c:	1462000c 	bne	v1,v0,a0802f60 <do_TLB_Refill+0x1b0>
a0802f30:	00000000 	nop
a0802f34:	3c02a081 	lui	v0,0xa081
a0802f38:	8c45b498 	lw	a1,-19304(v0)
a0802f3c:	8fc30018 	lw	v1,24(s8)
a0802f40:	8fc20038 	lw	v0,56(s8)
a0802f44:	00022342 	srl	a0,v0,0xd
a0802f48:	2462008a 	addiu	v0,v1,138
a0802f4c:	00021080 	sll	v0,v0,0x2
a0802f50:	00a21021 	addu	v0,a1,v0
a0802f54:	ac440004 	sw	a0,4(v0)
a0802f58:	08200bdf 	j	a0802f7c <do_TLB_Refill+0x1cc>
a0802f5c:	00000000 	nop
a0802f60:	8fc20018 	lw	v0,24(s8)
a0802f64:	24420001 	addiu	v0,v0,1
a0802f68:	afc20018 	sw	v0,24(s8)
a0802f6c:	8fc20018 	lw	v0,24(s8)
a0802f70:	28420014 	slti	v0,v0,20
a0802f74:	1440ffe5 	bnez	v0,a0802f0c <do_TLB_Refill+0x15c>
a0802f78:	00000000 	nop
a0802f7c:	8fc40024 	lw	a0,36(s8)
a0802f80:	0c2002f8 	jal	a0800be0 <set_entryhi>
a0802f84:	00000000 	nop
a0802f88:	8fc40020 	lw	a0,32(s8)
a0802f8c:	0c2002fb 	jal	a0800bec <set_entrylo>
a0802f90:	00000000 	nop
a0802f94:	8fc40024 	lw	a0,36(s8)
a0802f98:	0c200306 	jal	a0800c18 <get_index>
a0802f9c:	00000000 	nop
a0802fa0:	afc20014 	sw	v0,20(s8)
a0802fa4:	8fc20014 	lw	v0,20(s8)
a0802fa8:	0441000d 	bgez	v0,a0802fe0 <do_TLB_Refill+0x230>
a0802fac:	00000000 	nop
a0802fb0:	3c02a081 	lui	v0,0xa081
a0802fb4:	9042c770 	lbu	v0,-14480(v0)
a0802fb8:	3042001f 	andi	v0,v0,0x1f
a0802fbc:	00402021 	move	a0,v0
a0802fc0:	0c20030b 	jal	a0800c2c <set_index>
a0802fc4:	00000000 	nop
a0802fc8:	3c02a081 	lui	v0,0xa081
a0802fcc:	9042c770 	lbu	v0,-14480(v0)
a0802fd0:	24420001 	addiu	v0,v0,1
a0802fd4:	304300ff 	andi	v1,v0,0xff
a0802fd8:	3c02a081 	lui	v0,0xa081
a0802fdc:	a043c770 	sb	v1,-14480(v0)
a0802fe0:	0c20030e 	jal	a0800c38 <tlb_fill>
a0802fe4:	00000000 	nop
a0802fe8:	03c0e821 	move	sp,s8
a0802fec:	8fbf0044 	lw	ra,68(sp)
a0802ff0:	8fbe0040 	lw	s8,64(sp)
a0802ff4:	27bd0048 	addiu	sp,sp,72
a0802ff8:	03e00008 	jr	ra
a0802ffc:	00000000 	nop

a0803000 <mod_helper>:
a0803000:	27bdffe8 	addiu	sp,sp,-24
a0803004:	afbf0014 	sw	ra,20(sp)
a0803008:	afbe0010 	sw	s8,16(sp)
a080300c:	03a0f021 	move	s8,sp
a0803010:	3c02a081 	lui	v0,0xa081
a0803014:	2444af54 	addiu	a0,v0,-20652
a0803018:	0c2018e1 	jal	a0806384 <printk>
a080301c:	00000000 	nop
a0803020:	03c0e821 	move	sp,s8
a0803024:	8fbf0014 	lw	ra,20(sp)
a0803028:	8fbe0010 	lw	s8,16(sp)
a080302c:	27bd0018 	addiu	sp,sp,24
a0803030:	03e00008 	jr	ra
a0803034:	00000000 	nop
	...

a0803040 <check_sleeping>:
a0803040:	27bdffe0 	addiu	sp,sp,-32
a0803044:	afbf001c 	sw	ra,28(sp)
a0803048:	afbe0018 	sw	s8,24(sp)
a080304c:	03a0f021 	move	s8,sp
a0803050:	3c02a081 	lui	v0,0xa081
a0803054:	8c42cd60 	lw	v0,-12960(v0)
a0803058:	afc20014 	sw	v0,20(s8)
a080305c:	08200c33 	j	a08030cc <check_sleeping+0x8c>
a0803060:	00000000 	nop
a0803064:	8fc20014 	lw	v0,20(s8)
a0803068:	8c420144 	lw	v0,324(v0)
a080306c:	afc20010 	sw	v0,16(s8)
a0803070:	8fc20014 	lw	v0,20(s8)
a0803074:	8c43015c 	lw	v1,348(v0)
a0803078:	8fc20014 	lw	v0,20(s8)
a080307c:	8c420160 	lw	v0,352(v0)
a0803080:	0062102a 	slt	v0,v1,v0
a0803084:	1440000f 	bnez	v0,a08030c4 <check_sleeping+0x84>
a0803088:	00000000 	nop
a080308c:	3c02a081 	lui	v0,0xa081
a0803090:	2444cd60 	addiu	a0,v0,-12960
a0803094:	8fc50014 	lw	a1,20(s8)
a0803098:	0c20123a 	jal	a08048e8 <queue_remove>
a080309c:	00000000 	nop
a08030a0:	afc20010 	sw	v0,16(s8)
a08030a4:	3c02a081 	lui	v0,0xa081
a08030a8:	2444cd50 	addiu	a0,v0,-12976
a08030ac:	8fc50014 	lw	a1,20(s8)
a08030b0:	0c2011eb 	jal	a08047ac <queue_push>
a08030b4:	00000000 	nop
a08030b8:	8fc30014 	lw	v1,20(s8)
a08030bc:	24020002 	li	v0,2
a08030c0:	ac620150 	sw	v0,336(v1)
a08030c4:	8fc20010 	lw	v0,16(s8)
a08030c8:	afc20014 	sw	v0,20(s8)
a08030cc:	8fc20014 	lw	v0,20(s8)
a08030d0:	1440ffe4 	bnez	v0,a0803064 <check_sleeping+0x24>
a08030d4:	00000000 	nop
a08030d8:	03c0e821 	move	sp,s8
a08030dc:	8fbf001c 	lw	ra,28(sp)
a08030e0:	8fbe0018 	lw	s8,24(sp)
a08030e4:	27bd0020 	addiu	sp,sp,32
a08030e8:	03e00008 	jr	ra
a08030ec:	00000000 	nop

a08030f0 <get_bonus>:
a08030f0:	27bdfff0 	addiu	sp,sp,-16
a08030f4:	afbe000c 	sw	s8,12(sp)
a08030f8:	03a0f021 	move	s8,sp
a08030fc:	3c02a081 	lui	v0,0xa081
a0803100:	2442cd60 	addiu	v0,v0,-12960
a0803104:	8c42000c 	lw	v0,12(v0)
a0803108:	afc20004 	sw	v0,4(s8)
a080310c:	08200c58 	j	a0803160 <get_bonus+0x70>
a0803110:	00000000 	nop
a0803114:	8fc20004 	lw	v0,4(s8)
a0803118:	8c420000 	lw	v0,0(v0)
a080311c:	afc20000 	sw	v0,0(s8)
a0803120:	08200c52 	j	a0803148 <get_bonus+0x58>
a0803124:	00000000 	nop
a0803128:	8fc30000 	lw	v1,0(s8)
a080312c:	8fc20000 	lw	v0,0(s8)
a0803130:	8c420158 	lw	v0,344(v0)
a0803134:	24420001 	addiu	v0,v0,1
a0803138:	ac620158 	sw	v0,344(v1)
a080313c:	8fc20000 	lw	v0,0(s8)
a0803140:	8c420144 	lw	v0,324(v0)
a0803144:	afc20000 	sw	v0,0(s8)
a0803148:	8fc20000 	lw	v0,0(s8)
a080314c:	1440fff6 	bnez	v0,a0803128 <get_bonus+0x38>
a0803150:	00000000 	nop
a0803154:	8fc20004 	lw	v0,4(s8)
a0803158:	8c42000c 	lw	v0,12(v0)
a080315c:	afc20004 	sw	v0,4(s8)
a0803160:	8fc20004 	lw	v0,4(s8)
a0803164:	1440ffeb 	bnez	v0,a0803114 <get_bonus+0x24>
a0803168:	00000000 	nop
a080316c:	03c0e821 	move	sp,s8
a0803170:	8fbe000c 	lw	s8,12(sp)
a0803174:	27bd0010 	addiu	sp,sp,16
a0803178:	03e00008 	jr	ra
a080317c:	00000000 	nop

a0803180 <scheduler>:
a0803180:	27bdffe0 	addiu	sp,sp,-32
a0803184:	afbf001c 	sw	ra,28(sp)
a0803188:	afbe0018 	sw	s8,24(sp)
a080318c:	03a0f021 	move	s8,sp
a0803190:	3c02a081 	lui	v0,0xa081
a0803194:	8c43b498 	lw	v1,-19304(v0)
a0803198:	3c02a081 	lui	v0,0xa081
a080319c:	8c42b490 	lw	v0,-19312(v0)
a08031a0:	ac620164 	sw	v0,356(v1)
a08031a4:	3c02a081 	lui	v0,0xa081
a08031a8:	8c43b498 	lw	v1,-19304(v0)
a08031ac:	3c02a081 	lui	v0,0xa081
a08031b0:	8c42b494 	lw	v0,-19308(v0)
a08031b4:	ac620168 	sw	v0,360(v1)
a08031b8:	0c200c10 	jal	a0803040 <check_sleeping>
a08031bc:	00000000 	nop
a08031c0:	3c02a081 	lui	v0,0xa081
a08031c4:	8c42c788 	lw	v0,-14456(v0)
a08031c8:	10400009 	beqz	v0,a08031f0 <scheduler+0x70>
a08031cc:	00000000 	nop
a08031d0:	3c02a081 	lui	v0,0xa081
a08031d4:	8c42c784 	lw	v0,-14460(v0)
a08031d8:	14400005 	bnez	v0,a08031f0 <scheduler+0x70>
a08031dc:	00000000 	nop
a08031e0:	3c02a081 	lui	v0,0xa081
a08031e4:	8c43b498 	lw	v1,-19304(v0)
a08031e8:	24020002 	li	v0,2
a08031ec:	ac620150 	sw	v0,336(v1)
a08031f0:	3c02a081 	lui	v0,0xa081
a08031f4:	8c43c784 	lw	v1,-14460(v0)
a08031f8:	24020001 	li	v0,1
a08031fc:	14620009 	bne	v1,v0,a0803224 <scheduler+0xa4>
a0803200:	00000000 	nop
a0803204:	3c02a081 	lui	v0,0xa081
a0803208:	8c43b49c 	lw	v1,-19300(v0)
a080320c:	3c02a081 	lui	v0,0xa081
a0803210:	ac43b498 	sw	v1,-19304(v0)
a0803214:	3c02a081 	lui	v0,0xa081
a0803218:	ac40c784 	sw	zero,-14460(v0)
a080321c:	08200c8f 	j	a080323c <scheduler+0xbc>
a0803220:	00000000 	nop
a0803224:	3c02a081 	lui	v0,0xa081
a0803228:	8c42b498 	lw	v0,-19304(v0)
a080322c:	8c420144 	lw	v0,324(v0)
a0803230:	00401821 	move	v1,v0
a0803234:	3c02a081 	lui	v0,0xa081
a0803238:	ac43b498 	sw	v1,-19304(v0)
a080323c:	3c02a081 	lui	v0,0xa081
a0803240:	8c42b498 	lw	v0,-19304(v0)
a0803244:	14400033 	bnez	v0,a0803314 <scheduler+0x194>
a0803248:	00000000 	nop
a080324c:	3c02a081 	lui	v0,0xa081
a0803250:	8c42cd50 	lw	v0,-12976(v0)
a0803254:	00401821 	move	v1,v0
a0803258:	3c02a081 	lui	v0,0xa081
a080325c:	ac43b498 	sw	v1,-19304(v0)
a0803260:	3c02a081 	lui	v0,0xa081
a0803264:	8c42b3e0 	lw	v0,-19488(v0)
a0803268:	2443ffff 	addiu	v1,v0,-1
a080326c:	3c02a081 	lui	v0,0xa081
a0803270:	ac43b3e0 	sw	v1,-19488(v0)
a0803274:	3c02a081 	lui	v0,0xa081
a0803278:	8c42b3e0 	lw	v0,-19488(v0)
a080327c:	14400025 	bnez	v0,a0803314 <scheduler+0x194>
a0803280:	00000000 	nop
a0803284:	3c03a081 	lui	v1,0xa081
a0803288:	24020006 	li	v0,6
a080328c:	ac62b3e0 	sw	v0,-19488(v1)
a0803290:	0c200c3c 	jal	a08030f0 <get_bonus>
a0803294:	00000000 	nop
a0803298:	08200cc5 	j	a0803314 <scheduler+0x194>
a080329c:	00000000 	nop
a08032a0:	3c02a081 	lui	v0,0xa081
a08032a4:	8c42b498 	lw	v0,-19304(v0)
a08032a8:	8c420144 	lw	v0,324(v0)
a08032ac:	00401821 	move	v1,v0
a08032b0:	3c02a081 	lui	v0,0xa081
a08032b4:	ac43b498 	sw	v1,-19304(v0)
a08032b8:	3c02a081 	lui	v0,0xa081
a08032bc:	8c42b498 	lw	v0,-19304(v0)
a08032c0:	14400014 	bnez	v0,a0803314 <scheduler+0x194>
a08032c4:	00000000 	nop
a08032c8:	3c02a081 	lui	v0,0xa081
a08032cc:	8c42cd50 	lw	v0,-12976(v0)
a08032d0:	00401821 	move	v1,v0
a08032d4:	3c02a081 	lui	v0,0xa081
a08032d8:	ac43b498 	sw	v1,-19304(v0)
a08032dc:	3c02a081 	lui	v0,0xa081
a08032e0:	8c42b3e0 	lw	v0,-19488(v0)
a08032e4:	2443ffff 	addiu	v1,v0,-1
a08032e8:	3c02a081 	lui	v0,0xa081
a08032ec:	ac43b3e0 	sw	v1,-19488(v0)
a08032f0:	3c02a081 	lui	v0,0xa081
a08032f4:	8c42b3e0 	lw	v0,-19488(v0)
a08032f8:	14400006 	bnez	v0,a0803314 <scheduler+0x194>
a08032fc:	00000000 	nop
a0803300:	3c03a081 	lui	v1,0xa081
a0803304:	24020006 	li	v0,6
a0803308:	ac62b3e0 	sw	v0,-19488(v1)
a080330c:	0c200c3c 	jal	a08030f0 <get_bonus>
a0803310:	00000000 	nop
a0803314:	3c02a081 	lui	v0,0xa081
a0803318:	8c42b498 	lw	v0,-19304(v0)
a080331c:	8c430154 	lw	v1,340(v0)
a0803320:	3c02a081 	lui	v0,0xa081
a0803324:	8c42b498 	lw	v0,-19304(v0)
a0803328:	8c420158 	lw	v0,344(v0)
a080332c:	00621821 	addu	v1,v1,v0
a0803330:	3c02a081 	lui	v0,0xa081
a0803334:	8c42b3e0 	lw	v0,-19488(v0)
a0803338:	0062102a 	slt	v0,v1,v0
a080333c:	1440ffd8 	bnez	v0,a08032a0 <scheduler+0x120>
a0803340:	00000000 	nop
a0803344:	3c02a081 	lui	v0,0xa081
a0803348:	8c43b498 	lw	v1,-19304(v0)
a080334c:	24020001 	li	v0,1
a0803350:	ac620150 	sw	v0,336(v1)
a0803354:	0c200300 	jal	a0800c00 <get_entryhi>
a0803358:	00000000 	nop
a080335c:	afc20010 	sw	v0,16(s8)
a0803360:	8fc30010 	lw	v1,16(s8)
a0803364:	2402ff00 	li	v0,-256
a0803368:	00621824 	and	v1,v1,v0
a080336c:	3c02a081 	lui	v0,0xa081
a0803370:	8c42b498 	lw	v0,-19304(v0)
a0803374:	8c420148 	lw	v0,328(v0)
a0803378:	304200ff 	andi	v0,v0,0xff
a080337c:	00621025 	or	v0,v1,v0
a0803380:	afc20010 	sw	v0,16(s8)
a0803384:	8fc40010 	lw	a0,16(s8)
a0803388:	0c2002f8 	jal	a0800be0 <set_entryhi>
a080338c:	00000000 	nop
a0803390:	3c03a081 	lui	v1,0xa081
a0803394:	24020001 	li	v0,1
a0803398:	ac62c788 	sw	v0,-14456(v1)
a080339c:	3c02a081 	lui	v0,0xa081
a08033a0:	8c42b498 	lw	v0,-19304(v0)
a08033a4:	8c430164 	lw	v1,356(v0)
a08033a8:	3c02a081 	lui	v0,0xa081
a08033ac:	ac43b490 	sw	v1,-19312(v0)
a08033b0:	3c02a081 	lui	v0,0xa081
a08033b4:	8c42b498 	lw	v0,-19304(v0)
a08033b8:	8c430168 	lw	v1,360(v0)
a08033bc:	3c02a081 	lui	v0,0xa081
a08033c0:	ac43b494 	sw	v1,-19308(v0)
a08033c4:	03c0e821 	move	sp,s8
a08033c8:	8fbf001c 	lw	ra,28(sp)
a08033cc:	8fbe0018 	lw	s8,24(sp)
a08033d0:	27bd0020 	addiu	sp,sp,32
a08033d4:	03e00008 	jr	ra
a08033d8:	00000000 	nop

a08033dc <do_sleep>:
a08033dc:	27bdffe8 	addiu	sp,sp,-24
a08033e0:	afbf0014 	sw	ra,20(sp)
a08033e4:	afbe0010 	sw	s8,16(sp)
a08033e8:	03a0f021 	move	s8,sp
a08033ec:	afc40018 	sw	a0,24(s8)
a08033f0:	3c02a081 	lui	v0,0xa081
a08033f4:	8c45b498 	lw	a1,-19304(v0)
a08033f8:	8fc40018 	lw	a0,24(s8)
a08033fc:	00801021 	move	v0,a0
a0803400:	000218c0 	sll	v1,v0,0x3
a0803404:	00031140 	sll	v0,v1,0x5
a0803408:	00431023 	subu	v0,v0,v1
a080340c:	00021980 	sll	v1,v0,0x6
a0803410:	00621823 	subu	v1,v1,v0
a0803414:	00641821 	addu	v1,v1,a0
a0803418:	00031100 	sll	v0,v1,0x4
a080341c:	00431023 	subu	v0,v0,v1
a0803420:	00021180 	sll	v0,v0,0x6
a0803424:	00401821 	move	v1,v0
a0803428:	3c026fd9 	lui	v0,0x6fd9
a080342c:	34421d85 	ori	v0,v0,0x1d85
a0803430:	00620019 	multu	v1,v0
a0803434:	00001010 	mfhi	v0
a0803438:	00021402 	srl	v0,v0,0x10
a080343c:	aca20160 	sw	v0,352(a1)
a0803440:	3c02a081 	lui	v0,0xa081
a0803444:	8c42b498 	lw	v0,-19304(v0)
a0803448:	ac40015c 	sw	zero,348(v0)
a080344c:	3c02a081 	lui	v0,0xa081
a0803450:	8c42b498 	lw	v0,-19304(v0)
a0803454:	ac400150 	sw	zero,336(v0)
a0803458:	3c02a081 	lui	v0,0xa081
a080345c:	2444cd60 	addiu	a0,v0,-12960
a0803460:	0c200d22 	jal	a0803488 <do_block>
a0803464:	00000000 	nop
a0803468:	0c2000b9 	jal	a08002e4 <do_scheduler>
a080346c:	00000000 	nop
a0803470:	03c0e821 	move	sp,s8
a0803474:	8fbf0014 	lw	ra,20(sp)
a0803478:	8fbe0010 	lw	s8,16(sp)
a080347c:	27bd0018 	addiu	sp,sp,24
a0803480:	03e00008 	jr	ra
a0803484:	00000000 	nop

a0803488 <do_block>:
a0803488:	27bdffe8 	addiu	sp,sp,-24
a080348c:	afbf0014 	sw	ra,20(sp)
a0803490:	afbe0010 	sw	s8,16(sp)
a0803494:	03a0f021 	move	s8,sp
a0803498:	afc40018 	sw	a0,24(s8)
a080349c:	3c02a081 	lui	v0,0xa081
a08034a0:	8c42b498 	lw	v0,-19304(v0)
a08034a4:	ac400150 	sw	zero,336(v0)
a08034a8:	3c02a081 	lui	v0,0xa081
a08034ac:	8c43b498 	lw	v1,-19304(v0)
a08034b0:	3c02a081 	lui	v0,0xa081
a08034b4:	2444cd50 	addiu	a0,v0,-12976
a08034b8:	00602821 	move	a1,v1
a08034bc:	0c20123a 	jal	a08048e8 <queue_remove>
a08034c0:	00000000 	nop
a08034c4:	00401821 	move	v1,v0
a08034c8:	3c02a081 	lui	v0,0xa081
a08034cc:	ac43b49c 	sw	v1,-19300(v0)
a08034d0:	3c02a081 	lui	v0,0xa081
a08034d4:	8c42b498 	lw	v0,-19304(v0)
a08034d8:	8fc40018 	lw	a0,24(s8)
a08034dc:	00402821 	move	a1,v0
a08034e0:	0c2011eb 	jal	a08047ac <queue_push>
a08034e4:	00000000 	nop
a08034e8:	3c03a081 	lui	v1,0xa081
a08034ec:	24020001 	li	v0,1
a08034f0:	ac62c784 	sw	v0,-14460(v1)
a08034f4:	03c0e821 	move	sp,s8
a08034f8:	8fbf0014 	lw	ra,20(sp)
a08034fc:	8fbe0010 	lw	s8,16(sp)
a0803500:	27bd0018 	addiu	sp,sp,24
a0803504:	03e00008 	jr	ra
a0803508:	00000000 	nop

a080350c <do_unblock_one>:
a080350c:	27bdffe0 	addiu	sp,sp,-32
a0803510:	afbf001c 	sw	ra,28(sp)
a0803514:	afbe0018 	sw	s8,24(sp)
a0803518:	03a0f021 	move	s8,sp
a080351c:	afc40020 	sw	a0,32(s8)
a0803520:	8fc40020 	lw	a0,32(s8)
a0803524:	0c2011d8 	jal	a0804760 <queue_is_empty>
a0803528:	00000000 	nop
a080352c:	1440000d 	bnez	v0,a0803564 <do_unblock_one+0x58>
a0803530:	00000000 	nop
a0803534:	8fc40020 	lw	a0,32(s8)
a0803538:	0c201215 	jal	a0804854 <queue_dequeue>
a080353c:	00000000 	nop
a0803540:	afc20010 	sw	v0,16(s8)
a0803544:	8fc30010 	lw	v1,16(s8)
a0803548:	24020002 	li	v0,2
a080354c:	ac620150 	sw	v0,336(v1)
a0803550:	3c02a081 	lui	v0,0xa081
a0803554:	2444cd50 	addiu	a0,v0,-12976
a0803558:	8fc50010 	lw	a1,16(s8)
a080355c:	0c2011eb 	jal	a08047ac <queue_push>
a0803560:	00000000 	nop
a0803564:	03c0e821 	move	sp,s8
a0803568:	8fbf001c 	lw	ra,28(sp)
a080356c:	8fbe0018 	lw	s8,24(sp)
a0803570:	27bd0020 	addiu	sp,sp,32
a0803574:	03e00008 	jr	ra
a0803578:	00000000 	nop

a080357c <do_unblock_all>:
a080357c:	27bdffe0 	addiu	sp,sp,-32
a0803580:	afbf001c 	sw	ra,28(sp)
a0803584:	afbe0018 	sw	s8,24(sp)
a0803588:	03a0f021 	move	s8,sp
a080358c:	afc40020 	sw	a0,32(s8)
a0803590:	08200d72 	j	a08035c8 <do_unblock_all+0x4c>
a0803594:	00000000 	nop
a0803598:	8fc40020 	lw	a0,32(s8)
a080359c:	0c201215 	jal	a0804854 <queue_dequeue>
a08035a0:	00000000 	nop
a08035a4:	afc20010 	sw	v0,16(s8)
a08035a8:	8fc30010 	lw	v1,16(s8)
a08035ac:	24020002 	li	v0,2
a08035b0:	ac620150 	sw	v0,336(v1)
a08035b4:	3c02a081 	lui	v0,0xa081
a08035b8:	2444cd50 	addiu	a0,v0,-12976
a08035bc:	8fc50010 	lw	a1,16(s8)
a08035c0:	0c2011eb 	jal	a08047ac <queue_push>
a08035c4:	00000000 	nop
a08035c8:	8fc40020 	lw	a0,32(s8)
a08035cc:	0c2011d8 	jal	a0804760 <queue_is_empty>
a08035d0:	00000000 	nop
a08035d4:	1040fff0 	beqz	v0,a0803598 <do_unblock_all+0x1c>
a08035d8:	00000000 	nop
a08035dc:	03c0e821 	move	sp,s8
a08035e0:	8fbf001c 	lw	ra,28(sp)
a08035e4:	8fbe0018 	lw	s8,24(sp)
a08035e8:	27bd0020 	addiu	sp,sp,32
a08035ec:	03e00008 	jr	ra
a08035f0:	00000000 	nop

a08035f4 <do_ps>:
a08035f4:	27bdffd8 	addiu	sp,sp,-40
a08035f8:	afbf0024 	sw	ra,36(sp)
a08035fc:	afbe0020 	sw	s8,32(sp)
a0803600:	03a0f021 	move	s8,sp
a0803604:	3c02a081 	lui	v0,0xa081
a0803608:	2442cd88 	addiu	v0,v0,-12920
a080360c:	8c42016c 	lw	v0,364(v0)
a0803610:	24430001 	addiu	v1,v0,1
a0803614:	3c02a081 	lui	v0,0xa081
a0803618:	2442cd88 	addiu	v0,v0,-12920
a080361c:	ac43016c 	sw	v1,364(v0)
a0803620:	3c02a081 	lui	v0,0xa081
a0803624:	2442cd88 	addiu	v0,v0,-12920
a0803628:	8c42016c 	lw	v0,364(v0)
a080362c:	24040001 	li	a0,1
a0803630:	00402821 	move	a1,v0
a0803634:	0c200340 	jal	a0800d00 <vt100_move_cursor>
a0803638:	00000000 	nop
a080363c:	3c02a081 	lui	v0,0xa081
a0803640:	2444af60 	addiu	a0,v0,-20640
a0803644:	0c2018e1 	jal	a0806384 <printk>
a0803648:	00000000 	nop
a080364c:	afc00010 	sw	zero,16(s8)
a0803650:	afc00014 	sw	zero,20(s8)
a0803654:	08200e12 	j	a0803848 <do_ps+0x254>
a0803658:	00000000 	nop
a080365c:	8fc20014 	lw	v0,20(s8)
a0803660:	3c04a081 	lui	a0,0xa081
a0803664:	000211c0 	sll	v0,v0,0x7
a0803668:	00021880 	sll	v1,v0,0x2
a080366c:	00431021 	addu	v0,v0,v1
a0803670:	2483cd88 	addiu	v1,a0,-12920
a0803674:	00431021 	addu	v0,v0,v1
a0803678:	8c420150 	lw	v0,336(v0)
a080367c:	afc20018 	sw	v0,24(s8)
a0803680:	24020001 	li	v0,1
a0803684:	8fc30018 	lw	v1,24(s8)
a0803688:	1062002c 	beq	v1,v0,a080373c <do_ps+0x148>
a080368c:	00000000 	nop
a0803690:	8fc30018 	lw	v1,24(s8)
a0803694:	2c620001 	sltiu	v0,v1,1
a0803698:	14400007 	bnez	v0,a08036b8 <do_ps+0xc4>
a080369c:	00000000 	nop
a08036a0:	24020002 	li	v0,2
a08036a4:	8fc30018 	lw	v1,24(s8)
a08036a8:	10620045 	beq	v1,v0,a08037c0 <do_ps+0x1cc>
a08036ac:	00000000 	nop
a08036b0:	08200e0f 	j	a080383c <do_ps+0x248>
a08036b4:	00000000 	nop
a08036b8:	3c02a081 	lui	v0,0xa081
a08036bc:	2442cd88 	addiu	v0,v0,-12920
a08036c0:	8c42016c 	lw	v0,364(v0)
a08036c4:	24430001 	addiu	v1,v0,1
a08036c8:	3c02a081 	lui	v0,0xa081
a08036cc:	2442cd88 	addiu	v0,v0,-12920
a08036d0:	ac43016c 	sw	v1,364(v0)
a08036d4:	3c02a081 	lui	v0,0xa081
a08036d8:	2442cd88 	addiu	v0,v0,-12920
a08036dc:	8c42016c 	lw	v0,364(v0)
a08036e0:	24040001 	li	a0,1
a08036e4:	00402821 	move	a1,v0
a08036e8:	0c200340 	jal	a0800d00 <vt100_move_cursor>
a08036ec:	00000000 	nop
a08036f0:	8fc50010 	lw	a1,16(s8)
a08036f4:	8fc20010 	lw	v0,16(s8)
a08036f8:	24420001 	addiu	v0,v0,1
a08036fc:	afc20010 	sw	v0,16(s8)
a0803700:	8fc20014 	lw	v0,20(s8)
a0803704:	3c04a081 	lui	a0,0xa081
a0803708:	000211c0 	sll	v0,v0,0x7
a080370c:	00021880 	sll	v1,v0,0x2
a0803710:	00431021 	addu	v0,v0,v1
a0803714:	2483cd88 	addiu	v1,a0,-12920
a0803718:	00431021 	addu	v0,v0,v1
a080371c:	8c430148 	lw	v1,328(v0)
a0803720:	3c02a081 	lui	v0,0xa081
a0803724:	2444af70 	addiu	a0,v0,-20624
a0803728:	00603021 	move	a2,v1
a080372c:	0c2018e1 	jal	a0806384 <printk>
a0803730:	00000000 	nop
a0803734:	08200e0f 	j	a080383c <do_ps+0x248>
a0803738:	00000000 	nop
a080373c:	3c02a081 	lui	v0,0xa081
a0803740:	2442cd88 	addiu	v0,v0,-12920
a0803744:	8c42016c 	lw	v0,364(v0)
a0803748:	24430001 	addiu	v1,v0,1
a080374c:	3c02a081 	lui	v0,0xa081
a0803750:	2442cd88 	addiu	v0,v0,-12920
a0803754:	ac43016c 	sw	v1,364(v0)
a0803758:	3c02a081 	lui	v0,0xa081
a080375c:	2442cd88 	addiu	v0,v0,-12920
a0803760:	8c42016c 	lw	v0,364(v0)
a0803764:	24040001 	li	a0,1
a0803768:	00402821 	move	a1,v0
a080376c:	0c200340 	jal	a0800d00 <vt100_move_cursor>
a0803770:	00000000 	nop
a0803774:	8fc50010 	lw	a1,16(s8)
a0803778:	8fc20010 	lw	v0,16(s8)
a080377c:	24420001 	addiu	v0,v0,1
a0803780:	afc20010 	sw	v0,16(s8)
a0803784:	8fc20014 	lw	v0,20(s8)
a0803788:	3c04a081 	lui	a0,0xa081
a080378c:	000211c0 	sll	v0,v0,0x7
a0803790:	00021880 	sll	v1,v0,0x2
a0803794:	00431021 	addu	v0,v0,v1
a0803798:	2483cd88 	addiu	v1,a0,-12920
a080379c:	00431021 	addu	v0,v0,v1
a08037a0:	8c430148 	lw	v1,328(v0)
a08037a4:	3c02a081 	lui	v0,0xa081
a08037a8:	2444af90 	addiu	a0,v0,-20592
a08037ac:	00603021 	move	a2,v1
a08037b0:	0c2018e1 	jal	a0806384 <printk>
a08037b4:	00000000 	nop
a08037b8:	08200e0f 	j	a080383c <do_ps+0x248>
a08037bc:	00000000 	nop
a08037c0:	3c02a081 	lui	v0,0xa081
a08037c4:	2442cd88 	addiu	v0,v0,-12920
a08037c8:	8c42016c 	lw	v0,364(v0)
a08037cc:	24430001 	addiu	v1,v0,1
a08037d0:	3c02a081 	lui	v0,0xa081
a08037d4:	2442cd88 	addiu	v0,v0,-12920
a08037d8:	ac43016c 	sw	v1,364(v0)
a08037dc:	3c02a081 	lui	v0,0xa081
a08037e0:	2442cd88 	addiu	v0,v0,-12920
a08037e4:	8c42016c 	lw	v0,364(v0)
a08037e8:	24040001 	li	a0,1
a08037ec:	00402821 	move	a1,v0
a08037f0:	0c200340 	jal	a0800d00 <vt100_move_cursor>
a08037f4:	00000000 	nop
a08037f8:	8fc50010 	lw	a1,16(s8)
a08037fc:	8fc20010 	lw	v0,16(s8)
a0803800:	24420001 	addiu	v0,v0,1
a0803804:	afc20010 	sw	v0,16(s8)
a0803808:	8fc20014 	lw	v0,20(s8)
a080380c:	3c04a081 	lui	a0,0xa081
a0803810:	000211c0 	sll	v0,v0,0x7
a0803814:	00021880 	sll	v1,v0,0x2
a0803818:	00431021 	addu	v0,v0,v1
a080381c:	2483cd88 	addiu	v1,a0,-12920
a0803820:	00431021 	addu	v0,v0,v1
a0803824:	8c430148 	lw	v1,328(v0)
a0803828:	3c02a081 	lui	v0,0xa081
a080382c:	2444afb0 	addiu	a0,v0,-20560
a0803830:	00603021 	move	a2,v1
a0803834:	0c2018e1 	jal	a0806384 <printk>
a0803838:	00000000 	nop
a080383c:	8fc20014 	lw	v0,20(s8)
a0803840:	24420001 	addiu	v0,v0,1
a0803844:	afc20014 	sw	v0,20(s8)
a0803848:	8fc20014 	lw	v0,20(s8)
a080384c:	28420010 	slti	v0,v0,16
a0803850:	1440ff82 	bnez	v0,a080365c <do_ps+0x68>
a0803854:	00000000 	nop
a0803858:	03c0e821 	move	sp,s8
a080385c:	8fbf0024 	lw	ra,36(sp)
a0803860:	8fbe0020 	lw	s8,32(sp)
a0803864:	27bd0028 	addiu	sp,sp,40
a0803868:	03e00008 	jr	ra
a080386c:	00000000 	nop

a0803870 <init_one_pcb>:
a0803870:	27bdffc8 	addiu	sp,sp,-56
a0803874:	afbf0034 	sw	ra,52(sp)
a0803878:	afbe0030 	sw	s8,48(sp)
a080387c:	03a0f021 	move	s8,sp
a0803880:	afc00028 	sw	zero,40(s8)
a0803884:	24020001 	li	v0,1
a0803888:	afc2002c 	sw	v0,44(s8)
a080388c:	08200f98 	j	a0803e60 <init_one_pcb+0x5f0>
a0803890:	00000000 	nop
a0803894:	8fc2002c 	lw	v0,44(s8)
a0803898:	3c04a081 	lui	a0,0xa081
a080389c:	000211c0 	sll	v0,v0,0x7
a08038a0:	00021880 	sll	v1,v0,0x2
a08038a4:	00431021 	addu	v0,v0,v1
a08038a8:	2483cd88 	addiu	v1,a0,-12920
a08038ac:	00431021 	addu	v0,v0,v1
a08038b0:	8c430150 	lw	v1,336(v0)
a08038b4:	24020003 	li	v0,3
a08038b8:	14620166 	bne	v1,v0,a0803e54 <init_one_pcb+0x5e4>
a08038bc:	00000000 	nop
a08038c0:	24020001 	li	v0,1
a08038c4:	afc20028 	sw	v0,40(s8)
a08038c8:	afc00024 	sw	zero,36(s8)
a08038cc:	08200e4f 	j	a080393c <init_one_pcb+0xcc>
a08038d0:	00000000 	nop
a08038d4:	8fc2002c 	lw	v0,44(s8)
a08038d8:	8fc40024 	lw	a0,36(s8)
a08038dc:	3c05a081 	lui	a1,0xa081
a08038e0:	00021140 	sll	v0,v0,0x5
a08038e4:	00021880 	sll	v1,v0,0x2
a08038e8:	00431021 	addu	v0,v0,v1
a08038ec:	00441021 	addu	v0,v0,a0
a08038f0:	00021880 	sll	v1,v0,0x2
a08038f4:	24a2cd88 	addiu	v0,a1,-12920
a08038f8:	00621021 	addu	v0,v1,v0
a08038fc:	ac400000 	sw	zero,0(v0)
a0803900:	8fc2002c 	lw	v0,44(s8)
a0803904:	8fc40024 	lw	a0,36(s8)
a0803908:	3c05a081 	lui	a1,0xa081
a080390c:	00021140 	sll	v0,v0,0x5
a0803910:	00021880 	sll	v1,v0,0x2
a0803914:	00431021 	addu	v0,v0,v1
a0803918:	00441021 	addu	v0,v0,a0
a080391c:	24420026 	addiu	v0,v0,38
a0803920:	24a3cd88 	addiu	v1,a1,-12920
a0803924:	00021080 	sll	v0,v0,0x2
a0803928:	00621021 	addu	v0,v1,v0
a080392c:	ac400004 	sw	zero,4(v0)
a0803930:	8fc20024 	lw	v0,36(s8)
a0803934:	24420001 	addiu	v0,v0,1
a0803938:	afc20024 	sw	v0,36(s8)
a080393c:	8fc20024 	lw	v0,36(s8)
a0803940:	2842001f 	slti	v0,v0,31
a0803944:	1440ffe3 	bnez	v0,a08038d4 <init_one_pcb+0x64>
a0803948:	00000000 	nop
a080394c:	8fc5002c 	lw	a1,44(s8)
a0803950:	8fc3002c 	lw	v1,44(s8)
a0803954:	3c020005 	lui	v0,0x5
a0803958:	34420780 	ori	v0,v0,0x780
a080395c:	00621021 	addu	v0,v1,v0
a0803960:	00023340 	sll	a2,v0,0xd
a0803964:	3c04a081 	lui	a0,0xa081
a0803968:	00a01021 	move	v0,a1
a080396c:	000211c0 	sll	v0,v0,0x7
a0803970:	00021880 	sll	v1,v0,0x2
a0803974:	00431021 	addu	v0,v0,v1
a0803978:	2483cd88 	addiu	v1,a0,-12920
a080397c:	00431021 	addu	v0,v0,v1
a0803980:	ac460138 	sw	a2,312(v0)
a0803984:	8fc6002c 	lw	a2,44(s8)
a0803988:	8fc2002c 	lw	v0,44(s8)
a080398c:	3c04a081 	lui	a0,0xa081
a0803990:	000211c0 	sll	v0,v0,0x7
a0803994:	00021880 	sll	v1,v0,0x2
a0803998:	00431021 	addu	v0,v0,v1
a080399c:	2483cd88 	addiu	v1,a0,-12920
a08039a0:	00431021 	addu	v0,v0,v1
a08039a4:	8c450138 	lw	a1,312(v0)
a08039a8:	3c04a081 	lui	a0,0xa081
a08039ac:	00c01021 	move	v0,a2
a08039b0:	000211c0 	sll	v0,v0,0x7
a08039b4:	00021880 	sll	v1,v0,0x2
a08039b8:	00431021 	addu	v0,v0,v1
a08039bc:	2483cd88 	addiu	v1,a0,-12920
a08039c0:	00431021 	addu	v0,v0,v1
a08039c4:	ac450074 	sw	a1,116(v0)
a08039c8:	8fc3002c 	lw	v1,44(s8)
a08039cc:	3c02a080 	lui	v0,0xa080
a08039d0:	24420568 	addiu	v0,v0,1384
a08039d4:	00402821 	move	a1,v0
a08039d8:	3c04a081 	lui	a0,0xa081
a08039dc:	00601021 	move	v0,v1
a08039e0:	000211c0 	sll	v0,v0,0x7
a08039e4:	00021880 	sll	v1,v0,0x2
a08039e8:	00431021 	addu	v0,v0,v1
a08039ec:	2483cd88 	addiu	v1,a0,-12920
a08039f0:	00431021 	addu	v0,v0,v1
a08039f4:	ac45007c 	sw	a1,124(v0)
a08039f8:	8fc3002c 	lw	v1,44(s8)
a08039fc:	3c04a081 	lui	a0,0xa081
a0803a00:	00601021 	move	v0,v1
a0803a04:	00021080 	sll	v0,v0,0x2
a0803a08:	00431021 	addu	v0,v0,v1
a0803a0c:	24420001 	addiu	v0,v0,1
a0803a10:	000219c0 	sll	v1,v0,0x7
a0803a14:	2482cd88 	addiu	v0,a0,-12920
a0803a18:	00621821 	addu	v1,v1,v0
a0803a1c:	3c021000 	lui	v0,0x1000
a0803a20:	34428002 	ori	v0,v0,0x8002
a0803a24:	ac620000 	sw	v0,0(v1)
a0803a28:	8fc3002c 	lw	v1,44(s8)
a0803a2c:	3c04a081 	lui	a0,0xa081
a0803a30:	00601021 	move	v0,v1
a0803a34:	00021080 	sll	v0,v0,0x2
a0803a38:	00431021 	addu	v0,v0,v1
a0803a3c:	24420001 	addiu	v0,v0,1
a0803a40:	2483cd88 	addiu	v1,a0,-12920
a0803a44:	000211c0 	sll	v0,v0,0x7
a0803a48:	00621021 	addu	v0,v1,v0
a0803a4c:	ac400004 	sw	zero,4(v0)
a0803a50:	8fc2002c 	lw	v0,44(s8)
a0803a54:	3c04a081 	lui	a0,0xa081
a0803a58:	000211c0 	sll	v0,v0,0x7
a0803a5c:	00021880 	sll	v1,v0,0x2
a0803a60:	00431021 	addu	v0,v0,v1
a0803a64:	2483cd88 	addiu	v1,a0,-12920
a0803a68:	00431021 	addu	v0,v0,v1
a0803a6c:	ac400088 	sw	zero,136(v0)
a0803a70:	8fc3002c 	lw	v1,44(s8)
a0803a74:	3c02a081 	lui	v0,0xa081
a0803a78:	2444cd88 	addiu	a0,v0,-12920
a0803a7c:	00601021 	move	v0,v1
a0803a80:	000219c0 	sll	v1,v0,0x7
a0803a84:	00031080 	sll	v0,v1,0x2
a0803a88:	00621021 	addu	v0,v1,v0
a0803a8c:	00821021 	addu	v0,a0,v0
a0803a90:	ac40008c 	sw	zero,140(v0)
a0803a94:	8fc2002c 	lw	v0,44(s8)
a0803a98:	3c04a081 	lui	a0,0xa081
a0803a9c:	000211c0 	sll	v0,v0,0x7
a0803aa0:	00021880 	sll	v1,v0,0x2
a0803aa4:	00431021 	addu	v0,v0,v1
a0803aa8:	2483cd88 	addiu	v1,a0,-12920
a0803aac:	00431021 	addu	v0,v0,v1
a0803ab0:	ac400090 	sw	zero,144(v0)
a0803ab4:	8fc3002c 	lw	v1,44(s8)
a0803ab8:	3c02a081 	lui	v0,0xa081
a0803abc:	2444cd88 	addiu	a0,v0,-12920
a0803ac0:	00601021 	move	v0,v1
a0803ac4:	000219c0 	sll	v1,v0,0x7
a0803ac8:	00031080 	sll	v0,v1,0x2
a0803acc:	00621021 	addu	v0,v1,v0
a0803ad0:	00821021 	addu	v0,a0,v0
a0803ad4:	ac400094 	sw	zero,148(v0)
a0803ad8:	8fc5002c 	lw	a1,44(s8)
a0803adc:	8fc2002c 	lw	v0,44(s8)
a0803ae0:	00021b40 	sll	v1,v0,0xd
a0803ae4:	3c021fff 	lui	v0,0x1fff
a0803ae8:	3442fffc 	ori	v0,v0,0xfffc
a0803aec:	00621021 	addu	v0,v1,v0
a0803af0:	00403021 	move	a2,v0
a0803af4:	3c02a081 	lui	v0,0xa081
a0803af8:	2444cd88 	addiu	a0,v0,-12920
a0803afc:	00a01021 	move	v0,a1
a0803b00:	000219c0 	sll	v1,v0,0x7
a0803b04:	00031080 	sll	v0,v1,0x2
a0803b08:	00621021 	addu	v0,v1,v0
a0803b0c:	00821021 	addu	v0,a0,v0
a0803b10:	ac46013c 	sw	a2,316(v0)
a0803b14:	8fc6002c 	lw	a2,44(s8)
a0803b18:	8fc3002c 	lw	v1,44(s8)
a0803b1c:	3c02a081 	lui	v0,0xa081
a0803b20:	2444cd88 	addiu	a0,v0,-12920
a0803b24:	00601021 	move	v0,v1
a0803b28:	000219c0 	sll	v1,v0,0x7
a0803b2c:	00031080 	sll	v0,v1,0x2
a0803b30:	00621021 	addu	v0,v1,v0
a0803b34:	00821021 	addu	v0,a0,v0
a0803b38:	8c45013c 	lw	a1,316(v0)
a0803b3c:	3c02a081 	lui	v0,0xa081
a0803b40:	2444cd88 	addiu	a0,v0,-12920
a0803b44:	00c01021 	move	v0,a2
a0803b48:	000219c0 	sll	v1,v0,0x7
a0803b4c:	00031080 	sll	v0,v1,0x2
a0803b50:	00621021 	addu	v0,v1,v0
a0803b54:	00821021 	addu	v0,a0,v0
a0803b58:	ac450110 	sw	a1,272(v0)
a0803b5c:	8fc3002c 	lw	v1,44(s8)
a0803b60:	3c02a081 	lui	v0,0xa081
a0803b64:	2444cd88 	addiu	a0,v0,-12920
a0803b68:	00601021 	move	v0,v1
a0803b6c:	000219c0 	sll	v1,v0,0x7
a0803b70:	00031080 	sll	v0,v1,0x2
a0803b74:	00621021 	addu	v0,v1,v0
a0803b78:	00821021 	addu	v0,a0,v0
a0803b7c:	ac400118 	sw	zero,280(v0)
a0803b80:	8fc3002c 	lw	v1,44(s8)
a0803b84:	3c02a081 	lui	v0,0xa081
a0803b88:	2444cd88 	addiu	a0,v0,-12920
a0803b8c:	00601021 	move	v0,v1
a0803b90:	000219c0 	sll	v1,v0,0x7
a0803b94:	00031080 	sll	v0,v1,0x2
a0803b98:	00621021 	addu	v0,v1,v0
a0803b9c:	00821021 	addu	v0,a0,v0
a0803ba0:	3c031000 	lui	v1,0x1000
a0803ba4:	34638003 	ori	v1,v1,0x8003
a0803ba8:	ac43011c 	sw	v1,284(v0)
a0803bac:	8fc3002c 	lw	v1,44(s8)
a0803bb0:	3c02a081 	lui	v0,0xa081
a0803bb4:	2444cd88 	addiu	a0,v0,-12920
a0803bb8:	00601021 	move	v0,v1
a0803bbc:	000219c0 	sll	v1,v0,0x7
a0803bc0:	00031080 	sll	v0,v1,0x2
a0803bc4:	00621021 	addu	v0,v1,v0
a0803bc8:	00821021 	addu	v0,a0,v0
a0803bcc:	ac400120 	sw	zero,288(v0)
a0803bd0:	8fc3002c 	lw	v1,44(s8)
a0803bd4:	3c02a081 	lui	v0,0xa081
a0803bd8:	2444cd88 	addiu	a0,v0,-12920
a0803bdc:	00601021 	move	v0,v1
a0803be0:	000219c0 	sll	v1,v0,0x7
a0803be4:	00031080 	sll	v0,v1,0x2
a0803be8:	00621021 	addu	v0,v1,v0
a0803bec:	00821021 	addu	v0,a0,v0
a0803bf0:	ac400124 	sw	zero,292(v0)
a0803bf4:	8fc3002c 	lw	v1,44(s8)
a0803bf8:	3c02a081 	lui	v0,0xa081
a0803bfc:	2444cd88 	addiu	a0,v0,-12920
a0803c00:	00601021 	move	v0,v1
a0803c04:	000219c0 	sll	v1,v0,0x7
a0803c08:	00031080 	sll	v0,v1,0x2
a0803c0c:	00621021 	addu	v0,v1,v0
a0803c10:	00821021 	addu	v0,a0,v0
a0803c14:	ac400128 	sw	zero,296(v0)
a0803c18:	8fc3002c 	lw	v1,44(s8)
a0803c1c:	3c02a081 	lui	v0,0xa081
a0803c20:	2444cd88 	addiu	a0,v0,-12920
a0803c24:	00601021 	move	v0,v1
a0803c28:	000219c0 	sll	v1,v0,0x7
a0803c2c:	00031080 	sll	v0,v1,0x2
a0803c30:	00621021 	addu	v0,v1,v0
a0803c34:	00821021 	addu	v0,a0,v0
a0803c38:	ac40012c 	sw	zero,300(v0)
a0803c3c:	24020040 	li	v0,64
a0803c40:	afc20020 	sw	v0,32(s8)
a0803c44:	8fc2002c 	lw	v0,44(s8)
a0803c48:	2442ffff 	addiu	v0,v0,-1
a0803c4c:	afc2001c 	sw	v0,28(s8)
a0803c50:	8fc30020 	lw	v1,32(s8)
a0803c54:	3c02507f 	lui	v0,0x507f
a0803c58:	3442e800 	ori	v0,v0,0xe800
a0803c5c:	00621021 	addu	v0,v1,v0
a0803c60:	00021040 	sll	v0,v0,0x1
a0803c64:	94420000 	lhu	v0,0(v0)
a0803c68:	a7c20018 	sh	v0,24(s8)
a0803c6c:	97c30018 	lhu	v1,24(s8)
a0803c70:	3c020005 	lui	v0,0x5
a0803c74:	00621021 	addu	v0,v1,v0
a0803c78:	00021a80 	sll	v1,v0,0xa
a0803c7c:	8fc2001c 	lw	v0,28(s8)
a0803c80:	00621021 	addu	v0,v1,v0
a0803c84:	000210c0 	sll	v0,v0,0x3
a0803c88:	afc20014 	sw	v0,20(s8)
a0803c8c:	8fc20020 	lw	v0,32(s8)
a0803c90:	00021dc0 	sll	v1,v0,0x17
a0803c94:	8fc2001c 	lw	v0,28(s8)
a0803c98:	00021340 	sll	v0,v0,0xd
a0803c9c:	00621825 	or	v1,v1,v0
a0803ca0:	3c02a081 	lui	v0,0xa081
a0803ca4:	8c42c780 	lw	v0,-14464(v0)
a0803ca8:	24420001 	addiu	v0,v0,1
a0803cac:	304200ff 	andi	v0,v0,0xff
a0803cb0:	00621825 	or	v1,v1,v0
a0803cb4:	8fc20014 	lw	v0,20(s8)
a0803cb8:	ac430000 	sw	v1,0(v0)
a0803cbc:	0c200ad4 	jal	a0802b50 <alloc_page>
a0803cc0:	00000000 	nop
a0803cc4:	afc20010 	sw	v0,16(s8)
a0803cc8:	8fc20010 	lw	v0,16(s8)
a0803ccc:	000211c0 	sll	v0,v0,0x7
a0803cd0:	34430016 	ori	v1,v0,0x16
a0803cd4:	8fc20014 	lw	v0,20(s8)
a0803cd8:	ac430004 	sw	v1,4(v0)
a0803cdc:	8fc3002c 	lw	v1,44(s8)
a0803ce0:	3c02a081 	lui	v0,0xa081
a0803ce4:	8c45cd70 	lw	a1,-12944(v0)
a0803ce8:	3c02a081 	lui	v0,0xa081
a0803cec:	2444cd88 	addiu	a0,v0,-12920
a0803cf0:	00601021 	move	v0,v1
a0803cf4:	000219c0 	sll	v1,v0,0x7
a0803cf8:	00031080 	sll	v0,v1,0x2
a0803cfc:	00621021 	addu	v0,v1,v0
a0803d00:	00821021 	addu	v0,a0,v0
a0803d04:	ac4500ac 	sw	a1,172(v0)
a0803d08:	8fc2002c 	lw	v0,44(s8)
a0803d0c:	3c04a081 	lui	a0,0xa081
a0803d10:	000211c0 	sll	v0,v0,0x7
a0803d14:	00021880 	sll	v1,v0,0x2
a0803d18:	00431021 	addu	v0,v0,v1
a0803d1c:	2483cd88 	addiu	v1,a0,-12920
a0803d20:	00431021 	addu	v0,v0,v1
a0803d24:	ac400158 	sw	zero,344(v0)
a0803d28:	8fc2002c 	lw	v0,44(s8)
a0803d2c:	3c04a081 	lui	a0,0xa081
a0803d30:	000211c0 	sll	v0,v0,0x7
a0803d34:	00021880 	sll	v1,v0,0x2
a0803d38:	00431021 	addu	v0,v0,v1
a0803d3c:	2483cd88 	addiu	v1,a0,-12920
a0803d40:	00431821 	addu	v1,v0,v1
a0803d44:	24020002 	li	v0,2
a0803d48:	ac620150 	sw	v0,336(v1)
a0803d4c:	8fc3002c 	lw	v1,44(s8)
a0803d50:	3c02a081 	lui	v0,0xa081
a0803d54:	2444cd88 	addiu	a0,v0,-12920
a0803d58:	00601021 	move	v0,v1
a0803d5c:	000219c0 	sll	v1,v0,0x7
a0803d60:	00031080 	sll	v0,v1,0x2
a0803d64:	00621021 	addu	v0,v1,v0
a0803d68:	00821021 	addu	v0,a0,v0
a0803d6c:	ac400224 	sw	zero,548(v0)
a0803d70:	8fc2002c 	lw	v0,44(s8)
a0803d74:	3c04a081 	lui	a0,0xa081
a0803d78:	000211c0 	sll	v0,v0,0x7
a0803d7c:	00021880 	sll	v1,v0,0x2
a0803d80:	00431021 	addu	v0,v0,v1
a0803d84:	2483cd88 	addiu	v1,a0,-12920
a0803d88:	00431021 	addu	v0,v0,v1
a0803d8c:	ac400228 	sw	zero,552(v0)
a0803d90:	afc00024 	sw	zero,36(s8)
a0803d94:	08200f8f 	j	a0803e3c <init_one_pcb+0x5cc>
a0803d98:	00000000 	nop
a0803d9c:	8fc2002c 	lw	v0,44(s8)
a0803da0:	8fc40024 	lw	a0,36(s8)
a0803da4:	3c05a081 	lui	a1,0xa081
a0803da8:	00021140 	sll	v0,v0,0x5
a0803dac:	00021880 	sll	v1,v0,0x2
a0803db0:	00431021 	addu	v0,v0,v1
a0803db4:	00441021 	addu	v0,v0,a0
a0803db8:	24420060 	addiu	v0,v0,96
a0803dbc:	24a3cd88 	addiu	v1,a1,-12920
a0803dc0:	00021080 	sll	v0,v0,0x2
a0803dc4:	00621021 	addu	v0,v1,v0
a0803dc8:	ac400004 	sw	zero,4(v0)
a0803dcc:	8fc2002c 	lw	v0,44(s8)
a0803dd0:	8fc40024 	lw	a0,36(s8)
a0803dd4:	3c05a081 	lui	a1,0xa081
a0803dd8:	00021140 	sll	v0,v0,0x5
a0803ddc:	00021880 	sll	v1,v0,0x2
a0803de0:	00431021 	addu	v0,v0,v1
a0803de4:	00441021 	addu	v0,v0,a0
a0803de8:	24420074 	addiu	v0,v0,116
a0803dec:	24a3cd88 	addiu	v1,a1,-12920
a0803df0:	00021080 	sll	v0,v0,0x2
a0803df4:	00621021 	addu	v0,v1,v0
a0803df8:	ac400004 	sw	zero,4(v0)
a0803dfc:	8fc2002c 	lw	v0,44(s8)
a0803e00:	8fc40024 	lw	a0,36(s8)
a0803e04:	3c05a081 	lui	a1,0xa081
a0803e08:	00021140 	sll	v0,v0,0x5
a0803e0c:	00021880 	sll	v1,v0,0x2
a0803e10:	00431021 	addu	v0,v0,v1
a0803e14:	00441021 	addu	v0,v0,a0
a0803e18:	2442008a 	addiu	v0,v0,138
a0803e1c:	24a3cd88 	addiu	v1,a1,-12920
a0803e20:	00021080 	sll	v0,v0,0x2
a0803e24:	00621021 	addu	v0,v1,v0
a0803e28:	2403ffff 	li	v1,-1
a0803e2c:	ac430004 	sw	v1,4(v0)
a0803e30:	8fc20024 	lw	v0,36(s8)
a0803e34:	24420001 	addiu	v0,v0,1
a0803e38:	afc20024 	sw	v0,36(s8)
a0803e3c:	8fc20024 	lw	v0,36(s8)
a0803e40:	28420014 	slti	v0,v0,20
a0803e44:	1440ffd5 	bnez	v0,a0803d9c <init_one_pcb+0x52c>
a0803e48:	00000000 	nop
a0803e4c:	08200f9c 	j	a0803e70 <init_one_pcb+0x600>
a0803e50:	00000000 	nop
a0803e54:	8fc2002c 	lw	v0,44(s8)
a0803e58:	24420001 	addiu	v0,v0,1
a0803e5c:	afc2002c 	sw	v0,44(s8)
a0803e60:	8fc2002c 	lw	v0,44(s8)
a0803e64:	28420010 	slti	v0,v0,16
a0803e68:	1440fe8a 	bnez	v0,a0803894 <init_one_pcb+0x24>
a0803e6c:	00000000 	nop
a0803e70:	8fc30028 	lw	v1,40(s8)
a0803e74:	8fc2002c 	lw	v0,44(s8)
a0803e78:	00620018 	mult	v1,v0
a0803e7c:	00001012 	mflo	v0
a0803e80:	03c0e821 	move	sp,s8
a0803e84:	8fbf0034 	lw	ra,52(sp)
a0803e88:	8fbe0030 	lw	s8,48(sp)
a0803e8c:	27bd0038 	addiu	sp,sp,56
a0803e90:	03e00008 	jr	ra
a0803e94:	00000000 	nop

a0803e98 <do_spawn>:
a0803e98:	27bdffe0 	addiu	sp,sp,-32
a0803e9c:	afbf001c 	sw	ra,28(sp)
a0803ea0:	afbe0018 	sw	s8,24(sp)
a0803ea4:	03a0f021 	move	s8,sp
a0803ea8:	afc40020 	sw	a0,32(s8)
a0803eac:	0c200e1c 	jal	a0803870 <init_one_pcb>
a0803eb0:	00000000 	nop
a0803eb4:	afc20010 	sw	v0,16(s8)
a0803eb8:	8fc20010 	lw	v0,16(s8)
a0803ebc:	1040003e 	beqz	v0,a0803fb8 <do_spawn+0x120>
a0803ec0:	00000000 	nop
a0803ec4:	8fc30010 	lw	v1,16(s8)
a0803ec8:	8fc20020 	lw	v0,32(s8)
a0803ecc:	8c450004 	lw	a1,4(v0)
a0803ed0:	3c02a081 	lui	v0,0xa081
a0803ed4:	2444cd88 	addiu	a0,v0,-12920
a0803ed8:	00601021 	move	v0,v1
a0803edc:	000219c0 	sll	v1,v0,0x7
a0803ee0:	00031080 	sll	v0,v1,0x2
a0803ee4:	00621021 	addu	v0,v1,v0
a0803ee8:	00821021 	addu	v0,a0,v0
a0803eec:	ac450130 	sw	a1,304(v0)
a0803ef0:	8fc30010 	lw	v1,16(s8)
a0803ef4:	8fc20020 	lw	v0,32(s8)
a0803ef8:	8c450008 	lw	a1,8(v0)
a0803efc:	3c02a081 	lui	v0,0xa081
a0803f00:	2444cd88 	addiu	a0,v0,-12920
a0803f04:	00601021 	move	v0,v1
a0803f08:	000219c0 	sll	v1,v0,0x7
a0803f0c:	00031080 	sll	v0,v1,0x2
a0803f10:	00621021 	addu	v0,v1,v0
a0803f14:	00821021 	addu	v0,a0,v0
a0803f18:	ac45014c 	sw	a1,332(v0)
a0803f1c:	8fc30010 	lw	v1,16(s8)
a0803f20:	8fc20020 	lw	v0,32(s8)
a0803f24:	8c45000c 	lw	a1,12(v0)
a0803f28:	3c02a081 	lui	v0,0xa081
a0803f2c:	2444cd88 	addiu	a0,v0,-12920
a0803f30:	00601021 	move	v0,v1
a0803f34:	000219c0 	sll	v1,v0,0x7
a0803f38:	00031080 	sll	v0,v1,0x2
a0803f3c:	00621021 	addu	v0,v1,v0
a0803f40:	00821021 	addu	v0,a0,v0
a0803f44:	ac450154 	sw	a1,340(v0)
a0803f48:	8fc50010 	lw	a1,16(s8)
a0803f4c:	3c02a081 	lui	v0,0xa081
a0803f50:	8c42c780 	lw	v0,-14464(v0)
a0803f54:	24430001 	addiu	v1,v0,1
a0803f58:	3c02a081 	lui	v0,0xa081
a0803f5c:	ac43c780 	sw	v1,-14464(v0)
a0803f60:	3c02a081 	lui	v0,0xa081
a0803f64:	8c46c780 	lw	a2,-14464(v0)
a0803f68:	3c04a081 	lui	a0,0xa081
a0803f6c:	00a01021 	move	v0,a1
a0803f70:	000211c0 	sll	v0,v0,0x7
a0803f74:	00021880 	sll	v1,v0,0x2
a0803f78:	00431021 	addu	v0,v0,v1
a0803f7c:	2483cd88 	addiu	v1,a0,-12920
a0803f80:	00431021 	addu	v0,v0,v1
a0803f84:	ac460148 	sw	a2,328(v0)
a0803f88:	8fc20010 	lw	v0,16(s8)
a0803f8c:	000219c0 	sll	v1,v0,0x7
a0803f90:	00031080 	sll	v0,v1,0x2
a0803f94:	00621821 	addu	v1,v1,v0
a0803f98:	3c02a081 	lui	v0,0xa081
a0803f9c:	2442cd88 	addiu	v0,v0,-12920
a0803fa0:	00621821 	addu	v1,v1,v0
a0803fa4:	3c02a081 	lui	v0,0xa081
a0803fa8:	2444cd50 	addiu	a0,v0,-12976
a0803fac:	00602821 	move	a1,v1
a0803fb0:	0c2011eb 	jal	a08047ac <queue_push>
a0803fb4:	00000000 	nop
a0803fb8:	03c0e821 	move	sp,s8
a0803fbc:	8fbf001c 	lw	ra,28(sp)
a0803fc0:	8fbe0018 	lw	s8,24(sp)
a0803fc4:	27bd0020 	addiu	sp,sp,32
a0803fc8:	03e00008 	jr	ra
a0803fcc:	00000000 	nop

a0803fd0 <do_kill>:
a0803fd0:	27bdffc0 	addiu	sp,sp,-64
a0803fd4:	afbf003c 	sw	ra,60(sp)
a0803fd8:	afbe0038 	sw	s8,56(sp)
a0803fdc:	03a0f021 	move	s8,sp
a0803fe0:	afc40040 	sw	a0,64(s8)
a0803fe4:	3c02a081 	lui	v0,0xa081
a0803fe8:	8c42cbc0 	lw	v0,-13376(v0)
a0803fec:	afc20030 	sw	v0,48(s8)
a0803ff0:	afc00028 	sw	zero,40(s8)
a0803ff4:	08201019 	j	a0804064 <do_kill+0x94>
a0803ff8:	00000000 	nop
a0803ffc:	8fc20030 	lw	v0,48(s8)
a0804000:	8c420000 	lw	v0,0(v0)
a0804004:	afc2002c 	sw	v0,44(s8)
a0804008:	08201010 	j	a0804040 <do_kill+0x70>
a080400c:	00000000 	nop
a0804010:	8fc2002c 	lw	v0,44(s8)
a0804014:	8c430148 	lw	v1,328(v0)
a0804018:	8fc20040 	lw	v0,64(s8)
a080401c:	14620005 	bne	v1,v0,a0804034 <do_kill+0x64>
a0804020:	00000000 	nop
a0804024:	24020001 	li	v0,1
a0804028:	afc20028 	sw	v0,40(s8)
a080402c:	08201013 	j	a080404c <do_kill+0x7c>
a0804030:	00000000 	nop
a0804034:	8fc2002c 	lw	v0,44(s8)
a0804038:	8c420144 	lw	v0,324(v0)
a080403c:	afc2002c 	sw	v0,44(s8)
a0804040:	8fc2002c 	lw	v0,44(s8)
a0804044:	1440fff2 	bnez	v0,a0804010 <do_kill+0x40>
a0804048:	00000000 	nop
a080404c:	8fc20028 	lw	v0,40(s8)
a0804050:	14400007 	bnez	v0,a0804070 <do_kill+0xa0>
a0804054:	00000000 	nop
a0804058:	8fc20030 	lw	v0,48(s8)
a080405c:	8c42000c 	lw	v0,12(v0)
a0804060:	afc20030 	sw	v0,48(s8)
a0804064:	8fc20030 	lw	v0,48(s8)
a0804068:	1440ffe4 	bnez	v0,a0803ffc <do_kill+0x2c>
a080406c:	00000000 	nop
a0804070:	8fc20028 	lw	v0,40(s8)
a0804074:	104000a2 	beqz	v0,a0804300 <do_kill+0x330>
a0804078:	00000000 	nop
a080407c:	8fc2002c 	lw	v0,44(s8)
a0804080:	3c03a081 	lui	v1,0xa081
a0804084:	8c63b498 	lw	v1,-19304(v1)
a0804088:	14430003 	bne	v0,v1,a0804098 <do_kill+0xc8>
a080408c:	00000000 	nop
a0804090:	0c2010c6 	jal	a0804318 <do_exit>
a0804094:	00000000 	nop
a0804098:	8fc3002c 	lw	v1,44(s8)
a080409c:	24020003 	li	v0,3
a08040a0:	ac620150 	sw	v0,336(v1)
a08040a4:	8fc2002c 	lw	v0,44(s8)
a08040a8:	24420174 	addiu	v0,v0,372
a08040ac:	00402021 	move	a0,v0
a08040b0:	0c200d5f 	jal	a080357c <do_unblock_all>
a08040b4:	00000000 	nop
a08040b8:	afc00024 	sw	zero,36(s8)
a08040bc:	082010a2 	j	a0804288 <do_kill+0x2b8>
a08040c0:	00000000 	nop
a08040c4:	8fc3002c 	lw	v1,44(s8)
a08040c8:	8fc20024 	lw	v0,36(s8)
a08040cc:	24420060 	addiu	v0,v0,96
a08040d0:	00021080 	sll	v0,v0,0x2
a08040d4:	00621021 	addu	v0,v1,v0
a08040d8:	8c420004 	lw	v0,4(v0)
a08040dc:	10400012 	beqz	v0,a0804128 <do_kill+0x158>
a08040e0:	00000000 	nop
a08040e4:	8fc3002c 	lw	v1,44(s8)
a08040e8:	8fc20024 	lw	v0,36(s8)
a08040ec:	24420060 	addiu	v0,v0,96
a08040f0:	00021080 	sll	v0,v0,0x2
a08040f4:	00621021 	addu	v0,v1,v0
a08040f8:	8c420004 	lw	v0,4(v0)
a08040fc:	24420004 	addiu	v0,v0,4
a0804100:	00402021 	move	a0,v0
a0804104:	0c200d5f 	jal	a080357c <do_unblock_all>
a0804108:	00000000 	nop
a080410c:	8fc3002c 	lw	v1,44(s8)
a0804110:	8fc20024 	lw	v0,36(s8)
a0804114:	24420060 	addiu	v0,v0,96
a0804118:	00021080 	sll	v0,v0,0x2
a080411c:	00621021 	addu	v0,v1,v0
a0804120:	8c420004 	lw	v0,4(v0)
a0804124:	ac400000 	sw	zero,0(v0)
a0804128:	8fc3002c 	lw	v1,44(s8)
a080412c:	8fc20024 	lw	v0,36(s8)
a0804130:	24420074 	addiu	v0,v0,116
a0804134:	00021080 	sll	v0,v0,0x2
a0804138:	00621021 	addu	v0,v1,v0
a080413c:	8c420004 	lw	v0,4(v0)
a0804140:	10400014 	beqz	v0,a0804194 <do_kill+0x1c4>
a0804144:	00000000 	nop
a0804148:	8fc3002c 	lw	v1,44(s8)
a080414c:	8fc20024 	lw	v0,36(s8)
a0804150:	24420074 	addiu	v0,v0,116
a0804154:	00021080 	sll	v0,v0,0x2
a0804158:	00621021 	addu	v0,v1,v0
a080415c:	8c420004 	lw	v0,4(v0)
a0804160:	24420004 	addiu	v0,v0,4
a0804164:	00402021 	move	a0,v0
a0804168:	0c200d5f 	jal	a080357c <do_unblock_all>
a080416c:	00000000 	nop
a0804170:	8fc3002c 	lw	v1,44(s8)
a0804174:	8fc20024 	lw	v0,36(s8)
a0804178:	24420074 	addiu	v0,v0,116
a080417c:	00021080 	sll	v0,v0,0x2
a0804180:	00621021 	addu	v0,v1,v0
a0804184:	8c430004 	lw	v1,4(v0)
a0804188:	8c620000 	lw	v0,0(v1)
a080418c:	24420001 	addiu	v0,v0,1
a0804190:	ac620000 	sw	v0,0(v1)
a0804194:	8fc3002c 	lw	v1,44(s8)
a0804198:	8fc20024 	lw	v0,36(s8)
a080419c:	2442008a 	addiu	v0,v0,138
a08041a0:	00021080 	sll	v0,v0,0x2
a08041a4:	00621021 	addu	v0,v1,v0
a08041a8:	8c430004 	lw	v1,4(v0)
a08041ac:	2402ffff 	li	v0,-1
a08041b0:	10620032 	beq	v1,v0,a080427c <do_kill+0x2ac>
a08041b4:	00000000 	nop
a08041b8:	8fc3002c 	lw	v1,44(s8)
a08041bc:	8fc20024 	lw	v0,36(s8)
a08041c0:	2442008a 	addiu	v0,v0,138
a08041c4:	00021080 	sll	v0,v0,0x2
a08041c8:	00621021 	addu	v0,v1,v0
a08041cc:	8c420004 	lw	v0,4(v0)
a08041d0:	00021282 	srl	v0,v0,0xa
a08041d4:	afc20020 	sw	v0,32(s8)
a08041d8:	8fc3002c 	lw	v1,44(s8)
a08041dc:	8fc20024 	lw	v0,36(s8)
a08041e0:	2442008a 	addiu	v0,v0,138
a08041e4:	00021080 	sll	v0,v0,0x2
a08041e8:	00621021 	addu	v0,v1,v0
a08041ec:	8c420004 	lw	v0,4(v0)
a08041f0:	304203ff 	andi	v0,v0,0x3ff
a08041f4:	afc2001c 	sw	v0,28(s8)
a08041f8:	8fc30020 	lw	v1,32(s8)
a08041fc:	3c02507f 	lui	v0,0x507f
a0804200:	3442e800 	ori	v0,v0,0xe800
a0804204:	00621021 	addu	v0,v1,v0
a0804208:	00021040 	sll	v0,v0,0x1
a080420c:	94420000 	lhu	v0,0(v0)
a0804210:	a7c20018 	sh	v0,24(s8)
a0804214:	97c30018 	lhu	v1,24(s8)
a0804218:	3c020005 	lui	v0,0x5
a080421c:	00621021 	addu	v0,v1,v0
a0804220:	00021a80 	sll	v1,v0,0xa
a0804224:	8fc2001c 	lw	v0,28(s8)
a0804228:	00621021 	addu	v0,v1,v0
a080422c:	000210c0 	sll	v0,v0,0x3
a0804230:	afc20014 	sw	v0,20(s8)
a0804234:	8fc20014 	lw	v0,20(s8)
a0804238:	8c420004 	lw	v0,4(v0)
a080423c:	000211c2 	srl	v0,v0,0x7
a0804240:	afc20010 	sw	v0,16(s8)
a0804244:	8fc20014 	lw	v0,20(s8)
a0804248:	ac400000 	sw	zero,0(v0)
a080424c:	8fc20014 	lw	v0,20(s8)
a0804250:	ac400004 	sw	zero,4(v0)
a0804254:	8fc40010 	lw	a0,16(s8)
a0804258:	0c200b1a 	jal	a0802c68 <free_page>
a080425c:	00000000 	nop
a0804260:	8fc3002c 	lw	v1,44(s8)
a0804264:	8fc20024 	lw	v0,36(s8)
a0804268:	2442008a 	addiu	v0,v0,138
a080426c:	00021080 	sll	v0,v0,0x2
a0804270:	00621021 	addu	v0,v1,v0
a0804274:	2403ffff 	li	v1,-1
a0804278:	ac430004 	sw	v1,4(v0)
a080427c:	8fc20024 	lw	v0,36(s8)
a0804280:	24420001 	addiu	v0,v0,1
a0804284:	afc20024 	sw	v0,36(s8)
a0804288:	8fc20024 	lw	v0,36(s8)
a080428c:	28420014 	slti	v0,v0,20
a0804290:	1440ff8c 	bnez	v0,a08040c4 <do_kill+0xf4>
a0804294:	00000000 	nop
a0804298:	8fc2002c 	lw	v0,44(s8)
a080429c:	8c420224 	lw	v0,548(v0)
a08042a0:	10400006 	beqz	v0,a08042bc <do_kill+0x2ec>
a08042a4:	00000000 	nop
a08042a8:	8fc2002c 	lw	v0,44(s8)
a08042ac:	8c420224 	lw	v0,548(v0)
a08042b0:	00402021 	move	a0,v0
a08042b4:	0c200d5f 	jal	a080357c <do_unblock_all>
a08042b8:	00000000 	nop
a08042bc:	8fc2002c 	lw	v0,44(s8)
a08042c0:	8c420228 	lw	v0,552(v0)
a08042c4:	10400006 	beqz	v0,a08042e0 <do_kill+0x310>
a08042c8:	00000000 	nop
a08042cc:	8fc2002c 	lw	v0,44(s8)
a08042d0:	8c430228 	lw	v1,552(v0)
a08042d4:	8c620000 	lw	v0,0(v1)
a08042d8:	24420001 	addiu	v0,v0,1
a08042dc:	ac620000 	sw	v0,0(v1)
a08042e0:	8fc20030 	lw	v0,48(s8)
a08042e4:	00402021 	move	a0,v0
a08042e8:	8fc5002c 	lw	a1,44(s8)
a08042ec:	0c20123a 	jal	a08048e8 <queue_remove>
a08042f0:	00000000 	nop
a08042f4:	3c03a081 	lui	v1,0xa081
a08042f8:	24020001 	li	v0,1
a08042fc:	ac62c784 	sw	v0,-14460(v1)
a0804300:	03c0e821 	move	sp,s8
a0804304:	8fbf003c 	lw	ra,60(sp)
a0804308:	8fbe0038 	lw	s8,56(sp)
a080430c:	27bd0040 	addiu	sp,sp,64
a0804310:	03e00008 	jr	ra
a0804314:	00000000 	nop

a0804318 <do_exit>:
a0804318:	27bdffd0 	addiu	sp,sp,-48
a080431c:	afbf002c 	sw	ra,44(sp)
a0804320:	afbe0028 	sw	s8,40(sp)
a0804324:	03a0f021 	move	s8,sp
a0804328:	3c02a081 	lui	v0,0xa081
a080432c:	8c43b498 	lw	v1,-19304(v0)
a0804330:	24020003 	li	v0,3
a0804334:	ac620150 	sw	v0,336(v1)
a0804338:	3c02a081 	lui	v0,0xa081
a080433c:	8c42b498 	lw	v0,-19304(v0)
a0804340:	24420174 	addiu	v0,v0,372
a0804344:	00402021 	move	a0,v0
a0804348:	0c200d5f 	jal	a080357c <do_unblock_all>
a080434c:	00000000 	nop
a0804350:	afc00024 	sw	zero,36(s8)
a0804354:	08201152 	j	a0804548 <do_exit+0x230>
a0804358:	00000000 	nop
a080435c:	3c02a081 	lui	v0,0xa081
a0804360:	8c43b498 	lw	v1,-19304(v0)
a0804364:	8fc20024 	lw	v0,36(s8)
a0804368:	24420060 	addiu	v0,v0,96
a080436c:	00021080 	sll	v0,v0,0x2
a0804370:	00621021 	addu	v0,v1,v0
a0804374:	8c420004 	lw	v0,4(v0)
a0804378:	10400014 	beqz	v0,a08043cc <do_exit+0xb4>
a080437c:	00000000 	nop
a0804380:	3c02a081 	lui	v0,0xa081
a0804384:	8c43b498 	lw	v1,-19304(v0)
a0804388:	8fc20024 	lw	v0,36(s8)
a080438c:	24420060 	addiu	v0,v0,96
a0804390:	00021080 	sll	v0,v0,0x2
a0804394:	00621021 	addu	v0,v1,v0
a0804398:	8c420004 	lw	v0,4(v0)
a080439c:	24420004 	addiu	v0,v0,4
a08043a0:	00402021 	move	a0,v0
a08043a4:	0c200d5f 	jal	a080357c <do_unblock_all>
a08043a8:	00000000 	nop
a08043ac:	3c02a081 	lui	v0,0xa081
a08043b0:	8c43b498 	lw	v1,-19304(v0)
a08043b4:	8fc20024 	lw	v0,36(s8)
a08043b8:	24420060 	addiu	v0,v0,96
a08043bc:	00021080 	sll	v0,v0,0x2
a08043c0:	00621021 	addu	v0,v1,v0
a08043c4:	8c420004 	lw	v0,4(v0)
a08043c8:	ac400000 	sw	zero,0(v0)
a08043cc:	3c02a081 	lui	v0,0xa081
a08043d0:	8c43b498 	lw	v1,-19304(v0)
a08043d4:	8fc20024 	lw	v0,36(s8)
a08043d8:	24420074 	addiu	v0,v0,116
a08043dc:	00021080 	sll	v0,v0,0x2
a08043e0:	00621021 	addu	v0,v1,v0
a08043e4:	8c420004 	lw	v0,4(v0)
a08043e8:	10400016 	beqz	v0,a0804444 <do_exit+0x12c>
a08043ec:	00000000 	nop
a08043f0:	3c02a081 	lui	v0,0xa081
a08043f4:	8c43b498 	lw	v1,-19304(v0)
a08043f8:	8fc20024 	lw	v0,36(s8)
a08043fc:	24420074 	addiu	v0,v0,116
a0804400:	00021080 	sll	v0,v0,0x2
a0804404:	00621021 	addu	v0,v1,v0
a0804408:	8c420004 	lw	v0,4(v0)
a080440c:	24420004 	addiu	v0,v0,4
a0804410:	00402021 	move	a0,v0
a0804414:	0c200d5f 	jal	a080357c <do_unblock_all>
a0804418:	00000000 	nop
a080441c:	3c02a081 	lui	v0,0xa081
a0804420:	8c43b498 	lw	v1,-19304(v0)
a0804424:	8fc20024 	lw	v0,36(s8)
a0804428:	24420074 	addiu	v0,v0,116
a080442c:	00021080 	sll	v0,v0,0x2
a0804430:	00621021 	addu	v0,v1,v0
a0804434:	8c430004 	lw	v1,4(v0)
a0804438:	8c620000 	lw	v0,0(v1)
a080443c:	24420001 	addiu	v0,v0,1
a0804440:	ac620000 	sw	v0,0(v1)
a0804444:	3c02a081 	lui	v0,0xa081
a0804448:	8c43b498 	lw	v1,-19304(v0)
a080444c:	8fc20024 	lw	v0,36(s8)
a0804450:	2442008a 	addiu	v0,v0,138
a0804454:	00021080 	sll	v0,v0,0x2
a0804458:	00621021 	addu	v0,v1,v0
a080445c:	8c430004 	lw	v1,4(v0)
a0804460:	2402ffff 	li	v0,-1
a0804464:	10620035 	beq	v1,v0,a080453c <do_exit+0x224>
a0804468:	00000000 	nop
a080446c:	3c02a081 	lui	v0,0xa081
a0804470:	8c43b498 	lw	v1,-19304(v0)
a0804474:	8fc20024 	lw	v0,36(s8)
a0804478:	2442008a 	addiu	v0,v0,138
a080447c:	00021080 	sll	v0,v0,0x2
a0804480:	00621021 	addu	v0,v1,v0
a0804484:	8c420004 	lw	v0,4(v0)
a0804488:	00021282 	srl	v0,v0,0xa
a080448c:	afc20020 	sw	v0,32(s8)
a0804490:	3c02a081 	lui	v0,0xa081
a0804494:	8c43b498 	lw	v1,-19304(v0)
a0804498:	8fc20024 	lw	v0,36(s8)
a080449c:	2442008a 	addiu	v0,v0,138
a08044a0:	00021080 	sll	v0,v0,0x2
a08044a4:	00621021 	addu	v0,v1,v0
a08044a8:	8c420004 	lw	v0,4(v0)
a08044ac:	304203ff 	andi	v0,v0,0x3ff
a08044b0:	afc2001c 	sw	v0,28(s8)
a08044b4:	8fc30020 	lw	v1,32(s8)
a08044b8:	3c02507f 	lui	v0,0x507f
a08044bc:	3442e800 	ori	v0,v0,0xe800
a08044c0:	00621021 	addu	v0,v1,v0
a08044c4:	00021040 	sll	v0,v0,0x1
a08044c8:	94420000 	lhu	v0,0(v0)
a08044cc:	a7c20018 	sh	v0,24(s8)
a08044d0:	97c30018 	lhu	v1,24(s8)
a08044d4:	3c020005 	lui	v0,0x5
a08044d8:	00621021 	addu	v0,v1,v0
a08044dc:	00021a80 	sll	v1,v0,0xa
a08044e0:	8fc2001c 	lw	v0,28(s8)
a08044e4:	00621021 	addu	v0,v1,v0
a08044e8:	000210c0 	sll	v0,v0,0x3
a08044ec:	afc20014 	sw	v0,20(s8)
a08044f0:	8fc20014 	lw	v0,20(s8)
a08044f4:	8c420004 	lw	v0,4(v0)
a08044f8:	000211c2 	srl	v0,v0,0x7
a08044fc:	afc20010 	sw	v0,16(s8)
a0804500:	8fc20014 	lw	v0,20(s8)
a0804504:	ac400000 	sw	zero,0(v0)
a0804508:	8fc20014 	lw	v0,20(s8)
a080450c:	ac400004 	sw	zero,4(v0)
a0804510:	8fc40010 	lw	a0,16(s8)
a0804514:	0c200b1a 	jal	a0802c68 <free_page>
a0804518:	00000000 	nop
a080451c:	3c02a081 	lui	v0,0xa081
a0804520:	8c43b498 	lw	v1,-19304(v0)
a0804524:	8fc20024 	lw	v0,36(s8)
a0804528:	2442008a 	addiu	v0,v0,138
a080452c:	00021080 	sll	v0,v0,0x2
a0804530:	00621021 	addu	v0,v1,v0
a0804534:	2403ffff 	li	v1,-1
a0804538:	ac430004 	sw	v1,4(v0)
a080453c:	8fc20024 	lw	v0,36(s8)
a0804540:	24420001 	addiu	v0,v0,1
a0804544:	afc20024 	sw	v0,36(s8)
a0804548:	8fc20024 	lw	v0,36(s8)
a080454c:	28420014 	slti	v0,v0,20
a0804550:	1440ff82 	bnez	v0,a080435c <do_exit+0x44>
a0804554:	00000000 	nop
a0804558:	3c02a081 	lui	v0,0xa081
a080455c:	8c42b498 	lw	v0,-19304(v0)
a0804560:	8c420224 	lw	v0,548(v0)
a0804564:	10400007 	beqz	v0,a0804584 <do_exit+0x26c>
a0804568:	00000000 	nop
a080456c:	3c02a081 	lui	v0,0xa081
a0804570:	8c42b498 	lw	v0,-19304(v0)
a0804574:	8c420224 	lw	v0,548(v0)
a0804578:	00402021 	move	a0,v0
a080457c:	0c200d5f 	jal	a080357c <do_unblock_all>
a0804580:	00000000 	nop
a0804584:	3c02a081 	lui	v0,0xa081
a0804588:	8c42b498 	lw	v0,-19304(v0)
a080458c:	8c420228 	lw	v0,552(v0)
a0804590:	10400007 	beqz	v0,a08045b0 <do_exit+0x298>
a0804594:	00000000 	nop
a0804598:	3c02a081 	lui	v0,0xa081
a080459c:	8c42b498 	lw	v0,-19304(v0)
a08045a0:	8c430228 	lw	v1,552(v0)
a08045a4:	8c620000 	lw	v0,0(v1)
a08045a8:	24420001 	addiu	v0,v0,1
a08045ac:	ac620000 	sw	v0,0(v1)
a08045b0:	3c02a081 	lui	v0,0xa081
a08045b4:	8c43b498 	lw	v1,-19304(v0)
a08045b8:	3c02a081 	lui	v0,0xa081
a08045bc:	2444cd50 	addiu	a0,v0,-12976
a08045c0:	00602821 	move	a1,v1
a08045c4:	0c20123a 	jal	a08048e8 <queue_remove>
a08045c8:	00000000 	nop
a08045cc:	00401821 	move	v1,v0
a08045d0:	3c02a081 	lui	v0,0xa081
a08045d4:	ac43b49c 	sw	v1,-19300(v0)
a08045d8:	3c03a081 	lui	v1,0xa081
a08045dc:	24020001 	li	v0,1
a08045e0:	ac62c784 	sw	v0,-14460(v1)
a08045e4:	0c2000b9 	jal	a08002e4 <do_scheduler>
a08045e8:	00000000 	nop
a08045ec:	03c0e821 	move	sp,s8
a08045f0:	8fbf002c 	lw	ra,44(sp)
a08045f4:	8fbe0028 	lw	s8,40(sp)
a08045f8:	27bd0030 	addiu	sp,sp,48
a08045fc:	03e00008 	jr	ra
a0804600:	00000000 	nop

a0804604 <do_wait>:
a0804604:	27bdffd8 	addiu	sp,sp,-40
a0804608:	afbf0024 	sw	ra,36(sp)
a080460c:	afbe0020 	sw	s8,32(sp)
a0804610:	03a0f021 	move	s8,sp
a0804614:	afc40028 	sw	a0,40(s8)
a0804618:	3c02a081 	lui	v0,0xa081
a080461c:	8c42cbc0 	lw	v0,-13376(v0)
a0804620:	afc20018 	sw	v0,24(s8)
a0804624:	afc00010 	sw	zero,16(s8)
a0804628:	082011ad 	j	a08046b4 <do_wait+0xb0>
a080462c:	00000000 	nop
a0804630:	8fc20018 	lw	v0,24(s8)
a0804634:	8c420000 	lw	v0,0(v0)
a0804638:	afc20014 	sw	v0,20(s8)
a080463c:	082011a4 	j	a0804690 <do_wait+0x8c>
a0804640:	00000000 	nop
a0804644:	8fc20014 	lw	v0,20(s8)
a0804648:	8c430148 	lw	v1,328(v0)
a080464c:	8fc20028 	lw	v0,40(s8)
a0804650:	1462000c 	bne	v1,v0,a0804684 <do_wait+0x80>
a0804654:	00000000 	nop
a0804658:	8fc20014 	lw	v0,20(s8)
a080465c:	24420174 	addiu	v0,v0,372
a0804660:	00402021 	move	a0,v0
a0804664:	0c200d22 	jal	a0803488 <do_block>
a0804668:	00000000 	nop
a080466c:	0c2000b9 	jal	a08002e4 <do_scheduler>
a0804670:	00000000 	nop
a0804674:	24020001 	li	v0,1
a0804678:	afc20010 	sw	v0,16(s8)
a080467c:	082011a7 	j	a080469c <do_wait+0x98>
a0804680:	00000000 	nop
a0804684:	8fc20014 	lw	v0,20(s8)
a0804688:	8c420144 	lw	v0,324(v0)
a080468c:	afc20014 	sw	v0,20(s8)
a0804690:	8fc20014 	lw	v0,20(s8)
a0804694:	1440ffeb 	bnez	v0,a0804644 <do_wait+0x40>
a0804698:	00000000 	nop
a080469c:	8fc20010 	lw	v0,16(s8)
a08046a0:	14400007 	bnez	v0,a08046c0 <do_wait+0xbc>
a08046a4:	00000000 	nop
a08046a8:	8fc20018 	lw	v0,24(s8)
a08046ac:	8c42000c 	lw	v0,12(v0)
a08046b0:	afc20018 	sw	v0,24(s8)
a08046b4:	8fc20018 	lw	v0,24(s8)
a08046b8:	1440ffdd 	bnez	v0,a0804630 <do_wait+0x2c>
a08046bc:	00000000 	nop
a08046c0:	03c0e821 	move	sp,s8
a08046c4:	8fbf0024 	lw	ra,36(sp)
a08046c8:	8fbe0020 	lw	s8,32(sp)
a08046cc:	27bd0028 	addiu	sp,sp,40
a08046d0:	03e00008 	jr	ra
a08046d4:	00000000 	nop

a08046d8 <do_getpid>:
a08046d8:	27bdfff8 	addiu	sp,sp,-8
a08046dc:	afbe0004 	sw	s8,4(sp)
a08046e0:	03a0f021 	move	s8,sp
a08046e4:	3c02a081 	lui	v0,0xa081
a08046e8:	8c42b498 	lw	v0,-19304(v0)
a08046ec:	8c420148 	lw	v0,328(v0)
a08046f0:	03c0e821 	move	sp,s8
a08046f4:	8fbe0004 	lw	s8,4(sp)
a08046f8:	27bd0008 	addiu	sp,sp,8
a08046fc:	03e00008 	jr	ra
a0804700:	00000000 	nop
	...

a0804710 <queue_init>:
a0804710:	27bdffe8 	addiu	sp,sp,-24
a0804714:	afbf0014 	sw	ra,20(sp)
a0804718:	afbe0010 	sw	s8,16(sp)
a080471c:	03a0f021 	move	s8,sp
a0804720:	afc40018 	sw	a0,24(s8)
a0804724:	8fc20018 	lw	v0,24(s8)
a0804728:	ac400004 	sw	zero,4(v0)
a080472c:	8fc20018 	lw	v0,24(s8)
a0804730:	8c430004 	lw	v1,4(v0)
a0804734:	8fc20018 	lw	v0,24(s8)
a0804738:	ac430000 	sw	v1,0(v0)
a080473c:	8fc40018 	lw	a0,24(s8)
a0804740:	0c201286 	jal	a0804a18 <queue_push_q>
a0804744:	00000000 	nop
a0804748:	03c0e821 	move	sp,s8
a080474c:	8fbf0014 	lw	ra,20(sp)
a0804750:	8fbe0010 	lw	s8,16(sp)
a0804754:	27bd0018 	addiu	sp,sp,24
a0804758:	03e00008 	jr	ra
a080475c:	00000000 	nop

a0804760 <queue_is_empty>:
a0804760:	27bdfff0 	addiu	sp,sp,-16
a0804764:	afbe000c 	sw	s8,12(sp)
a0804768:	03a0f021 	move	s8,sp
a080476c:	afc40010 	sw	a0,16(s8)
a0804770:	8fc20010 	lw	v0,16(s8)
a0804774:	8c420000 	lw	v0,0(v0)
a0804778:	14400005 	bnez	v0,a0804790 <queue_is_empty+0x30>
a080477c:	00000000 	nop
a0804780:	24020001 	li	v0,1
a0804784:	afc20000 	sw	v0,0(s8)
a0804788:	082011e5 	j	a0804794 <queue_is_empty+0x34>
a080478c:	00000000 	nop
a0804790:	afc00000 	sw	zero,0(s8)
a0804794:	8fc20000 	lw	v0,0(s8)
a0804798:	03c0e821 	move	sp,s8
a080479c:	8fbe000c 	lw	s8,12(sp)
a08047a0:	27bd0010 	addiu	sp,sp,16
a08047a4:	03e00008 	jr	ra
a08047a8:	00000000 	nop

a08047ac <queue_push>:
a08047ac:	27bdfff0 	addiu	sp,sp,-16
a08047b0:	afbe000c 	sw	s8,12(sp)
a08047b4:	03a0f021 	move	s8,sp
a08047b8:	afc40010 	sw	a0,16(s8)
a08047bc:	afc50014 	sw	a1,20(s8)
a08047c0:	8fc20014 	lw	v0,20(s8)
a08047c4:	afc20000 	sw	v0,0(s8)
a08047c8:	8fc20010 	lw	v0,16(s8)
a08047cc:	8c420000 	lw	v0,0(v0)
a08047d0:	1440000d 	bnez	v0,a0804808 <queue_push+0x5c>
a08047d4:	00000000 	nop
a08047d8:	8fc30010 	lw	v1,16(s8)
a08047dc:	8fc20014 	lw	v0,20(s8)
a08047e0:	ac620000 	sw	v0,0(v1)
a08047e4:	8fc30010 	lw	v1,16(s8)
a08047e8:	8fc20014 	lw	v0,20(s8)
a08047ec:	ac620004 	sw	v0,4(v1)
a08047f0:	8fc20000 	lw	v0,0(s8)
a08047f4:	ac400144 	sw	zero,324(v0)
a08047f8:	8fc20000 	lw	v0,0(s8)
a08047fc:	ac400140 	sw	zero,320(v0)
a0804800:	08201210 	j	a0804840 <queue_push+0x94>
a0804804:	00000000 	nop
a0804808:	8fc20010 	lw	v0,16(s8)
a080480c:	8c420004 	lw	v0,4(v0)
a0804810:	00401821 	move	v1,v0
a0804814:	8fc20014 	lw	v0,20(s8)
a0804818:	ac620144 	sw	v0,324(v1)
a080481c:	8fc20000 	lw	v0,0(s8)
a0804820:	ac400144 	sw	zero,324(v0)
a0804824:	8fc20010 	lw	v0,16(s8)
a0804828:	8c430004 	lw	v1,4(v0)
a080482c:	8fc20000 	lw	v0,0(s8)
a0804830:	ac430140 	sw	v1,320(v0)
a0804834:	8fc30010 	lw	v1,16(s8)
a0804838:	8fc20014 	lw	v0,20(s8)
a080483c:	ac620004 	sw	v0,4(v1)
a0804840:	03c0e821 	move	sp,s8
a0804844:	8fbe000c 	lw	s8,12(sp)
a0804848:	27bd0010 	addiu	sp,sp,16
a080484c:	03e00008 	jr	ra
a0804850:	00000000 	nop

a0804854 <queue_dequeue>:
a0804854:	27bdfff0 	addiu	sp,sp,-16
a0804858:	afbe000c 	sw	s8,12(sp)
a080485c:	03a0f021 	move	s8,sp
a0804860:	afc40010 	sw	a0,16(s8)
a0804864:	8fc20010 	lw	v0,16(s8)
a0804868:	8c420000 	lw	v0,0(v0)
a080486c:	afc20000 	sw	v0,0(s8)
a0804870:	8fc20000 	lw	v0,0(s8)
a0804874:	8c420144 	lw	v0,324(v0)
a0804878:	14400009 	bnez	v0,a08048a0 <queue_dequeue+0x4c>
a080487c:	00000000 	nop
a0804880:	8fc20010 	lw	v0,16(s8)
a0804884:	ac400004 	sw	zero,4(v0)
a0804888:	8fc20010 	lw	v0,16(s8)
a080488c:	8c430004 	lw	v1,4(v0)
a0804890:	8fc20010 	lw	v0,16(s8)
a0804894:	ac430000 	sw	v1,0(v0)
a0804898:	08201230 	j	a08048c0 <queue_dequeue+0x6c>
a080489c:	00000000 	nop
a08048a0:	8fc20010 	lw	v0,16(s8)
a08048a4:	8c420000 	lw	v0,0(v0)
a08048a8:	8c430144 	lw	v1,324(v0)
a08048ac:	8fc20010 	lw	v0,16(s8)
a08048b0:	ac430000 	sw	v1,0(v0)
a08048b4:	8fc20010 	lw	v0,16(s8)
a08048b8:	8c420000 	lw	v0,0(v0)
a08048bc:	ac400140 	sw	zero,320(v0)
a08048c0:	8fc20000 	lw	v0,0(s8)
a08048c4:	ac400140 	sw	zero,320(v0)
a08048c8:	8fc20000 	lw	v0,0(s8)
a08048cc:	ac400144 	sw	zero,324(v0)
a08048d0:	8fc20000 	lw	v0,0(s8)
a08048d4:	03c0e821 	move	sp,s8
a08048d8:	8fbe000c 	lw	s8,12(sp)
a08048dc:	27bd0010 	addiu	sp,sp,16
a08048e0:	03e00008 	jr	ra
a08048e4:	00000000 	nop

a08048e8 <queue_remove>:
a08048e8:	27bdfff0 	addiu	sp,sp,-16
a08048ec:	afbe000c 	sw	s8,12(sp)
a08048f0:	03a0f021 	move	s8,sp
a08048f4:	afc40010 	sw	a0,16(s8)
a08048f8:	afc50014 	sw	a1,20(s8)
a08048fc:	8fc20014 	lw	v0,20(s8)
a0804900:	afc20004 	sw	v0,4(s8)
a0804904:	8fc20004 	lw	v0,4(s8)
a0804908:	8c420144 	lw	v0,324(v0)
a080490c:	afc20000 	sw	v0,0(s8)
a0804910:	8fc20010 	lw	v0,16(s8)
a0804914:	8c430000 	lw	v1,0(v0)
a0804918:	8fc20014 	lw	v0,20(s8)
a080491c:	1462000c 	bne	v1,v0,a0804950 <queue_remove+0x68>
a0804920:	00000000 	nop
a0804924:	8fc20010 	lw	v0,16(s8)
a0804928:	8c430004 	lw	v1,4(v0)
a080492c:	8fc20014 	lw	v0,20(s8)
a0804930:	14620007 	bne	v1,v0,a0804950 <queue_remove+0x68>
a0804934:	00000000 	nop
a0804938:	8fc20010 	lw	v0,16(s8)
a080493c:	ac400000 	sw	zero,0(v0)
a0804940:	8fc20010 	lw	v0,16(s8)
a0804944:	ac400004 	sw	zero,4(v0)
a0804948:	0820127c 	j	a08049f0 <queue_remove+0x108>
a080494c:	00000000 	nop
a0804950:	8fc20010 	lw	v0,16(s8)
a0804954:	8c430000 	lw	v1,0(v0)
a0804958:	8fc20014 	lw	v0,20(s8)
a080495c:	1462000a 	bne	v1,v0,a0804988 <queue_remove+0xa0>
a0804960:	00000000 	nop
a0804964:	8fc20004 	lw	v0,4(s8)
a0804968:	8c430144 	lw	v1,324(v0)
a080496c:	8fc20010 	lw	v0,16(s8)
a0804970:	ac430000 	sw	v1,0(v0)
a0804974:	8fc20010 	lw	v0,16(s8)
a0804978:	8c420000 	lw	v0,0(v0)
a080497c:	ac400140 	sw	zero,320(v0)
a0804980:	0820127c 	j	a08049f0 <queue_remove+0x108>
a0804984:	00000000 	nop
a0804988:	8fc20010 	lw	v0,16(s8)
a080498c:	8c430004 	lw	v1,4(v0)
a0804990:	8fc20014 	lw	v0,20(s8)
a0804994:	1462000a 	bne	v1,v0,a08049c0 <queue_remove+0xd8>
a0804998:	00000000 	nop
a080499c:	8fc20004 	lw	v0,4(s8)
a08049a0:	8c430140 	lw	v1,320(v0)
a08049a4:	8fc20010 	lw	v0,16(s8)
a08049a8:	ac430004 	sw	v1,4(v0)
a08049ac:	8fc20010 	lw	v0,16(s8)
a08049b0:	8c420004 	lw	v0,4(v0)
a08049b4:	ac400144 	sw	zero,324(v0)
a08049b8:	0820127c 	j	a08049f0 <queue_remove+0x108>
a08049bc:	00000000 	nop
a08049c0:	8fc20004 	lw	v0,4(s8)
a08049c4:	8c420140 	lw	v0,320(v0)
a08049c8:	00401821 	move	v1,v0
a08049cc:	8fc20004 	lw	v0,4(s8)
a08049d0:	8c420144 	lw	v0,324(v0)
a08049d4:	ac620144 	sw	v0,324(v1)
a08049d8:	8fc20004 	lw	v0,4(s8)
a08049dc:	8c420144 	lw	v0,324(v0)
a08049e0:	00401821 	move	v1,v0
a08049e4:	8fc20004 	lw	v0,4(s8)
a08049e8:	8c420140 	lw	v0,320(v0)
a08049ec:	ac620140 	sw	v0,320(v1)
a08049f0:	8fc20004 	lw	v0,4(s8)
a08049f4:	ac400140 	sw	zero,320(v0)
a08049f8:	8fc20004 	lw	v0,4(s8)
a08049fc:	ac400144 	sw	zero,324(v0)
a0804a00:	8fc20000 	lw	v0,0(s8)
a0804a04:	03c0e821 	move	sp,s8
a0804a08:	8fbe000c 	lw	s8,12(sp)
a0804a0c:	27bd0010 	addiu	sp,sp,16
a0804a10:	03e00008 	jr	ra
a0804a14:	00000000 	nop

a0804a18 <queue_push_q>:
a0804a18:	27bdfff0 	addiu	sp,sp,-16
a0804a1c:	afbe000c 	sw	s8,12(sp)
a0804a20:	03a0f021 	move	s8,sp
a0804a24:	afc40010 	sw	a0,16(s8)
a0804a28:	8fc20010 	lw	v0,16(s8)
a0804a2c:	afc20004 	sw	v0,4(s8)
a0804a30:	3c02a081 	lui	v0,0xa081
a0804a34:	2442cbc0 	addiu	v0,v0,-13376
a0804a38:	afc20000 	sw	v0,0(s8)
a0804a3c:	8fc20000 	lw	v0,0(s8)
a0804a40:	8c420000 	lw	v0,0(v0)
a0804a44:	1440000d 	bnez	v0,a0804a7c <queue_push_q+0x64>
a0804a48:	00000000 	nop
a0804a4c:	8fc30000 	lw	v1,0(s8)
a0804a50:	8fc20010 	lw	v0,16(s8)
a0804a54:	ac620000 	sw	v0,0(v1)
a0804a58:	8fc30000 	lw	v1,0(s8)
a0804a5c:	8fc20010 	lw	v0,16(s8)
a0804a60:	ac620004 	sw	v0,4(v1)
a0804a64:	8fc20004 	lw	v0,4(s8)
a0804a68:	ac40000c 	sw	zero,12(v0)
a0804a6c:	8fc20004 	lw	v0,4(s8)
a0804a70:	ac400008 	sw	zero,8(v0)
a0804a74:	082012ad 	j	a0804ab4 <queue_push_q+0x9c>
a0804a78:	00000000 	nop
a0804a7c:	8fc20000 	lw	v0,0(s8)
a0804a80:	8c420004 	lw	v0,4(v0)
a0804a84:	00401821 	move	v1,v0
a0804a88:	8fc20010 	lw	v0,16(s8)
a0804a8c:	ac62000c 	sw	v0,12(v1)
a0804a90:	8fc20004 	lw	v0,4(s8)
a0804a94:	ac40000c 	sw	zero,12(v0)
a0804a98:	8fc20000 	lw	v0,0(s8)
a0804a9c:	8c430004 	lw	v1,4(v0)
a0804aa0:	8fc20004 	lw	v0,4(s8)
a0804aa4:	ac430008 	sw	v1,8(v0)
a0804aa8:	8fc30000 	lw	v1,0(s8)
a0804aac:	8fc20010 	lw	v0,16(s8)
a0804ab0:	ac620004 	sw	v0,4(v1)
a0804ab4:	03c0e821 	move	sp,s8
a0804ab8:	8fbe000c 	lw	s8,12(sp)
a0804abc:	27bd0010 	addiu	sp,sp,16
a0804ac0:	03e00008 	jr	ra
a0804ac4:	00000000 	nop

a0804ac8 <queue_push_b>:
a0804ac8:	27bdfff0 	addiu	sp,sp,-16
a0804acc:	afbe000c 	sw	s8,12(sp)
a0804ad0:	03a0f021 	move	s8,sp
a0804ad4:	afc40010 	sw	a0,16(s8)
a0804ad8:	afc50014 	sw	a1,20(s8)
a0804adc:	8fc20014 	lw	v0,20(s8)
a0804ae0:	afc20000 	sw	v0,0(s8)
a0804ae4:	8fc20010 	lw	v0,16(s8)
a0804ae8:	8c420000 	lw	v0,0(v0)
a0804aec:	1440000d 	bnez	v0,a0804b24 <queue_push_b+0x5c>
a0804af0:	00000000 	nop
a0804af4:	8fc30010 	lw	v1,16(s8)
a0804af8:	8fc20014 	lw	v0,20(s8)
a0804afc:	ac620000 	sw	v0,0(v1)
a0804b00:	8fc30010 	lw	v1,16(s8)
a0804b04:	8fc20014 	lw	v0,20(s8)
a0804b08:	ac620004 	sw	v0,4(v1)
a0804b0c:	8fc20000 	lw	v0,0(s8)
a0804b10:	ac400044 	sw	zero,68(v0)
a0804b14:	8fc20000 	lw	v0,0(s8)
a0804b18:	ac400048 	sw	zero,72(v0)
a0804b1c:	082012d7 	j	a0804b5c <queue_push_b+0x94>
a0804b20:	00000000 	nop
a0804b24:	8fc20010 	lw	v0,16(s8)
a0804b28:	8c420004 	lw	v0,4(v0)
a0804b2c:	00401821 	move	v1,v0
a0804b30:	8fc20014 	lw	v0,20(s8)
a0804b34:	ac620044 	sw	v0,68(v1)
a0804b38:	8fc20000 	lw	v0,0(s8)
a0804b3c:	ac400044 	sw	zero,68(v0)
a0804b40:	8fc20010 	lw	v0,16(s8)
a0804b44:	8c430004 	lw	v1,4(v0)
a0804b48:	8fc20000 	lw	v0,0(s8)
a0804b4c:	ac430048 	sw	v1,72(v0)
a0804b50:	8fc30010 	lw	v1,16(s8)
a0804b54:	8fc20014 	lw	v0,20(s8)
a0804b58:	ac620004 	sw	v0,4(v1)
a0804b5c:	03c0e821 	move	sp,s8
a0804b60:	8fbe000c 	lw	s8,12(sp)
a0804b64:	27bd0010 	addiu	sp,sp,16
a0804b68:	03e00008 	jr	ra
a0804b6c:	00000000 	nop

a0804b70 <queue_dequeue_b>:
a0804b70:	27bdfff0 	addiu	sp,sp,-16
a0804b74:	afbe000c 	sw	s8,12(sp)
a0804b78:	03a0f021 	move	s8,sp
a0804b7c:	afc40010 	sw	a0,16(s8)
a0804b80:	8fc20010 	lw	v0,16(s8)
a0804b84:	8c420000 	lw	v0,0(v0)
a0804b88:	afc20000 	sw	v0,0(s8)
a0804b8c:	8fc20000 	lw	v0,0(s8)
a0804b90:	8c420044 	lw	v0,68(v0)
a0804b94:	14400009 	bnez	v0,a0804bbc <queue_dequeue_b+0x4c>
a0804b98:	00000000 	nop
a0804b9c:	8fc20010 	lw	v0,16(s8)
a0804ba0:	ac400004 	sw	zero,4(v0)
a0804ba4:	8fc20010 	lw	v0,16(s8)
a0804ba8:	8c430004 	lw	v1,4(v0)
a0804bac:	8fc20010 	lw	v0,16(s8)
a0804bb0:	ac430000 	sw	v1,0(v0)
a0804bb4:	082012f7 	j	a0804bdc <queue_dequeue_b+0x6c>
a0804bb8:	00000000 	nop
a0804bbc:	8fc20010 	lw	v0,16(s8)
a0804bc0:	8c420000 	lw	v0,0(v0)
a0804bc4:	8c430044 	lw	v1,68(v0)
a0804bc8:	8fc20010 	lw	v0,16(s8)
a0804bcc:	ac430000 	sw	v1,0(v0)
a0804bd0:	8fc20010 	lw	v0,16(s8)
a0804bd4:	8c420000 	lw	v0,0(v0)
a0804bd8:	ac400048 	sw	zero,72(v0)
a0804bdc:	8fc20000 	lw	v0,0(s8)
a0804be0:	ac400048 	sw	zero,72(v0)
a0804be4:	8fc20000 	lw	v0,0(s8)
a0804be8:	ac400044 	sw	zero,68(v0)
a0804bec:	8fc20000 	lw	v0,0(s8)
a0804bf0:	03c0e821 	move	sp,s8
a0804bf4:	8fbe000c 	lw	s8,12(sp)
a0804bf8:	27bd0010 	addiu	sp,sp,16
a0804bfc:	03e00008 	jr	ra
a0804c00:	00000000 	nop
	...

a0804c10 <get_ticks>:
a0804c10:	27bdfff8 	addiu	sp,sp,-8
a0804c14:	afbe0004 	sw	s8,4(sp)
a0804c18:	03a0f021 	move	s8,sp
a0804c1c:	3c02a081 	lui	v0,0xa081
a0804c20:	8c42c790 	lw	v0,-14448(v0)
a0804c24:	03c0e821 	move	sp,s8
a0804c28:	8fbe0004 	lw	s8,4(sp)
a0804c2c:	27bd0008 	addiu	sp,sp,8
a0804c30:	03e00008 	jr	ra
a0804c34:	00000000 	nop

a0804c38 <get_timer>:
a0804c38:	27bdfff8 	addiu	sp,sp,-8
a0804c3c:	afbe0004 	sw	s8,4(sp)
a0804c40:	03a0f021 	move	s8,sp
a0804c44:	3c02a081 	lui	v0,0xa081
a0804c48:	8c43c790 	lw	v1,-14448(v0)
a0804c4c:	3c02431b 	lui	v0,0x431b
a0804c50:	3442de83 	ori	v0,v0,0xde83
a0804c54:	00620019 	multu	v1,v0
a0804c58:	00001010 	mfhi	v0
a0804c5c:	00021482 	srl	v0,v0,0x12
a0804c60:	03c0e821 	move	sp,s8
a0804c64:	8fbe0004 	lw	s8,4(sp)
a0804c68:	27bd0008 	addiu	sp,sp,8
a0804c6c:	03e00008 	jr	ra
a0804c70:	00000000 	nop

a0804c74 <latency>:
a0804c74:	27bdffe0 	addiu	sp,sp,-32
a0804c78:	afbf001c 	sw	ra,28(sp)
a0804c7c:	afbe0018 	sw	s8,24(sp)
a0804c80:	03a0f021 	move	s8,sp
a0804c84:	afc40020 	sw	a0,32(s8)
a0804c88:	0c20130e 	jal	a0804c38 <get_timer>
a0804c8c:	00000000 	nop
a0804c90:	afc20010 	sw	v0,16(s8)
a0804c94:	0c20130e 	jal	a0804c38 <get_timer>
a0804c98:	00000000 	nop
a0804c9c:	00401821 	move	v1,v0
a0804ca0:	8fc20010 	lw	v0,16(s8)
a0804ca4:	00621823 	subu	v1,v1,v0
a0804ca8:	8fc20020 	lw	v0,32(s8)
a0804cac:	0062102b 	sltu	v0,v1,v0
a0804cb0:	1440fff8 	bnez	v0,a0804c94 <latency+0x20>
a0804cb4:	00000000 	nop
a0804cb8:	03c0e821 	move	sp,s8
a0804cbc:	8fbf001c 	lw	ra,28(sp)
a0804cc0:	8fbe0018 	lw	s8,24(sp)
a0804cc4:	27bd0020 	addiu	sp,sp,32
a0804cc8:	03e00008 	jr	ra
a0804ccc:	00000000 	nop

a0804cd0 <system_call_helper>:
a0804cd0:	27bdffe8 	addiu	sp,sp,-24
a0804cd4:	afbf0014 	sw	ra,20(sp)
a0804cd8:	afbe0010 	sw	s8,16(sp)
a0804cdc:	03a0f021 	move	s8,sp
a0804ce0:	afc40018 	sw	a0,24(s8)
a0804ce4:	afc5001c 	sw	a1,28(s8)
a0804ce8:	afc60020 	sw	a2,32(s8)
a0804cec:	afc70024 	sw	a3,36(s8)
a0804cf0:	8fc20018 	lw	v0,24(s8)
a0804cf4:	3c03a081 	lui	v1,0xa081
a0804cf8:	00022080 	sll	a0,v0,0x2
a0804cfc:	2462cbd0 	addiu	v0,v1,-13360
a0804d00:	00821021 	addu	v0,a0,v0
a0804d04:	8c420000 	lw	v0,0(v0)
a0804d08:	8fc4001c 	lw	a0,28(s8)
a0804d0c:	8fc50020 	lw	a1,32(s8)
a0804d10:	8fc60024 	lw	a2,36(s8)
a0804d14:	0040f809 	jalr	v0
a0804d18:	00000000 	nop
a0804d1c:	03c0e821 	move	sp,s8
a0804d20:	8fbf0014 	lw	ra,20(sp)
a0804d24:	8fbe0010 	lw	s8,16(sp)
a0804d28:	27bd0018 	addiu	sp,sp,24
a0804d2c:	03e00008 	jr	ra
a0804d30:	00000000 	nop

a0804d34 <sys_sleep>:
a0804d34:	27bdffe8 	addiu	sp,sp,-24
a0804d38:	afbf0014 	sw	ra,20(sp)
a0804d3c:	afbe0010 	sw	s8,16(sp)
a0804d40:	03a0f021 	move	s8,sp
a0804d44:	afc40018 	sw	a0,24(s8)
a0804d48:	8fc20018 	lw	v0,24(s8)
a0804d4c:	24040002 	li	a0,2
a0804d50:	00402821 	move	a1,v0
a0804d54:	00003021 	move	a2,zero
a0804d58:	00003821 	move	a3,zero
a0804d5c:	0c200314 	jal	a0800c50 <invoke_syscall>
a0804d60:	00000000 	nop
a0804d64:	03c0e821 	move	sp,s8
a0804d68:	8fbf0014 	lw	ra,20(sp)
a0804d6c:	8fbe0010 	lw	s8,16(sp)
a0804d70:	27bd0018 	addiu	sp,sp,24
a0804d74:	03e00008 	jr	ra
a0804d78:	00000000 	nop

a0804d7c <sys_block>:
a0804d7c:	27bdffe8 	addiu	sp,sp,-24
a0804d80:	afbf0014 	sw	ra,20(sp)
a0804d84:	afbe0010 	sw	s8,16(sp)
a0804d88:	03a0f021 	move	s8,sp
a0804d8c:	afc40018 	sw	a0,24(s8)
a0804d90:	8fc20018 	lw	v0,24(s8)
a0804d94:	2404000a 	li	a0,10
a0804d98:	00402821 	move	a1,v0
a0804d9c:	00003021 	move	a2,zero
a0804da0:	00003821 	move	a3,zero
a0804da4:	0c200314 	jal	a0800c50 <invoke_syscall>
a0804da8:	00000000 	nop
a0804dac:	03c0e821 	move	sp,s8
a0804db0:	8fbf0014 	lw	ra,20(sp)
a0804db4:	8fbe0010 	lw	s8,16(sp)
a0804db8:	27bd0018 	addiu	sp,sp,24
a0804dbc:	03e00008 	jr	ra
a0804dc0:	00000000 	nop

a0804dc4 <sys_unblock_one>:
a0804dc4:	27bdffe8 	addiu	sp,sp,-24
a0804dc8:	afbf0014 	sw	ra,20(sp)
a0804dcc:	afbe0010 	sw	s8,16(sp)
a0804dd0:	03a0f021 	move	s8,sp
a0804dd4:	afc40018 	sw	a0,24(s8)
a0804dd8:	8fc20018 	lw	v0,24(s8)
a0804ddc:	2404000b 	li	a0,11
a0804de0:	00402821 	move	a1,v0
a0804de4:	00003021 	move	a2,zero
a0804de8:	00003821 	move	a3,zero
a0804dec:	0c200314 	jal	a0800c50 <invoke_syscall>
a0804df0:	00000000 	nop
a0804df4:	03c0e821 	move	sp,s8
a0804df8:	8fbf0014 	lw	ra,20(sp)
a0804dfc:	8fbe0010 	lw	s8,16(sp)
a0804e00:	27bd0018 	addiu	sp,sp,24
a0804e04:	03e00008 	jr	ra
a0804e08:	00000000 	nop

a0804e0c <sys_unblock_all>:
a0804e0c:	27bdffe8 	addiu	sp,sp,-24
a0804e10:	afbf0014 	sw	ra,20(sp)
a0804e14:	afbe0010 	sw	s8,16(sp)
a0804e18:	03a0f021 	move	s8,sp
a0804e1c:	afc40018 	sw	a0,24(s8)
a0804e20:	8fc20018 	lw	v0,24(s8)
a0804e24:	2404000c 	li	a0,12
a0804e28:	00402821 	move	a1,v0
a0804e2c:	00003021 	move	a2,zero
a0804e30:	00003821 	move	a3,zero
a0804e34:	0c200314 	jal	a0800c50 <invoke_syscall>
a0804e38:	00000000 	nop
a0804e3c:	03c0e821 	move	sp,s8
a0804e40:	8fbf0014 	lw	ra,20(sp)
a0804e44:	8fbe0010 	lw	s8,16(sp)
a0804e48:	27bd0018 	addiu	sp,sp,24
a0804e4c:	03e00008 	jr	ra
a0804e50:	00000000 	nop

a0804e54 <sys_write>:
a0804e54:	27bdffe8 	addiu	sp,sp,-24
a0804e58:	afbf0014 	sw	ra,20(sp)
a0804e5c:	afbe0010 	sw	s8,16(sp)
a0804e60:	03a0f021 	move	s8,sp
a0804e64:	afc40018 	sw	a0,24(s8)
a0804e68:	8fc20018 	lw	v0,24(s8)
a0804e6c:	24040014 	li	a0,20
a0804e70:	00402821 	move	a1,v0
a0804e74:	00003021 	move	a2,zero
a0804e78:	00003821 	move	a3,zero
a0804e7c:	0c200314 	jal	a0800c50 <invoke_syscall>
a0804e80:	00000000 	nop
a0804e84:	03c0e821 	move	sp,s8
a0804e88:	8fbf0014 	lw	ra,20(sp)
a0804e8c:	8fbe0010 	lw	s8,16(sp)
a0804e90:	27bd0018 	addiu	sp,sp,24
a0804e94:	03e00008 	jr	ra
a0804e98:	00000000 	nop

a0804e9c <sys_reflush>:
a0804e9c:	27bdffe8 	addiu	sp,sp,-24
a0804ea0:	afbf0014 	sw	ra,20(sp)
a0804ea4:	afbe0010 	sw	s8,16(sp)
a0804ea8:	03a0f021 	move	s8,sp
a0804eac:	24040017 	li	a0,23
a0804eb0:	00002821 	move	a1,zero
a0804eb4:	00003021 	move	a2,zero
a0804eb8:	00003821 	move	a3,zero
a0804ebc:	0c200314 	jal	a0800c50 <invoke_syscall>
a0804ec0:	00000000 	nop
a0804ec4:	03c0e821 	move	sp,s8
a0804ec8:	8fbf0014 	lw	ra,20(sp)
a0804ecc:	8fbe0010 	lw	s8,16(sp)
a0804ed0:	27bd0018 	addiu	sp,sp,24
a0804ed4:	03e00008 	jr	ra
a0804ed8:	00000000 	nop

a0804edc <sys_move_cursor>:
a0804edc:	27bdffe8 	addiu	sp,sp,-24
a0804ee0:	afbf0014 	sw	ra,20(sp)
a0804ee4:	afbe0010 	sw	s8,16(sp)
a0804ee8:	03a0f021 	move	s8,sp
a0804eec:	afc40018 	sw	a0,24(s8)
a0804ef0:	afc5001c 	sw	a1,28(s8)
a0804ef4:	24040016 	li	a0,22
a0804ef8:	8fc50018 	lw	a1,24(s8)
a0804efc:	8fc6001c 	lw	a2,28(s8)
a0804f00:	00003821 	move	a3,zero
a0804f04:	0c200314 	jal	a0800c50 <invoke_syscall>
a0804f08:	00000000 	nop
a0804f0c:	03c0e821 	move	sp,s8
a0804f10:	8fbf0014 	lw	ra,20(sp)
a0804f14:	8fbe0010 	lw	s8,16(sp)
a0804f18:	27bd0018 	addiu	sp,sp,24
a0804f1c:	03e00008 	jr	ra
a0804f20:	00000000 	nop

a0804f24 <mutex_lock_init>:
a0804f24:	27bdffe8 	addiu	sp,sp,-24
a0804f28:	afbf0014 	sw	ra,20(sp)
a0804f2c:	afbe0010 	sw	s8,16(sp)
a0804f30:	03a0f021 	move	s8,sp
a0804f34:	afc40018 	sw	a0,24(s8)
a0804f38:	8fc20018 	lw	v0,24(s8)
a0804f3c:	2404001a 	li	a0,26
a0804f40:	00402821 	move	a1,v0
a0804f44:	00003021 	move	a2,zero
a0804f48:	00003821 	move	a3,zero
a0804f4c:	0c200314 	jal	a0800c50 <invoke_syscall>
a0804f50:	00000000 	nop
a0804f54:	03c0e821 	move	sp,s8
a0804f58:	8fbf0014 	lw	ra,20(sp)
a0804f5c:	8fbe0010 	lw	s8,16(sp)
a0804f60:	27bd0018 	addiu	sp,sp,24
a0804f64:	03e00008 	jr	ra
a0804f68:	00000000 	nop

a0804f6c <mutex_lock_acquire>:
a0804f6c:	27bdffe8 	addiu	sp,sp,-24
a0804f70:	afbf0014 	sw	ra,20(sp)
a0804f74:	afbe0010 	sw	s8,16(sp)
a0804f78:	03a0f021 	move	s8,sp
a0804f7c:	afc40018 	sw	a0,24(s8)
a0804f80:	8fc20018 	lw	v0,24(s8)
a0804f84:	2404001b 	li	a0,27
a0804f88:	00402821 	move	a1,v0
a0804f8c:	00003021 	move	a2,zero
a0804f90:	00003821 	move	a3,zero
a0804f94:	0c200314 	jal	a0800c50 <invoke_syscall>
a0804f98:	00000000 	nop
a0804f9c:	03c0e821 	move	sp,s8
a0804fa0:	8fbf0014 	lw	ra,20(sp)
a0804fa4:	8fbe0010 	lw	s8,16(sp)
a0804fa8:	27bd0018 	addiu	sp,sp,24
a0804fac:	03e00008 	jr	ra
a0804fb0:	00000000 	nop

a0804fb4 <mutex_lock_release>:
a0804fb4:	27bdffe8 	addiu	sp,sp,-24
a0804fb8:	afbf0014 	sw	ra,20(sp)
a0804fbc:	afbe0010 	sw	s8,16(sp)
a0804fc0:	03a0f021 	move	s8,sp
a0804fc4:	afc40018 	sw	a0,24(s8)
a0804fc8:	8fc20018 	lw	v0,24(s8)
a0804fcc:	2404001c 	li	a0,28
a0804fd0:	00402821 	move	a1,v0
a0804fd4:	00003021 	move	a2,zero
a0804fd8:	00003821 	move	a3,zero
a0804fdc:	0c200314 	jal	a0800c50 <invoke_syscall>
a0804fe0:	00000000 	nop
a0804fe4:	03c0e821 	move	sp,s8
a0804fe8:	8fbf0014 	lw	ra,20(sp)
a0804fec:	8fbe0010 	lw	s8,16(sp)
a0804ff0:	27bd0018 	addiu	sp,sp,24
a0804ff4:	03e00008 	jr	ra
a0804ff8:	00000000 	nop

a0804ffc <condition_init>:
a0804ffc:	27bdffe8 	addiu	sp,sp,-24
a0805000:	afbf0014 	sw	ra,20(sp)
a0805004:	afbe0010 	sw	s8,16(sp)
a0805008:	03a0f021 	move	s8,sp
a080500c:	afc40018 	sw	a0,24(s8)
a0805010:	8fc20018 	lw	v0,24(s8)
a0805014:	24040022 	li	a0,34
a0805018:	00402821 	move	a1,v0
a080501c:	00003021 	move	a2,zero
a0805020:	00003821 	move	a3,zero
a0805024:	0c200314 	jal	a0800c50 <invoke_syscall>
a0805028:	00000000 	nop
a080502c:	03c0e821 	move	sp,s8
a0805030:	8fbf0014 	lw	ra,20(sp)
a0805034:	8fbe0010 	lw	s8,16(sp)
a0805038:	27bd0018 	addiu	sp,sp,24
a080503c:	03e00008 	jr	ra
a0805040:	00000000 	nop

a0805044 <condition_broadcast>:
a0805044:	27bdffe8 	addiu	sp,sp,-24
a0805048:	afbf0014 	sw	ra,20(sp)
a080504c:	afbe0010 	sw	s8,16(sp)
a0805050:	03a0f021 	move	s8,sp
a0805054:	afc40018 	sw	a0,24(s8)
a0805058:	8fc20018 	lw	v0,24(s8)
a080505c:	24040023 	li	a0,35
a0805060:	00402821 	move	a1,v0
a0805064:	00003021 	move	a2,zero
a0805068:	00003821 	move	a3,zero
a080506c:	0c200314 	jal	a0800c50 <invoke_syscall>
a0805070:	00000000 	nop
a0805074:	03c0e821 	move	sp,s8
a0805078:	8fbf0014 	lw	ra,20(sp)
a080507c:	8fbe0010 	lw	s8,16(sp)
a0805080:	27bd0018 	addiu	sp,sp,24
a0805084:	03e00008 	jr	ra
a0805088:	00000000 	nop

a080508c <condition_signal>:
a080508c:	27bdffe8 	addiu	sp,sp,-24
a0805090:	afbf0014 	sw	ra,20(sp)
a0805094:	afbe0010 	sw	s8,16(sp)
a0805098:	03a0f021 	move	s8,sp
a080509c:	afc40018 	sw	a0,24(s8)
a08050a0:	8fc20018 	lw	v0,24(s8)
a08050a4:	24040024 	li	a0,36
a08050a8:	00402821 	move	a1,v0
a08050ac:	00003021 	move	a2,zero
a08050b0:	00003821 	move	a3,zero
a08050b4:	0c200314 	jal	a0800c50 <invoke_syscall>
a08050b8:	00000000 	nop
a08050bc:	03c0e821 	move	sp,s8
a08050c0:	8fbf0014 	lw	ra,20(sp)
a08050c4:	8fbe0010 	lw	s8,16(sp)
a08050c8:	27bd0018 	addiu	sp,sp,24
a08050cc:	03e00008 	jr	ra
a08050d0:	00000000 	nop

a08050d4 <condition_wait>:
a08050d4:	27bdffe8 	addiu	sp,sp,-24
a08050d8:	afbf0014 	sw	ra,20(sp)
a08050dc:	afbe0010 	sw	s8,16(sp)
a08050e0:	03a0f021 	move	s8,sp
a08050e4:	afc40018 	sw	a0,24(s8)
a08050e8:	afc5001c 	sw	a1,28(s8)
a08050ec:	8fc20018 	lw	v0,24(s8)
a08050f0:	8fc3001c 	lw	v1,28(s8)
a08050f4:	24040025 	li	a0,37
a08050f8:	00402821 	move	a1,v0
a08050fc:	00603021 	move	a2,v1
a0805100:	00003821 	move	a3,zero
a0805104:	0c200314 	jal	a0800c50 <invoke_syscall>
a0805108:	00000000 	nop
a080510c:	03c0e821 	move	sp,s8
a0805110:	8fbf0014 	lw	ra,20(sp)
a0805114:	8fbe0010 	lw	s8,16(sp)
a0805118:	27bd0018 	addiu	sp,sp,24
a080511c:	03e00008 	jr	ra
a0805120:	00000000 	nop

a0805124 <sys_ps>:
a0805124:	27bdffe8 	addiu	sp,sp,-24
a0805128:	afbf0014 	sw	ra,20(sp)
a080512c:	afbe0010 	sw	s8,16(sp)
a0805130:	03a0f021 	move	s8,sp
a0805134:	24040019 	li	a0,25
a0805138:	00002821 	move	a1,zero
a080513c:	00003021 	move	a2,zero
a0805140:	00003821 	move	a3,zero
a0805144:	0c200314 	jal	a0800c50 <invoke_syscall>
a0805148:	00000000 	nop
a080514c:	03c0e821 	move	sp,s8
a0805150:	8fbf0014 	lw	ra,20(sp)
a0805154:	8fbe0010 	lw	s8,16(sp)
a0805158:	27bd0018 	addiu	sp,sp,24
a080515c:	03e00008 	jr	ra
a0805160:	00000000 	nop

a0805164 <sys_clear>:
a0805164:	27bdffe8 	addiu	sp,sp,-24
a0805168:	afbf0014 	sw	ra,20(sp)
a080516c:	afbe0010 	sw	s8,16(sp)
a0805170:	03a0f021 	move	s8,sp
a0805174:	afc40018 	sw	a0,24(s8)
a0805178:	afc5001c 	sw	a1,28(s8)
a080517c:	24040018 	li	a0,24
a0805180:	8fc50018 	lw	a1,24(s8)
a0805184:	8fc6001c 	lw	a2,28(s8)
a0805188:	00003821 	move	a3,zero
a080518c:	0c200314 	jal	a0800c50 <invoke_syscall>
a0805190:	00000000 	nop
a0805194:	03c0e821 	move	sp,s8
a0805198:	8fbf0014 	lw	ra,20(sp)
a080519c:	8fbe0010 	lw	s8,16(sp)
a08051a0:	27bd0018 	addiu	sp,sp,24
a08051a4:	03e00008 	jr	ra
a08051a8:	00000000 	nop

a08051ac <semaphore_init>:
a08051ac:	27bdffe8 	addiu	sp,sp,-24
a08051b0:	afbf0014 	sw	ra,20(sp)
a08051b4:	afbe0010 	sw	s8,16(sp)
a08051b8:	03a0f021 	move	s8,sp
a08051bc:	afc40018 	sw	a0,24(s8)
a08051c0:	afc5001c 	sw	a1,28(s8)
a08051c4:	8fc20018 	lw	v0,24(s8)
a08051c8:	24040027 	li	a0,39
a08051cc:	00402821 	move	a1,v0
a08051d0:	8fc6001c 	lw	a2,28(s8)
a08051d4:	00003821 	move	a3,zero
a08051d8:	0c200314 	jal	a0800c50 <invoke_syscall>
a08051dc:	00000000 	nop
a08051e0:	03c0e821 	move	sp,s8
a08051e4:	8fbf0014 	lw	ra,20(sp)
a08051e8:	8fbe0010 	lw	s8,16(sp)
a08051ec:	27bd0018 	addiu	sp,sp,24
a08051f0:	03e00008 	jr	ra
a08051f4:	00000000 	nop

a08051f8 <semaphore_up>:
a08051f8:	27bdffe8 	addiu	sp,sp,-24
a08051fc:	afbf0014 	sw	ra,20(sp)
a0805200:	afbe0010 	sw	s8,16(sp)
a0805204:	03a0f021 	move	s8,sp
a0805208:	afc40018 	sw	a0,24(s8)
a080520c:	8fc20018 	lw	v0,24(s8)
a0805210:	24040028 	li	a0,40
a0805214:	00402821 	move	a1,v0
a0805218:	00003021 	move	a2,zero
a080521c:	00003821 	move	a3,zero
a0805220:	0c200314 	jal	a0800c50 <invoke_syscall>
a0805224:	00000000 	nop
a0805228:	03c0e821 	move	sp,s8
a080522c:	8fbf0014 	lw	ra,20(sp)
a0805230:	8fbe0010 	lw	s8,16(sp)
a0805234:	27bd0018 	addiu	sp,sp,24
a0805238:	03e00008 	jr	ra
a080523c:	00000000 	nop

a0805240 <semaphore_down>:
a0805240:	27bdffe8 	addiu	sp,sp,-24
a0805244:	afbf0014 	sw	ra,20(sp)
a0805248:	afbe0010 	sw	s8,16(sp)
a080524c:	03a0f021 	move	s8,sp
a0805250:	afc40018 	sw	a0,24(s8)
a0805254:	8fc20018 	lw	v0,24(s8)
a0805258:	24040029 	li	a0,41
a080525c:	00402821 	move	a1,v0
a0805260:	00003021 	move	a2,zero
a0805264:	00003821 	move	a3,zero
a0805268:	0c200314 	jal	a0800c50 <invoke_syscall>
a080526c:	00000000 	nop
a0805270:	03c0e821 	move	sp,s8
a0805274:	8fbf0014 	lw	ra,20(sp)
a0805278:	8fbe0010 	lw	s8,16(sp)
a080527c:	27bd0018 	addiu	sp,sp,24
a0805280:	03e00008 	jr	ra
a0805284:	00000000 	nop

a0805288 <barrier_init>:
a0805288:	27bdffe8 	addiu	sp,sp,-24
a080528c:	afbf0014 	sw	ra,20(sp)
a0805290:	afbe0010 	sw	s8,16(sp)
a0805294:	03a0f021 	move	s8,sp
a0805298:	afc40018 	sw	a0,24(s8)
a080529c:	afc5001c 	sw	a1,28(s8)
a08052a0:	8fc20018 	lw	v0,24(s8)
a08052a4:	2404002b 	li	a0,43
a08052a8:	00402821 	move	a1,v0
a08052ac:	8fc6001c 	lw	a2,28(s8)
a08052b0:	00003821 	move	a3,zero
a08052b4:	0c200314 	jal	a0800c50 <invoke_syscall>
a08052b8:	00000000 	nop
a08052bc:	03c0e821 	move	sp,s8
a08052c0:	8fbf0014 	lw	ra,20(sp)
a08052c4:	8fbe0010 	lw	s8,16(sp)
a08052c8:	27bd0018 	addiu	sp,sp,24
a08052cc:	03e00008 	jr	ra
a08052d0:	00000000 	nop

a08052d4 <barrier_wait>:
a08052d4:	27bdffe8 	addiu	sp,sp,-24
a08052d8:	afbf0014 	sw	ra,20(sp)
a08052dc:	afbe0010 	sw	s8,16(sp)
a08052e0:	03a0f021 	move	s8,sp
a08052e4:	afc40018 	sw	a0,24(s8)
a08052e8:	8fc20018 	lw	v0,24(s8)
a08052ec:	2404002c 	li	a0,44
a08052f0:	00402821 	move	a1,v0
a08052f4:	00003021 	move	a2,zero
a08052f8:	00003821 	move	a3,zero
a08052fc:	0c200314 	jal	a0800c50 <invoke_syscall>
a0805300:	00000000 	nop
a0805304:	03c0e821 	move	sp,s8
a0805308:	8fbf0014 	lw	ra,20(sp)
a080530c:	8fbe0010 	lw	s8,16(sp)
a0805310:	27bd0018 	addiu	sp,sp,24
a0805314:	03e00008 	jr	ra
a0805318:	00000000 	nop

a080531c <sys_exit>:
a080531c:	27bdffe8 	addiu	sp,sp,-24
a0805320:	afbf0014 	sw	ra,20(sp)
a0805324:	afbe0010 	sw	s8,16(sp)
a0805328:	03a0f021 	move	s8,sp
a080532c:	2404002e 	li	a0,46
a0805330:	00002821 	move	a1,zero
a0805334:	00003021 	move	a2,zero
a0805338:	00003821 	move	a3,zero
a080533c:	0c200314 	jal	a0800c50 <invoke_syscall>
a0805340:	00000000 	nop
a0805344:	03c0e821 	move	sp,s8
a0805348:	8fbf0014 	lw	ra,20(sp)
a080534c:	8fbe0010 	lw	s8,16(sp)
a0805350:	27bd0018 	addiu	sp,sp,24
a0805354:	03e00008 	jr	ra
a0805358:	00000000 	nop

a080535c <sys_waitpid>:
a080535c:	27bdffe8 	addiu	sp,sp,-24
a0805360:	afbf0014 	sw	ra,20(sp)
a0805364:	afbe0010 	sw	s8,16(sp)
a0805368:	03a0f021 	move	s8,sp
a080536c:	afc40018 	sw	a0,24(s8)
a0805370:	2404002f 	li	a0,47
a0805374:	8fc50018 	lw	a1,24(s8)
a0805378:	00003021 	move	a2,zero
a080537c:	00003821 	move	a3,zero
a0805380:	0c200314 	jal	a0800c50 <invoke_syscall>
a0805384:	00000000 	nop
a0805388:	03c0e821 	move	sp,s8
a080538c:	8fbf0014 	lw	ra,20(sp)
a0805390:	8fbe0010 	lw	s8,16(sp)
a0805394:	27bd0018 	addiu	sp,sp,24
a0805398:	03e00008 	jr	ra
a080539c:	00000000 	nop

a08053a0 <sys_getpid>:
a08053a0:	27bdffe0 	addiu	sp,sp,-32
a08053a4:	afbf001c 	sw	ra,28(sp)
a08053a8:	afbe0018 	sw	s8,24(sp)
a08053ac:	03a0f021 	move	s8,sp
a08053b0:	24040032 	li	a0,50
a08053b4:	00002821 	move	a1,zero
a08053b8:	00003021 	move	a2,zero
a08053bc:	00003821 	move	a3,zero
a08053c0:	0c200314 	jal	a0800c50 <invoke_syscall>
a08053c4:	00000000 	nop
a08053c8:	03c0e821 	move	sp,s8
a08053cc:	8fbf001c 	lw	ra,28(sp)
a08053d0:	8fbe0018 	lw	s8,24(sp)
a08053d4:	27bd0020 	addiu	sp,sp,32
a08053d8:	03e00008 	jr	ra
a08053dc:	00000000 	nop

a08053e0 <sys_kill>:
a08053e0:	27bdffe8 	addiu	sp,sp,-24
a08053e4:	afbf0014 	sw	ra,20(sp)
a08053e8:	afbe0010 	sw	s8,16(sp)
a08053ec:	03a0f021 	move	s8,sp
a08053f0:	afc40018 	sw	a0,24(s8)
a08053f4:	24040031 	li	a0,49
a08053f8:	8fc50018 	lw	a1,24(s8)
a08053fc:	00003021 	move	a2,zero
a0805400:	00003821 	move	a3,zero
a0805404:	0c200314 	jal	a0800c50 <invoke_syscall>
a0805408:	00000000 	nop
a080540c:	03c0e821 	move	sp,s8
a0805410:	8fbf0014 	lw	ra,20(sp)
a0805414:	8fbe0010 	lw	s8,16(sp)
a0805418:	27bd0018 	addiu	sp,sp,24
a080541c:	03e00008 	jr	ra
a0805420:	00000000 	nop

a0805424 <sys_spawn>:
a0805424:	27bdffe8 	addiu	sp,sp,-24
a0805428:	afbf0014 	sw	ra,20(sp)
a080542c:	afbe0010 	sw	s8,16(sp)
a0805430:	03a0f021 	move	s8,sp
a0805434:	afc40018 	sw	a0,24(s8)
a0805438:	8fc20018 	lw	v0,24(s8)
a080543c:	24040030 	li	a0,48
a0805440:	00402821 	move	a1,v0
a0805444:	00003021 	move	a2,zero
a0805448:	00003821 	move	a3,zero
a080544c:	0c200314 	jal	a0800c50 <invoke_syscall>
a0805450:	00000000 	nop
a0805454:	03c0e821 	move	sp,s8
a0805458:	8fbf0014 	lw	ra,20(sp)
a080545c:	8fbe0010 	lw	s8,16(sp)
a0805460:	27bd0018 	addiu	sp,sp,24
a0805464:	03e00008 	jr	ra
a0805468:	00000000 	nop

a080546c <sys_mkfs>:
a080546c:	27bdffe8 	addiu	sp,sp,-24
a0805470:	afbf0014 	sw	ra,20(sp)
a0805474:	afbe0010 	sw	s8,16(sp)
a0805478:	03a0f021 	move	s8,sp
a080547c:	24040033 	li	a0,51
a0805480:	00002821 	move	a1,zero
a0805484:	00003021 	move	a2,zero
a0805488:	00003821 	move	a3,zero
a080548c:	0c200314 	jal	a0800c50 <invoke_syscall>
a0805490:	00000000 	nop
a0805494:	03c0e821 	move	sp,s8
a0805498:	8fbf0014 	lw	ra,20(sp)
a080549c:	8fbe0010 	lw	s8,16(sp)
a08054a0:	27bd0018 	addiu	sp,sp,24
a08054a4:	03e00008 	jr	ra
a08054a8:	00000000 	nop

a08054ac <sys_statfs>:
a08054ac:	27bdffe8 	addiu	sp,sp,-24
a08054b0:	afbf0014 	sw	ra,20(sp)
a08054b4:	afbe0010 	sw	s8,16(sp)
a08054b8:	03a0f021 	move	s8,sp
a08054bc:	24040034 	li	a0,52
a08054c0:	00002821 	move	a1,zero
a08054c4:	00003021 	move	a2,zero
a08054c8:	00003821 	move	a3,zero
a08054cc:	0c200314 	jal	a0800c50 <invoke_syscall>
a08054d0:	00000000 	nop
a08054d4:	03c0e821 	move	sp,s8
a08054d8:	8fbf0014 	lw	ra,20(sp)
a08054dc:	8fbe0010 	lw	s8,16(sp)
a08054e0:	27bd0018 	addiu	sp,sp,24
a08054e4:	03e00008 	jr	ra
a08054e8:	00000000 	nop

a08054ec <sys_ls>:
a08054ec:	27bdffe8 	addiu	sp,sp,-24
a08054f0:	afbf0014 	sw	ra,20(sp)
a08054f4:	afbe0010 	sw	s8,16(sp)
a08054f8:	03a0f021 	move	s8,sp
a08054fc:	24040035 	li	a0,53
a0805500:	00002821 	move	a1,zero
a0805504:	00003021 	move	a2,zero
a0805508:	00003821 	move	a3,zero
a080550c:	0c200314 	jal	a0800c50 <invoke_syscall>
a0805510:	00000000 	nop
a0805514:	03c0e821 	move	sp,s8
a0805518:	8fbf0014 	lw	ra,20(sp)
a080551c:	8fbe0010 	lw	s8,16(sp)
a0805520:	27bd0018 	addiu	sp,sp,24
a0805524:	03e00008 	jr	ra
a0805528:	00000000 	nop

a080552c <sys_cd>:
a080552c:	27bdffe8 	addiu	sp,sp,-24
a0805530:	afbf0014 	sw	ra,20(sp)
a0805534:	afbe0010 	sw	s8,16(sp)
a0805538:	03a0f021 	move	s8,sp
a080553c:	24040036 	li	a0,54
a0805540:	00002821 	move	a1,zero
a0805544:	00003021 	move	a2,zero
a0805548:	00003821 	move	a3,zero
a080554c:	0c200314 	jal	a0800c50 <invoke_syscall>
a0805550:	00000000 	nop
a0805554:	03c0e821 	move	sp,s8
a0805558:	8fbf0014 	lw	ra,20(sp)
a080555c:	8fbe0010 	lw	s8,16(sp)
a0805560:	27bd0018 	addiu	sp,sp,24
a0805564:	03e00008 	jr	ra
a0805568:	00000000 	nop

a080556c <sys_mkdir>:
a080556c:	27bdffe8 	addiu	sp,sp,-24
a0805570:	afbf0014 	sw	ra,20(sp)
a0805574:	afbe0010 	sw	s8,16(sp)
a0805578:	03a0f021 	move	s8,sp
a080557c:	24040037 	li	a0,55
a0805580:	00002821 	move	a1,zero
a0805584:	00003021 	move	a2,zero
a0805588:	00003821 	move	a3,zero
a080558c:	0c200314 	jal	a0800c50 <invoke_syscall>
a0805590:	00000000 	nop
a0805594:	03c0e821 	move	sp,s8
a0805598:	8fbf0014 	lw	ra,20(sp)
a080559c:	8fbe0010 	lw	s8,16(sp)
a08055a0:	27bd0018 	addiu	sp,sp,24
a08055a4:	03e00008 	jr	ra
a08055a8:	00000000 	nop

a08055ac <sys_rmdir>:
a08055ac:	27bdffe0 	addiu	sp,sp,-32
a08055b0:	afbf001c 	sw	ra,28(sp)
a08055b4:	afbe0018 	sw	s8,24(sp)
a08055b8:	03a0f021 	move	s8,sp
a08055bc:	24040038 	li	a0,56
a08055c0:	00002821 	move	a1,zero
a08055c4:	00003021 	move	a2,zero
a08055c8:	00003821 	move	a3,zero
a08055cc:	0c200314 	jal	a0800c50 <invoke_syscall>
a08055d0:	00000000 	nop
a08055d4:	03c0e821 	move	sp,s8
a08055d8:	8fbf001c 	lw	ra,28(sp)
a08055dc:	8fbe0018 	lw	s8,24(sp)
a08055e0:	27bd0020 	addiu	sp,sp,32
a08055e4:	03e00008 	jr	ra
a08055e8:	00000000 	nop

a08055ec <sys_touch>:
a08055ec:	27bdffe8 	addiu	sp,sp,-24
a08055f0:	afbf0014 	sw	ra,20(sp)
a08055f4:	afbe0010 	sw	s8,16(sp)
a08055f8:	03a0f021 	move	s8,sp
a08055fc:	24040039 	li	a0,57
a0805600:	00002821 	move	a1,zero
a0805604:	00003021 	move	a2,zero
a0805608:	00003821 	move	a3,zero
a080560c:	0c200314 	jal	a0800c50 <invoke_syscall>
a0805610:	00000000 	nop
a0805614:	03c0e821 	move	sp,s8
a0805618:	8fbf0014 	lw	ra,20(sp)
a080561c:	8fbe0010 	lw	s8,16(sp)
a0805620:	27bd0018 	addiu	sp,sp,24
a0805624:	03e00008 	jr	ra
a0805628:	00000000 	nop

a080562c <sys_cat>:
a080562c:	27bdffe0 	addiu	sp,sp,-32
a0805630:	afbf001c 	sw	ra,28(sp)
a0805634:	afbe0018 	sw	s8,24(sp)
a0805638:	03a0f021 	move	s8,sp
a080563c:	2404003a 	li	a0,58
a0805640:	00002821 	move	a1,zero
a0805644:	00003021 	move	a2,zero
a0805648:	00003821 	move	a3,zero
a080564c:	0c200314 	jal	a0800c50 <invoke_syscall>
a0805650:	00000000 	nop
a0805654:	03c0e821 	move	sp,s8
a0805658:	8fbf001c 	lw	ra,28(sp)
a080565c:	8fbe0018 	lw	s8,24(sp)
a0805660:	27bd0020 	addiu	sp,sp,32
a0805664:	03e00008 	jr	ra
a0805668:	00000000 	nop

a080566c <sys_fopen>:
a080566c:	27bdffe0 	addiu	sp,sp,-32
a0805670:	afbf001c 	sw	ra,28(sp)
a0805674:	afbe0018 	sw	s8,24(sp)
a0805678:	03a0f021 	move	s8,sp
a080567c:	afc40020 	sw	a0,32(s8)
a0805680:	afc50024 	sw	a1,36(s8)
a0805684:	8fc20020 	lw	v0,32(s8)
a0805688:	2404003b 	li	a0,59
a080568c:	00402821 	move	a1,v0
a0805690:	8fc60024 	lw	a2,36(s8)
a0805694:	00003821 	move	a3,zero
a0805698:	0c200314 	jal	a0800c50 <invoke_syscall>
a080569c:	00000000 	nop
a08056a0:	03c0e821 	move	sp,s8
a08056a4:	8fbf001c 	lw	ra,28(sp)
a08056a8:	8fbe0018 	lw	s8,24(sp)
a08056ac:	27bd0020 	addiu	sp,sp,32
a08056b0:	03e00008 	jr	ra
a08056b4:	00000000 	nop

a08056b8 <sys_fclose>:
a08056b8:	27bdffe8 	addiu	sp,sp,-24
a08056bc:	afbf0014 	sw	ra,20(sp)
a08056c0:	afbe0010 	sw	s8,16(sp)
a08056c4:	03a0f021 	move	s8,sp
a08056c8:	afc40018 	sw	a0,24(s8)
a08056cc:	2404003c 	li	a0,60
a08056d0:	8fc50018 	lw	a1,24(s8)
a08056d4:	00003021 	move	a2,zero
a08056d8:	00003821 	move	a3,zero
a08056dc:	0c200314 	jal	a0800c50 <invoke_syscall>
a08056e0:	00000000 	nop
a08056e4:	03c0e821 	move	sp,s8
a08056e8:	8fbf0014 	lw	ra,20(sp)
a08056ec:	8fbe0010 	lw	s8,16(sp)
a08056f0:	27bd0018 	addiu	sp,sp,24
a08056f4:	03e00008 	jr	ra
a08056f8:	00000000 	nop

a08056fc <sys_fread>:
a08056fc:	27bdffe0 	addiu	sp,sp,-32
a0805700:	afbf001c 	sw	ra,28(sp)
a0805704:	afbe0018 	sw	s8,24(sp)
a0805708:	03a0f021 	move	s8,sp
a080570c:	afc40020 	sw	a0,32(s8)
a0805710:	afc50024 	sw	a1,36(s8)
a0805714:	afc60028 	sw	a2,40(s8)
a0805718:	8fc20024 	lw	v0,36(s8)
a080571c:	2404003d 	li	a0,61
a0805720:	8fc50020 	lw	a1,32(s8)
a0805724:	00403021 	move	a2,v0
a0805728:	8fc70028 	lw	a3,40(s8)
a080572c:	0c200314 	jal	a0800c50 <invoke_syscall>
a0805730:	00000000 	nop
a0805734:	03c0e821 	move	sp,s8
a0805738:	8fbf001c 	lw	ra,28(sp)
a080573c:	8fbe0018 	lw	s8,24(sp)
a0805740:	27bd0020 	addiu	sp,sp,32
a0805744:	03e00008 	jr	ra
a0805748:	00000000 	nop

a080574c <sys_fwrite>:
a080574c:	27bdffe0 	addiu	sp,sp,-32
a0805750:	afbf001c 	sw	ra,28(sp)
a0805754:	afbe0018 	sw	s8,24(sp)
a0805758:	03a0f021 	move	s8,sp
a080575c:	afc40020 	sw	a0,32(s8)
a0805760:	afc50024 	sw	a1,36(s8)
a0805764:	afc60028 	sw	a2,40(s8)
a0805768:	8fc20024 	lw	v0,36(s8)
a080576c:	2404003e 	li	a0,62
a0805770:	8fc50020 	lw	a1,32(s8)
a0805774:	00403021 	move	a2,v0
a0805778:	8fc70028 	lw	a3,40(s8)
a080577c:	0c200314 	jal	a0800c50 <invoke_syscall>
a0805780:	00000000 	nop
a0805784:	03c0e821 	move	sp,s8
a0805788:	8fbf001c 	lw	ra,28(sp)
a080578c:	8fbe0018 	lw	s8,24(sp)
a0805790:	27bd0020 	addiu	sp,sp,32
a0805794:	03e00008 	jr	ra
a0805798:	00000000 	nop

a080579c <sys_launch>:
a080579c:	27bdffe8 	addiu	sp,sp,-24
a08057a0:	afbf0014 	sw	ra,20(sp)
a08057a4:	afbe0010 	sw	s8,16(sp)
a08057a8:	03a0f021 	move	s8,sp
a08057ac:	2404003f 	li	a0,63
a08057b0:	00002821 	move	a1,zero
a08057b4:	00003021 	move	a2,zero
a08057b8:	00003821 	move	a3,zero
a08057bc:	0c200314 	jal	a0800c50 <invoke_syscall>
a08057c0:	00000000 	nop
a08057c4:	03c0e821 	move	sp,s8
a08057c8:	8fbf0014 	lw	ra,20(sp)
a08057cc:	8fbe0010 	lw	s8,16(sp)
a08057d0:	27bd0018 	addiu	sp,sp,24
a08057d4:	03e00008 	jr	ra
a08057d8:	00000000 	nop

a08057dc <sys_net_recv>:
a08057dc:	27bdffe0 	addiu	sp,sp,-32
a08057e0:	afbf001c 	sw	ra,28(sp)
a08057e4:	afbe0018 	sw	s8,24(sp)
a08057e8:	03a0f021 	move	s8,sp
a08057ec:	afc40020 	sw	a0,32(s8)
a08057f0:	afc50024 	sw	a1,36(s8)
a08057f4:	afc60028 	sw	a2,40(s8)
a08057f8:	8fc20020 	lw	v0,32(s8)
a08057fc:	8fc30024 	lw	v1,36(s8)
a0805800:	8fc70028 	lw	a3,40(s8)
a0805804:	2404001f 	li	a0,31
a0805808:	00402821 	move	a1,v0
a080580c:	00603021 	move	a2,v1
a0805810:	0c200314 	jal	a0800c50 <invoke_syscall>
a0805814:	00000000 	nop
a0805818:	03c0e821 	move	sp,s8
a080581c:	8fbf001c 	lw	ra,28(sp)
a0805820:	8fbe0018 	lw	s8,24(sp)
a0805824:	27bd0020 	addiu	sp,sp,32
a0805828:	03e00008 	jr	ra
a080582c:	00000000 	nop

a0805830 <sys_init_mac>:
a0805830:	27bdffe8 	addiu	sp,sp,-24
a0805834:	afbf0014 	sw	ra,20(sp)
a0805838:	afbe0010 	sw	s8,16(sp)
a080583c:	03a0f021 	move	s8,sp
a0805840:	24040020 	li	a0,32
a0805844:	00002821 	move	a1,zero
a0805848:	00003021 	move	a2,zero
a080584c:	00003821 	move	a3,zero
a0805850:	0c200314 	jal	a0800c50 <invoke_syscall>
a0805854:	00000000 	nop
a0805858:	03c0e821 	move	sp,s8
a080585c:	8fbf0014 	lw	ra,20(sp)
a0805860:	8fbe0010 	lw	s8,16(sp)
a0805864:	27bd0018 	addiu	sp,sp,24
a0805868:	03e00008 	jr	ra
a080586c:	00000000 	nop

a0805870 <sys_wait_recv_package>:
a0805870:	27bdffe8 	addiu	sp,sp,-24
a0805874:	afbf0014 	sw	ra,20(sp)
a0805878:	afbe0010 	sw	s8,16(sp)
a080587c:	03a0f021 	move	s8,sp
a0805880:	24040021 	li	a0,33
a0805884:	00002821 	move	a1,zero
a0805888:	00003021 	move	a2,zero
a080588c:	00003821 	move	a3,zero
a0805890:	0c200314 	jal	a0800c50 <invoke_syscall>
a0805894:	00000000 	nop
a0805898:	03c0e821 	move	sp,s8
a080589c:	8fbf0014 	lw	ra,20(sp)
a08058a0:	8fbe0010 	lw	s8,16(sp)
a08058a4:	27bd0018 	addiu	sp,sp,24
a08058a8:	03e00008 	jr	ra
a08058ac:	00000000 	nop

a08058b0 <strlen>:
a08058b0:	27bdfff0 	addiu	sp,sp,-16
a08058b4:	afbe000c 	sw	s8,12(sp)
a08058b8:	03a0f021 	move	s8,sp
a08058bc:	afc40010 	sw	a0,16(s8)
a08058c0:	afc00000 	sw	zero,0(s8)
a08058c4:	08201636 	j	a08058d8 <strlen+0x28>
a08058c8:	00000000 	nop
a08058cc:	8fc20000 	lw	v0,0(s8)
a08058d0:	24420001 	addiu	v0,v0,1
a08058d4:	afc20000 	sw	v0,0(s8)
a08058d8:	8fc30000 	lw	v1,0(s8)
a08058dc:	8fc20010 	lw	v0,16(s8)
a08058e0:	00431021 	addu	v0,v0,v1
a08058e4:	80420000 	lb	v0,0(v0)
a08058e8:	1440fff8 	bnez	v0,a08058cc <strlen+0x1c>
a08058ec:	00000000 	nop
a08058f0:	8fc20000 	lw	v0,0(s8)
a08058f4:	03c0e821 	move	sp,s8
a08058f8:	8fbe000c 	lw	s8,12(sp)
a08058fc:	27bd0010 	addiu	sp,sp,16
a0805900:	03e00008 	jr	ra
a0805904:	00000000 	nop

a0805908 <memcpy>:
a0805908:	27bdfff8 	addiu	sp,sp,-8
a080590c:	afbe0004 	sw	s8,4(sp)
a0805910:	03a0f021 	move	s8,sp
a0805914:	afc40008 	sw	a0,8(s8)
a0805918:	afc5000c 	sw	a1,12(s8)
a080591c:	afc60010 	sw	a2,16(s8)
a0805920:	08201657 	j	a080595c <memcpy+0x54>
a0805924:	00000000 	nop
a0805928:	8fc2000c 	lw	v0,12(s8)
a080592c:	90430000 	lbu	v1,0(v0)
a0805930:	8fc20008 	lw	v0,8(s8)
a0805934:	a0430000 	sb	v1,0(v0)
a0805938:	8fc20008 	lw	v0,8(s8)
a080593c:	24420001 	addiu	v0,v0,1
a0805940:	afc20008 	sw	v0,8(s8)
a0805944:	8fc2000c 	lw	v0,12(s8)
a0805948:	24420001 	addiu	v0,v0,1
a080594c:	afc2000c 	sw	v0,12(s8)
a0805950:	8fc20010 	lw	v0,16(s8)
a0805954:	2442ffff 	addiu	v0,v0,-1
a0805958:	afc20010 	sw	v0,16(s8)
a080595c:	8fc20010 	lw	v0,16(s8)
a0805960:	1440fff1 	bnez	v0,a0805928 <memcpy+0x20>
a0805964:	00000000 	nop
a0805968:	03c0e821 	move	sp,s8
a080596c:	8fbe0004 	lw	s8,4(sp)
a0805970:	27bd0008 	addiu	sp,sp,8
a0805974:	03e00008 	jr	ra
a0805978:	00000000 	nop

a080597c <memset>:
a080597c:	27bdfff0 	addiu	sp,sp,-16
a0805980:	afbe000c 	sw	s8,12(sp)
a0805984:	03a0f021 	move	s8,sp
a0805988:	afc40010 	sw	a0,16(s8)
a080598c:	00a01021 	move	v0,a1
a0805990:	afc60018 	sw	a2,24(s8)
a0805994:	a3c20014 	sb	v0,20(s8)
a0805998:	8fc20010 	lw	v0,16(s8)
a080599c:	afc20000 	sw	v0,0(s8)
a08059a0:	08201673 	j	a08059cc <memset+0x50>
a08059a4:	00000000 	nop
a08059a8:	8fc30000 	lw	v1,0(s8)
a08059ac:	93c20014 	lbu	v0,20(s8)
a08059b0:	a0620000 	sb	v0,0(v1)
a08059b4:	8fc20000 	lw	v0,0(s8)
a08059b8:	24420001 	addiu	v0,v0,1
a08059bc:	afc20000 	sw	v0,0(s8)
a08059c0:	8fc20018 	lw	v0,24(s8)
a08059c4:	2442ffff 	addiu	v0,v0,-1
a08059c8:	afc20018 	sw	v0,24(s8)
a08059cc:	8fc20018 	lw	v0,24(s8)
a08059d0:	1440fff5 	bnez	v0,a08059a8 <memset+0x2c>
a08059d4:	00000000 	nop
a08059d8:	03c0e821 	move	sp,s8
a08059dc:	8fbe000c 	lw	s8,12(sp)
a08059e0:	27bd0010 	addiu	sp,sp,16
a08059e4:	03e00008 	jr	ra
a08059e8:	00000000 	nop

a08059ec <bzero>:
a08059ec:	27bdffe8 	addiu	sp,sp,-24
a08059f0:	afbf0014 	sw	ra,20(sp)
a08059f4:	afbe0010 	sw	s8,16(sp)
a08059f8:	03a0f021 	move	s8,sp
a08059fc:	afc40018 	sw	a0,24(s8)
a0805a00:	afc5001c 	sw	a1,28(s8)
a0805a04:	8fc40018 	lw	a0,24(s8)
a0805a08:	00002821 	move	a1,zero
a0805a0c:	8fc6001c 	lw	a2,28(s8)
a0805a10:	0c20165f 	jal	a080597c <memset>
a0805a14:	00000000 	nop
a0805a18:	03c0e821 	move	sp,s8
a0805a1c:	8fbf0014 	lw	ra,20(sp)
a0805a20:	8fbe0010 	lw	s8,16(sp)
a0805a24:	27bd0018 	addiu	sp,sp,24
a0805a28:	03e00008 	jr	ra
a0805a2c:	00000000 	nop

a0805a30 <strcmp>:
a0805a30:	27bdfff0 	addiu	sp,sp,-16
a0805a34:	afbe000c 	sw	s8,12(sp)
a0805a38:	03a0f021 	move	s8,sp
a0805a3c:	afc40010 	sw	a0,16(s8)
a0805a40:	afc50014 	sw	a1,20(s8)
a0805a44:	08201699 	j	a0805a64 <strcmp+0x34>
a0805a48:	00000000 	nop
a0805a4c:	8fc20010 	lw	v0,16(s8)
a0805a50:	24420001 	addiu	v0,v0,1
a0805a54:	afc20010 	sw	v0,16(s8)
a0805a58:	8fc20014 	lw	v0,20(s8)
a0805a5c:	24420001 	addiu	v0,v0,1
a0805a60:	afc20014 	sw	v0,20(s8)
a0805a64:	8fc20010 	lw	v0,16(s8)
a0805a68:	80420000 	lb	v0,0(v0)
a0805a6c:	1040000b 	beqz	v0,a0805a9c <strcmp+0x6c>
a0805a70:	00000000 	nop
a0805a74:	8fc20014 	lw	v0,20(s8)
a0805a78:	80420000 	lb	v0,0(v0)
a0805a7c:	10400007 	beqz	v0,a0805a9c <strcmp+0x6c>
a0805a80:	00000000 	nop
a0805a84:	8fc20010 	lw	v0,16(s8)
a0805a88:	80430000 	lb	v1,0(v0)
a0805a8c:	8fc20014 	lw	v0,20(s8)
a0805a90:	80420000 	lb	v0,0(v0)
a0805a94:	1062ffed 	beq	v1,v0,a0805a4c <strcmp+0x1c>
a0805a98:	00000000 	nop
a0805a9c:	8fc20010 	lw	v0,16(s8)
a0805aa0:	80420000 	lb	v0,0(v0)
a0805aa4:	14400008 	bnez	v0,a0805ac8 <strcmp+0x98>
a0805aa8:	00000000 	nop
a0805aac:	8fc20014 	lw	v0,20(s8)
a0805ab0:	80420000 	lb	v0,0(v0)
a0805ab4:	14400004 	bnez	v0,a0805ac8 <strcmp+0x98>
a0805ab8:	00000000 	nop
a0805abc:	afc00000 	sw	zero,0(s8)
a0805ac0:	082016bc 	j	a0805af0 <strcmp+0xc0>
a0805ac4:	00000000 	nop
a0805ac8:	8fc20010 	lw	v0,16(s8)
a0805acc:	80420000 	lb	v0,0(v0)
a0805ad0:	14400005 	bnez	v0,a0805ae8 <strcmp+0xb8>
a0805ad4:	00000000 	nop
a0805ad8:	2402ffff 	li	v0,-1
a0805adc:	afc20000 	sw	v0,0(s8)
a0805ae0:	082016bc 	j	a0805af0 <strcmp+0xc0>
a0805ae4:	00000000 	nop
a0805ae8:	24020001 	li	v0,1
a0805aec:	afc20000 	sw	v0,0(s8)
a0805af0:	8fc20000 	lw	v0,0(s8)
a0805af4:	03c0e821 	move	sp,s8
a0805af8:	8fbe000c 	lw	s8,12(sp)
a0805afc:	27bd0010 	addiu	sp,sp,16
a0805b00:	03e00008 	jr	ra
a0805b04:	00000000 	nop

a0805b08 <strcpy>:
a0805b08:	27bdfff0 	addiu	sp,sp,-16
a0805b0c:	afbe000c 	sw	s8,12(sp)
a0805b10:	03a0f021 	move	s8,sp
a0805b14:	afc40010 	sw	a0,16(s8)
a0805b18:	afc50014 	sw	a1,20(s8)
a0805b1c:	8fc20010 	lw	v0,16(s8)
a0805b20:	afc20000 	sw	v0,0(s8)
a0805b24:	082016d5 	j	a0805b54 <strcpy+0x4c>
a0805b28:	00000000 	nop
a0805b2c:	8fc20014 	lw	v0,20(s8)
a0805b30:	80430000 	lb	v1,0(v0)
a0805b34:	8fc20010 	lw	v0,16(s8)
a0805b38:	a0430000 	sb	v1,0(v0)
a0805b3c:	8fc20010 	lw	v0,16(s8)
a0805b40:	24420001 	addiu	v0,v0,1
a0805b44:	afc20010 	sw	v0,16(s8)
a0805b48:	8fc20014 	lw	v0,20(s8)
a0805b4c:	24420001 	addiu	v0,v0,1
a0805b50:	afc20014 	sw	v0,20(s8)
a0805b54:	8fc20014 	lw	v0,20(s8)
a0805b58:	80420000 	lb	v0,0(v0)
a0805b5c:	1440fff3 	bnez	v0,a0805b2c <strcpy+0x24>
a0805b60:	00000000 	nop
a0805b64:	8fc20010 	lw	v0,16(s8)
a0805b68:	a0400000 	sb	zero,0(v0)
a0805b6c:	8fc20000 	lw	v0,0(s8)
a0805b70:	03c0e821 	move	sp,s8
a0805b74:	8fbe000c 	lw	s8,12(sp)
a0805b78:	27bd0010 	addiu	sp,sp,16
a0805b7c:	03e00008 	jr	ra
a0805b80:	00000000 	nop
	...

a0805b90 <mini_strlen>:
a0805b90:	27bdfff0 	addiu	sp,sp,-16
a0805b94:	afbe000c 	sw	s8,12(sp)
a0805b98:	03a0f021 	move	s8,sp
a0805b9c:	afc40010 	sw	a0,16(s8)
a0805ba0:	afc00000 	sw	zero,0(s8)
a0805ba4:	082016ee 	j	a0805bb8 <mini_strlen+0x28>
a0805ba8:	00000000 	nop
a0805bac:	8fc20000 	lw	v0,0(s8)
a0805bb0:	24420001 	addiu	v0,v0,1
a0805bb4:	afc20000 	sw	v0,0(s8)
a0805bb8:	8fc30010 	lw	v1,16(s8)
a0805bbc:	8fc20000 	lw	v0,0(s8)
a0805bc0:	00621021 	addu	v0,v1,v0
a0805bc4:	80420000 	lb	v0,0(v0)
a0805bc8:	1440fff8 	bnez	v0,a0805bac <mini_strlen+0x1c>
a0805bcc:	00000000 	nop
a0805bd0:	8fc20000 	lw	v0,0(s8)
a0805bd4:	03c0e821 	move	sp,s8
a0805bd8:	8fbe000c 	lw	s8,12(sp)
a0805bdc:	27bd0010 	addiu	sp,sp,16
a0805be0:	03e00008 	jr	ra
a0805be4:	00000000 	nop

a0805be8 <mini_itoa>:
a0805be8:	27bdffc8 	addiu	sp,sp,-56
a0805bec:	afbe0034 	sw	s8,52(sp)
a0805bf0:	03a0f021 	move	s8,sp
a0805bf4:	afc40038 	sw	a0,56(s8)
a0805bf8:	afc5003c 	sw	a1,60(s8)
a0805bfc:	afc60040 	sw	a2,64(s8)
a0805c00:	afc70044 	sw	a3,68(s8)
a0805c04:	8fc20048 	lw	v0,72(s8)
a0805c08:	afc20014 	sw	v0,20(s8)
a0805c0c:	afc00010 	sw	zero,16(s8)
a0805c10:	8fc2003c 	lw	v0,60(s8)
a0805c14:	2c420011 	sltiu	v0,v0,17
a0805c18:	14400004 	bnez	v0,a0805c2c <mini_itoa+0x44>
a0805c1c:	00000000 	nop
a0805c20:	afc00020 	sw	zero,32(s8)
a0805c24:	08201794 	j	a0805e50 <mini_itoa+0x268>
a0805c28:	00000000 	nop
a0805c2c:	8fc20038 	lw	v0,56(s8)
a0805c30:	04410009 	bgez	v0,a0805c58 <mini_itoa+0x70>
a0805c34:	00000000 	nop
a0805c38:	8fc20044 	lw	v0,68(s8)
a0805c3c:	14400006 	bnez	v0,a0805c58 <mini_itoa+0x70>
a0805c40:	00000000 	nop
a0805c44:	24020001 	li	v0,1
a0805c48:	afc20010 	sw	v0,16(s8)
a0805c4c:	8fc20038 	lw	v0,56(s8)
a0805c50:	00021023 	negu	v0,v0
a0805c54:	afc20038 	sw	v0,56(s8)
a0805c58:	8fc30038 	lw	v1,56(s8)
a0805c5c:	8fc2003c 	lw	v0,60(s8)
a0805c60:	0062001b 	divu	zero,v1,v0
a0805c64:	004001f4 	teq	v0,zero,0x7
a0805c68:	00001010 	mfhi	v0
a0805c6c:	afc20004 	sw	v0,4(s8)
a0805c70:	8fc20004 	lw	v0,4(s8)
a0805c74:	2842000a 	slti	v0,v0,10
a0805c78:	1040000a 	beqz	v0,a0805ca4 <mini_itoa+0xbc>
a0805c7c:	00000000 	nop
a0805c80:	8fc20004 	lw	v0,4(s8)
a0805c84:	304200ff 	andi	v0,v0,0xff
a0805c88:	24420030 	addiu	v0,v0,48
a0805c8c:	304200ff 	andi	v0,v0,0xff
a0805c90:	00021600 	sll	v0,v0,0x18
a0805c94:	00021603 	sra	v0,v0,0x18
a0805c98:	afc2001c 	sw	v0,28(s8)
a0805c9c:	0820173c 	j	a0805cf0 <mini_itoa+0x108>
a0805ca0:	00000000 	nop
a0805ca4:	8fc20040 	lw	v0,64(s8)
a0805ca8:	10400005 	beqz	v0,a0805cc0 <mini_itoa+0xd8>
a0805cac:	00000000 	nop
a0805cb0:	24020041 	li	v0,65
a0805cb4:	afc20018 	sw	v0,24(s8)
a0805cb8:	08201732 	j	a0805cc8 <mini_itoa+0xe0>
a0805cbc:	00000000 	nop
a0805cc0:	24030061 	li	v1,97
a0805cc4:	afc30018 	sw	v1,24(s8)
a0805cc8:	8fc20004 	lw	v0,4(s8)
a0805ccc:	304200ff 	andi	v0,v0,0xff
a0805cd0:	8fc40018 	lw	a0,24(s8)
a0805cd4:	00821021 	addu	v0,a0,v0
a0805cd8:	304200ff 	andi	v0,v0,0xff
a0805cdc:	2442fff6 	addiu	v0,v0,-10
a0805ce0:	304200ff 	andi	v0,v0,0xff
a0805ce4:	00021600 	sll	v0,v0,0x18
a0805ce8:	00021603 	sra	v0,v0,0x18
a0805cec:	afc2001c 	sw	v0,28(s8)
a0805cf0:	8fc20014 	lw	v0,20(s8)
a0805cf4:	8fc3001c 	lw	v1,28(s8)
a0805cf8:	a0430000 	sb	v1,0(v0)
a0805cfc:	8fc20014 	lw	v0,20(s8)
a0805d00:	24420001 	addiu	v0,v0,1
a0805d04:	afc20014 	sw	v0,20(s8)
a0805d08:	8fc30038 	lw	v1,56(s8)
a0805d0c:	8fc2003c 	lw	v0,60(s8)
a0805d10:	0062001b 	divu	zero,v1,v0
a0805d14:	004001f4 	teq	v0,zero,0x7
a0805d18:	00001012 	mflo	v0
a0805d1c:	afc20038 	sw	v0,56(s8)
a0805d20:	8fc20038 	lw	v0,56(s8)
a0805d24:	1c40ffcc 	bgtz	v0,a0805c58 <mini_itoa+0x70>
a0805d28:	00000000 	nop
a0805d2c:	8fc20014 	lw	v0,20(s8)
a0805d30:	8fc30048 	lw	v1,72(s8)
a0805d34:	00431023 	subu	v0,v0,v1
a0805d38:	afc2000c 	sw	v0,12(s8)
a0805d3c:	0820175a 	j	a0805d68 <mini_itoa+0x180>
a0805d40:	00000000 	nop
a0805d44:	8fc30014 	lw	v1,20(s8)
a0805d48:	24020030 	li	v0,48
a0805d4c:	a0620000 	sb	v0,0(v1)
a0805d50:	8fc20014 	lw	v0,20(s8)
a0805d54:	24420001 	addiu	v0,v0,1
a0805d58:	afc20014 	sw	v0,20(s8)
a0805d5c:	8fc2000c 	lw	v0,12(s8)
a0805d60:	24420001 	addiu	v0,v0,1
a0805d64:	afc2000c 	sw	v0,12(s8)
a0805d68:	8fc2000c 	lw	v0,12(s8)
a0805d6c:	8fc3004c 	lw	v1,76(s8)
a0805d70:	0043102b 	sltu	v0,v0,v1
a0805d74:	1440fff3 	bnez	v0,a0805d44 <mini_itoa+0x15c>
a0805d78:	00000000 	nop
a0805d7c:	8fc20010 	lw	v0,16(s8)
a0805d80:	10400007 	beqz	v0,a0805da0 <mini_itoa+0x1b8>
a0805d84:	00000000 	nop
a0805d88:	8fc30014 	lw	v1,20(s8)
a0805d8c:	2402002d 	li	v0,45
a0805d90:	a0620000 	sb	v0,0(v1)
a0805d94:	8fc20014 	lw	v0,20(s8)
a0805d98:	24420001 	addiu	v0,v0,1
a0805d9c:	afc20014 	sw	v0,20(s8)
a0805da0:	8fc20014 	lw	v0,20(s8)
a0805da4:	a0400000 	sb	zero,0(v0)
a0805da8:	8fc30014 	lw	v1,20(s8)
a0805dac:	8fc20048 	lw	v0,72(s8)
a0805db0:	00621023 	subu	v0,v1,v0
a0805db4:	afc20008 	sw	v0,8(s8)
a0805db8:	afc0000c 	sw	zero,12(s8)
a0805dbc:	0820178c 	j	a0805e30 <mini_itoa+0x248>
a0805dc0:	00000000 	nop
a0805dc4:	8fc30048 	lw	v1,72(s8)
a0805dc8:	8fc2000c 	lw	v0,12(s8)
a0805dcc:	00621021 	addu	v0,v1,v0
a0805dd0:	90420000 	lbu	v0,0(v0)
a0805dd4:	a3c20000 	sb	v0,0(s8)
a0805dd8:	8fc30048 	lw	v1,72(s8)
a0805ddc:	8fc2000c 	lw	v0,12(s8)
a0805de0:	00622021 	addu	a0,v1,v0
a0805de4:	8fc30008 	lw	v1,8(s8)
a0805de8:	8fc2000c 	lw	v0,12(s8)
a0805dec:	00621023 	subu	v0,v1,v0
a0805df0:	2443ffff 	addiu	v1,v0,-1
a0805df4:	8fc20048 	lw	v0,72(s8)
a0805df8:	00431021 	addu	v0,v0,v1
a0805dfc:	80420000 	lb	v0,0(v0)
a0805e00:	a0820000 	sb	v0,0(a0)
a0805e04:	8fc30008 	lw	v1,8(s8)
a0805e08:	8fc2000c 	lw	v0,12(s8)
a0805e0c:	00621023 	subu	v0,v1,v0
a0805e10:	2443ffff 	addiu	v1,v0,-1
a0805e14:	8fc20048 	lw	v0,72(s8)
a0805e18:	00431821 	addu	v1,v0,v1
a0805e1c:	93c20000 	lbu	v0,0(s8)
a0805e20:	a0620000 	sb	v0,0(v1)
a0805e24:	8fc2000c 	lw	v0,12(s8)
a0805e28:	24420001 	addiu	v0,v0,1
a0805e2c:	afc2000c 	sw	v0,12(s8)
a0805e30:	8fc20008 	lw	v0,8(s8)
a0805e34:	00021842 	srl	v1,v0,0x1
a0805e38:	8fc2000c 	lw	v0,12(s8)
a0805e3c:	0043102b 	sltu	v0,v0,v1
a0805e40:	1440ffe0 	bnez	v0,a0805dc4 <mini_itoa+0x1dc>
a0805e44:	00000000 	nop
a0805e48:	8fc20008 	lw	v0,8(s8)
a0805e4c:	afc20020 	sw	v0,32(s8)
a0805e50:	8fc20020 	lw	v0,32(s8)
a0805e54:	03c0e821 	move	sp,s8
a0805e58:	8fbe0034 	lw	s8,52(sp)
a0805e5c:	27bd0038 	addiu	sp,sp,56
a0805e60:	03e00008 	jr	ra
a0805e64:	00000000 	nop

a0805e68 <_putc>:
a0805e68:	27bdfff0 	addiu	sp,sp,-16
a0805e6c:	afbe000c 	sw	s8,12(sp)
a0805e70:	03a0f021 	move	s8,sp
a0805e74:	afc40010 	sw	a0,16(s8)
a0805e78:	afc50014 	sw	a1,20(s8)
a0805e7c:	8fc20014 	lw	v0,20(s8)
a0805e80:	8c420004 	lw	v0,4(v0)
a0805e84:	00401821 	move	v1,v0
a0805e88:	8fc20014 	lw	v0,20(s8)
a0805e8c:	8c420000 	lw	v0,0(v0)
a0805e90:	00621023 	subu	v0,v1,v0
a0805e94:	24420001 	addiu	v0,v0,1
a0805e98:	00401821 	move	v1,v0
a0805e9c:	8fc20014 	lw	v0,20(s8)
a0805ea0:	8c420008 	lw	v0,8(v0)
a0805ea4:	0062102b 	sltu	v0,v1,v0
a0805ea8:	14400004 	bnez	v0,a0805ebc <_putc+0x54>
a0805eac:	00000000 	nop
a0805eb0:	afc00000 	sw	zero,0(s8)
a0805eb4:	082017bd 	j	a0805ef4 <_putc+0x8c>
a0805eb8:	00000000 	nop
a0805ebc:	8fc20014 	lw	v0,20(s8)
a0805ec0:	8c430004 	lw	v1,4(v0)
a0805ec4:	8fc20010 	lw	v0,16(s8)
a0805ec8:	00021600 	sll	v0,v0,0x18
a0805ecc:	00021603 	sra	v0,v0,0x18
a0805ed0:	a0620000 	sb	v0,0(v1)
a0805ed4:	24630001 	addiu	v1,v1,1
a0805ed8:	8fc20014 	lw	v0,20(s8)
a0805edc:	ac430004 	sw	v1,4(v0)
a0805ee0:	8fc20014 	lw	v0,20(s8)
a0805ee4:	8c420004 	lw	v0,4(v0)
a0805ee8:	a0400000 	sb	zero,0(v0)
a0805eec:	24020001 	li	v0,1
a0805ef0:	afc20000 	sw	v0,0(s8)
a0805ef4:	8fc20000 	lw	v0,0(s8)
a0805ef8:	03c0e821 	move	sp,s8
a0805efc:	8fbe000c 	lw	s8,12(sp)
a0805f00:	27bd0010 	addiu	sp,sp,16
a0805f04:	03e00008 	jr	ra
a0805f08:	00000000 	nop

a0805f0c <_puts>:
a0805f0c:	27bdfff0 	addiu	sp,sp,-16
a0805f10:	afbe000c 	sw	s8,12(sp)
a0805f14:	03a0f021 	move	s8,sp
a0805f18:	afc40010 	sw	a0,16(s8)
a0805f1c:	afc50014 	sw	a1,20(s8)
a0805f20:	afc60018 	sw	a2,24(s8)
a0805f24:	8fc20018 	lw	v0,24(s8)
a0805f28:	8c440008 	lw	a0,8(v0)
a0805f2c:	8fc20018 	lw	v0,24(s8)
a0805f30:	8c420000 	lw	v0,0(v0)
a0805f34:	00401821 	move	v1,v0
a0805f38:	8fc20018 	lw	v0,24(s8)
a0805f3c:	8c420004 	lw	v0,4(v0)
a0805f40:	00621023 	subu	v0,v1,v0
a0805f44:	00821021 	addu	v0,a0,v0
a0805f48:	2443ffff 	addiu	v1,v0,-1
a0805f4c:	8fc20014 	lw	v0,20(s8)
a0805f50:	0062102b 	sltu	v0,v1,v0
a0805f54:	1040000c 	beqz	v0,a0805f88 <_puts+0x7c>
a0805f58:	00000000 	nop
a0805f5c:	8fc20018 	lw	v0,24(s8)
a0805f60:	8c440008 	lw	a0,8(v0)
a0805f64:	8fc20018 	lw	v0,24(s8)
a0805f68:	8c420000 	lw	v0,0(v0)
a0805f6c:	00401821 	move	v1,v0
a0805f70:	8fc20018 	lw	v0,24(s8)
a0805f74:	8c420004 	lw	v0,4(v0)
a0805f78:	00621023 	subu	v0,v1,v0
a0805f7c:	00821021 	addu	v0,a0,v0
a0805f80:	2442ffff 	addiu	v0,v0,-1
a0805f84:	afc20014 	sw	v0,20(s8)
a0805f88:	afc00000 	sw	zero,0(s8)
a0805f8c:	082017f2 	j	a0805fc8 <_puts+0xbc>
a0805f90:	00000000 	nop
a0805f94:	8fc20018 	lw	v0,24(s8)
a0805f98:	8c440004 	lw	a0,4(v0)
a0805f9c:	8fc30010 	lw	v1,16(s8)
a0805fa0:	8fc20000 	lw	v0,0(s8)
a0805fa4:	00621021 	addu	v0,v1,v0
a0805fa8:	80420000 	lb	v0,0(v0)
a0805fac:	a0820000 	sb	v0,0(a0)
a0805fb0:	24830001 	addiu	v1,a0,1
a0805fb4:	8fc20018 	lw	v0,24(s8)
a0805fb8:	ac430004 	sw	v1,4(v0)
a0805fbc:	8fc20000 	lw	v0,0(s8)
a0805fc0:	24420001 	addiu	v0,v0,1
a0805fc4:	afc20000 	sw	v0,0(s8)
a0805fc8:	8fc20000 	lw	v0,0(s8)
a0805fcc:	8fc30014 	lw	v1,20(s8)
a0805fd0:	0043102b 	sltu	v0,v0,v1
a0805fd4:	1440ffef 	bnez	v0,a0805f94 <_puts+0x88>
a0805fd8:	00000000 	nop
a0805fdc:	8fc20018 	lw	v0,24(s8)
a0805fe0:	8c420004 	lw	v0,4(v0)
a0805fe4:	a0400000 	sb	zero,0(v0)
a0805fe8:	8fc20014 	lw	v0,20(s8)
a0805fec:	03c0e821 	move	sp,s8
a0805ff0:	8fbe000c 	lw	s8,12(sp)
a0805ff4:	27bd0010 	addiu	sp,sp,16
a0805ff8:	03e00008 	jr	ra
a0805ffc:	00000000 	nop

a0806000 <mini_vsnprintf>:
a0806000:	27bdffa8 	addiu	sp,sp,-88
a0806004:	afbf0054 	sw	ra,84(sp)
a0806008:	afbe0050 	sw	s8,80(sp)
a080600c:	03a0f021 	move	s8,sp
a0806010:	afc40058 	sw	a0,88(s8)
a0806014:	afc5005c 	sw	a1,92(s8)
a0806018:	afc60060 	sw	a2,96(s8)
a080601c:	afc70064 	sw	a3,100(s8)
a0806020:	8fc20058 	lw	v0,88(s8)
a0806024:	afc20024 	sw	v0,36(s8)
a0806028:	8fc20058 	lw	v0,88(s8)
a080602c:	afc20028 	sw	v0,40(s8)
a0806030:	8fc2005c 	lw	v0,92(s8)
a0806034:	afc2002c 	sw	v0,44(s8)
a0806038:	082018cc 	j	a0806330 <mini_vsnprintf+0x330>
a080603c:	00000000 	nop
a0806040:	8fc20028 	lw	v0,40(s8)
a0806044:	00401821 	move	v1,v0
a0806048:	8fc20024 	lw	v0,36(s8)
a080604c:	00621023 	subu	v0,v1,v0
a0806050:	24420001 	addiu	v0,v0,1
a0806054:	00401821 	move	v1,v0
a0806058:	8fc2002c 	lw	v0,44(s8)
a080605c:	0062102b 	sltu	v0,v1,v0
a0806060:	104000be 	beqz	v0,a080635c <mini_vsnprintf+0x35c>
a0806064:	00000000 	nop
a0806068:	83c30021 	lb	v1,33(s8)
a080606c:	24020025 	li	v0,37
a0806070:	10620009 	beq	v1,v0,a0806098 <mini_vsnprintf+0x98>
a0806074:	00000000 	nop
a0806078:	83c20021 	lb	v0,33(s8)
a080607c:	27c30024 	addiu	v1,s8,36
a0806080:	00402021 	move	a0,v0
a0806084:	00602821 	move	a1,v1
a0806088:	0c20179a 	jal	a0805e68 <_putc>
a080608c:	00000000 	nop
a0806090:	082018cc 	j	a0806330 <mini_vsnprintf+0x330>
a0806094:	00000000 	nop
a0806098:	a3c00020 	sb	zero,32(s8)
a080609c:	8fc20060 	lw	v0,96(s8)
a08060a0:	90420000 	lbu	v0,0(v0)
a08060a4:	a3c20021 	sb	v0,33(s8)
a08060a8:	8fc20060 	lw	v0,96(s8)
a08060ac:	24420001 	addiu	v0,v0,1
a08060b0:	afc20060 	sw	v0,96(s8)
a08060b4:	83c30021 	lb	v1,33(s8)
a08060b8:	24020030 	li	v0,48
a08060bc:	1462001c 	bne	v1,v0,a0806130 <mini_vsnprintf+0x130>
a08060c0:	00000000 	nop
a08060c4:	8fc20060 	lw	v0,96(s8)
a08060c8:	90420000 	lbu	v0,0(v0)
a08060cc:	a3c20021 	sb	v0,33(s8)
a08060d0:	8fc20060 	lw	v0,96(s8)
a08060d4:	24420001 	addiu	v0,v0,1
a08060d8:	afc20060 	sw	v0,96(s8)
a08060dc:	83c20021 	lb	v0,33(s8)
a08060e0:	1040009e 	beqz	v0,a080635c <mini_vsnprintf+0x35c>
a08060e4:	00000000 	nop
a08060e8:	83c20021 	lb	v0,33(s8)
a08060ec:	28420030 	slti	v0,v0,48
a08060f0:	14400009 	bnez	v0,a0806118 <mini_vsnprintf+0x118>
a08060f4:	00000000 	nop
a08060f8:	83c20021 	lb	v0,33(s8)
a08060fc:	2842003a 	slti	v0,v0,58
a0806100:	10400005 	beqz	v0,a0806118 <mini_vsnprintf+0x118>
a0806104:	00000000 	nop
a0806108:	93c20021 	lbu	v0,33(s8)
a080610c:	2442ffd0 	addiu	v0,v0,-48
a0806110:	304200ff 	andi	v0,v0,0xff
a0806114:	a3c20020 	sb	v0,32(s8)
a0806118:	8fc20060 	lw	v0,96(s8)
a080611c:	90420000 	lbu	v0,0(v0)
a0806120:	a3c20021 	sb	v0,33(s8)
a0806124:	8fc20060 	lw	v0,96(s8)
a0806128:	24420001 	addiu	v0,v0,1
a080612c:	afc20060 	sw	v0,96(s8)
a0806130:	83c20021 	lb	v0,33(s8)
a0806134:	afc20048 	sw	v0,72(s8)
a0806138:	24020064 	li	v0,100
a080613c:	8fc30048 	lw	v1,72(s8)
a0806140:	10620020 	beq	v1,v0,a08061c4 <mini_vsnprintf+0x1c4>
a0806144:	00000000 	nop
a0806148:	8fc30048 	lw	v1,72(s8)
a080614c:	28620065 	slti	v0,v1,101
a0806150:	1040000e 	beqz	v0,a080618c <mini_vsnprintf+0x18c>
a0806154:	00000000 	nop
a0806158:	24020058 	li	v0,88
a080615c:	8fc30048 	lw	v1,72(s8)
a0806160:	10620033 	beq	v1,v0,a0806230 <mini_vsnprintf+0x230>
a0806164:	00000000 	nop
a0806168:	24020063 	li	v0,99
a080616c:	8fc30048 	lw	v1,72(s8)
a0806170:	1062004a 	beq	v1,v0,a080629c <mini_vsnprintf+0x29c>
a0806174:	00000000 	nop
a0806178:	8fc20048 	lw	v0,72(s8)
a080617c:	10400077 	beqz	v0,a080635c <mini_vsnprintf+0x35c>
a0806180:	00000000 	nop
a0806184:	082018c6 	j	a0806318 <mini_vsnprintf+0x318>
a0806188:	00000000 	nop
a080618c:	24020075 	li	v0,117
a0806190:	8fc30048 	lw	v1,72(s8)
a0806194:	1062000b 	beq	v1,v0,a08061c4 <mini_vsnprintf+0x1c4>
a0806198:	00000000 	nop
a080619c:	24020078 	li	v0,120
a08061a0:	8fc30048 	lw	v1,72(s8)
a08061a4:	10620022 	beq	v1,v0,a0806230 <mini_vsnprintf+0x230>
a08061a8:	00000000 	nop
a08061ac:	24020073 	li	v0,115
a08061b0:	8fc30048 	lw	v1,72(s8)
a08061b4:	10620047 	beq	v1,v0,a08062d4 <mini_vsnprintf+0x2d4>
a08061b8:	00000000 	nop
a08061bc:	082018c6 	j	a0806318 <mini_vsnprintf+0x318>
a08061c0:	00000000 	nop
a08061c4:	8fc30064 	lw	v1,100(s8)
a08061c8:	24620004 	addiu	v0,v1,4
a08061cc:	afc20064 	sw	v0,100(s8)
a08061d0:	00601021 	move	v0,v1
a08061d4:	8c420000 	lw	v0,0(v0)
a08061d8:	00402021 	move	a0,v0
a08061dc:	83c20021 	lb	v0,33(s8)
a08061e0:	38420075 	xori	v0,v0,0x75
a08061e4:	2c470001 	sltiu	a3,v0,1
a08061e8:	83c30020 	lb	v1,32(s8)
a08061ec:	27c20030 	addiu	v0,s8,48
a08061f0:	afa20010 	sw	v0,16(sp)
a08061f4:	afa30014 	sw	v1,20(sp)
a08061f8:	2405000a 	li	a1,10
a08061fc:	00003021 	move	a2,zero
a0806200:	0c2016fa 	jal	a0805be8 <mini_itoa>
a0806204:	00000000 	nop
a0806208:	afc20018 	sw	v0,24(s8)
a080620c:	27c20030 	addiu	v0,s8,48
a0806210:	27c30024 	addiu	v1,s8,36
a0806214:	00402021 	move	a0,v0
a0806218:	8fc50018 	lw	a1,24(s8)
a080621c:	00603021 	move	a2,v1
a0806220:	0c2017c3 	jal	a0805f0c <_puts>
a0806224:	00000000 	nop
a0806228:	082018cc 	j	a0806330 <mini_vsnprintf+0x330>
a080622c:	00000000 	nop
a0806230:	8fc30064 	lw	v1,100(s8)
a0806234:	24620004 	addiu	v0,v1,4
a0806238:	afc20064 	sw	v0,100(s8)
a080623c:	00601021 	move	v0,v1
a0806240:	8c420000 	lw	v0,0(v0)
a0806244:	00402021 	move	a0,v0
a0806248:	83c20021 	lb	v0,33(s8)
a080624c:	38420058 	xori	v0,v0,0x58
a0806250:	2c460001 	sltiu	a2,v0,1
a0806254:	83c30020 	lb	v1,32(s8)
a0806258:	27c20030 	addiu	v0,s8,48
a080625c:	afa20010 	sw	v0,16(sp)
a0806260:	afa30014 	sw	v1,20(sp)
a0806264:	24050010 	li	a1,16
a0806268:	24070001 	li	a3,1
a080626c:	0c2016fa 	jal	a0805be8 <mini_itoa>
a0806270:	00000000 	nop
a0806274:	afc20018 	sw	v0,24(s8)
a0806278:	27c20030 	addiu	v0,s8,48
a080627c:	27c30024 	addiu	v1,s8,36
a0806280:	00402021 	move	a0,v0
a0806284:	8fc50018 	lw	a1,24(s8)
a0806288:	00603021 	move	a2,v1
a080628c:	0c2017c3 	jal	a0805f0c <_puts>
a0806290:	00000000 	nop
a0806294:	082018cc 	j	a0806330 <mini_vsnprintf+0x330>
a0806298:	00000000 	nop
a080629c:	8fc30064 	lw	v1,100(s8)
a08062a0:	24620004 	addiu	v0,v1,4
a08062a4:	afc20064 	sw	v0,100(s8)
a08062a8:	00601021 	move	v0,v1
a08062ac:	8c420000 	lw	v0,0(v0)
a08062b0:	00021600 	sll	v0,v0,0x18
a08062b4:	00021603 	sra	v0,v0,0x18
a08062b8:	27c30024 	addiu	v1,s8,36
a08062bc:	00402021 	move	a0,v0
a08062c0:	00602821 	move	a1,v1
a08062c4:	0c20179a 	jal	a0805e68 <_putc>
a08062c8:	00000000 	nop
a08062cc:	082018cc 	j	a0806330 <mini_vsnprintf+0x330>
a08062d0:	00000000 	nop
a08062d4:	8fc30064 	lw	v1,100(s8)
a08062d8:	24620004 	addiu	v0,v1,4
a08062dc:	afc20064 	sw	v0,100(s8)
a08062e0:	00601021 	move	v0,v1
a08062e4:	8c420000 	lw	v0,0(v0)
a08062e8:	afc2001c 	sw	v0,28(s8)
a08062ec:	8fc4001c 	lw	a0,28(s8)
a08062f0:	0c2016e4 	jal	a0805b90 <mini_strlen>
a08062f4:	00000000 	nop
a08062f8:	27c30024 	addiu	v1,s8,36
a08062fc:	8fc4001c 	lw	a0,28(s8)
a0806300:	00402821 	move	a1,v0
a0806304:	00603021 	move	a2,v1
a0806308:	0c2017c3 	jal	a0805f0c <_puts>
a080630c:	00000000 	nop
a0806310:	082018cc 	j	a0806330 <mini_vsnprintf+0x330>
a0806314:	00000000 	nop
a0806318:	83c20021 	lb	v0,33(s8)
a080631c:	27c30024 	addiu	v1,s8,36
a0806320:	00402021 	move	a0,v0
a0806324:	00602821 	move	a1,v1
a0806328:	0c20179a 	jal	a0805e68 <_putc>
a080632c:	00000000 	nop
a0806330:	8fc20060 	lw	v0,96(s8)
a0806334:	90420000 	lbu	v0,0(v0)
a0806338:	a3c20021 	sb	v0,33(s8)
a080633c:	83c20021 	lb	v0,33(s8)
a0806340:	0002102b 	sltu	v0,zero,v0
a0806344:	304300ff 	andi	v1,v0,0xff
a0806348:	8fc20060 	lw	v0,96(s8)
a080634c:	24420001 	addiu	v0,v0,1
a0806350:	afc20060 	sw	v0,96(s8)
a0806354:	1460ff3a 	bnez	v1,a0806040 <mini_vsnprintf+0x40>
a0806358:	00000000 	nop
a080635c:	8fc20028 	lw	v0,40(s8)
a0806360:	00401821 	move	v1,v0
a0806364:	8fc20024 	lw	v0,36(s8)
a0806368:	00621023 	subu	v0,v1,v0
a080636c:	03c0e821 	move	sp,s8
a0806370:	8fbf0054 	lw	ra,84(sp)
a0806374:	8fbe0050 	lw	s8,80(sp)
a0806378:	27bd0058 	addiu	sp,sp,88
a080637c:	03e00008 	jr	ra
a0806380:	00000000 	nop

a0806384 <printk>:
a0806384:	27bdfee0 	addiu	sp,sp,-288
a0806388:	afbf011c 	sw	ra,284(sp)
a080638c:	afbe0118 	sw	s8,280(sp)
a0806390:	03a0f021 	move	s8,sp
a0806394:	afc50124 	sw	a1,292(s8)
a0806398:	afc60128 	sw	a2,296(s8)
a080639c:	afc7012c 	sw	a3,300(s8)
a08063a0:	afc40120 	sw	a0,288(s8)
a08063a4:	27c20124 	addiu	v0,s8,292
a08063a8:	afc20014 	sw	v0,20(s8)
a08063ac:	8fc30014 	lw	v1,20(s8)
a08063b0:	27c20018 	addiu	v0,s8,24
a08063b4:	00402021 	move	a0,v0
a08063b8:	24050100 	li	a1,256
a08063bc:	8fc60120 	lw	a2,288(s8)
a08063c0:	00603821 	move	a3,v1
a08063c4:	0c201800 	jal	a0806000 <mini_vsnprintf>
a08063c8:	00000000 	nop
a08063cc:	afc20010 	sw	v0,16(s8)
a08063d0:	8fc30010 	lw	v1,16(s8)
a08063d4:	27c20010 	addiu	v0,s8,16
a08063d8:	00431021 	addu	v0,v0,v1
a08063dc:	a0400008 	sb	zero,8(v0)
a08063e0:	27c20018 	addiu	v0,s8,24
a08063e4:	00402021 	move	a0,v0
a08063e8:	0c20032c 	jal	a0800cb0 <port_write>
a08063ec:	00000000 	nop
a08063f0:	8fc20010 	lw	v0,16(s8)
a08063f4:	03c0e821 	move	sp,s8
a08063f8:	8fbf011c 	lw	ra,284(sp)
a08063fc:	8fbe0118 	lw	s8,280(sp)
a0806400:	27bd0120 	addiu	sp,sp,288
a0806404:	03e00008 	jr	ra
a0806408:	00000000 	nop

a080640c <printf>:
a080640c:	27bdfee0 	addiu	sp,sp,-288
a0806410:	afbf011c 	sw	ra,284(sp)
a0806414:	afbe0118 	sw	s8,280(sp)
a0806418:	03a0f021 	move	s8,sp
a080641c:	afc50124 	sw	a1,292(s8)
a0806420:	afc60128 	sw	a2,296(s8)
a0806424:	afc7012c 	sw	a3,300(s8)
a0806428:	afc40120 	sw	a0,288(s8)
a080642c:	27c20124 	addiu	v0,s8,292
a0806430:	afc20014 	sw	v0,20(s8)
a0806434:	8fc30014 	lw	v1,20(s8)
a0806438:	27c20018 	addiu	v0,s8,24
a080643c:	00402021 	move	a0,v0
a0806440:	24050100 	li	a1,256
a0806444:	8fc60120 	lw	a2,288(s8)
a0806448:	00603821 	move	a3,v1
a080644c:	0c201800 	jal	a0806000 <mini_vsnprintf>
a0806450:	00000000 	nop
a0806454:	afc20010 	sw	v0,16(s8)
a0806458:	8fc30010 	lw	v1,16(s8)
a080645c:	27c20010 	addiu	v0,s8,16
a0806460:	00431021 	addu	v0,v0,v1
a0806464:	a0400008 	sb	zero,8(v0)
a0806468:	27c20018 	addiu	v0,s8,24
a080646c:	00402021 	move	a0,v0
a0806470:	0c201395 	jal	a0804e54 <sys_write>
a0806474:	00000000 	nop
a0806478:	8fc20010 	lw	v0,16(s8)
a080647c:	03c0e821 	move	sp,s8
a0806480:	8fbf011c 	lw	ra,284(sp)
a0806484:	8fbe0118 	lw	s8,280(sp)
a0806488:	27bd0120 	addiu	sp,sp,288
a080648c:	03e00008 	jr	ra
a0806490:	00000000 	nop
	...

a08064a0 <read_block>:
a08064a0:	27bdffe8 	addiu	sp,sp,-24
a08064a4:	afbf0014 	sw	ra,20(sp)
a08064a8:	afbe0010 	sw	s8,16(sp)
a08064ac:	03a0f021 	move	s8,sp
a08064b0:	afc40018 	sw	a0,24(s8)
a08064b4:	8fc30018 	lw	v1,24(s8)
a08064b8:	3c020001 	lui	v0,0x1
a08064bc:	00621021 	addu	v0,v1,v0
a08064c0:	00021b00 	sll	v1,v0,0xc
a08064c4:	3c02a0ff 	lui	v0,0xa0ff
a08064c8:	34444000 	ori	a0,v0,0x4000
a08064cc:	00602821 	move	a1,v1
a08064d0:	24061000 	li	a2,4096
a08064d4:	0c202b5a 	jal	a080ad68 <.pic.sdread>
a08064d8:	00000000 	nop
a08064dc:	03c0e821 	move	sp,s8
a08064e0:	8fbf0014 	lw	ra,20(sp)
a08064e4:	8fbe0010 	lw	s8,16(sp)
a08064e8:	27bd0018 	addiu	sp,sp,24
a08064ec:	03e00008 	jr	ra
a08064f0:	00000000 	nop

a08064f4 <write_block>:
a08064f4:	27bdffe8 	addiu	sp,sp,-24
a08064f8:	afbf0014 	sw	ra,20(sp)
a08064fc:	afbe0010 	sw	s8,16(sp)
a0806500:	03a0f021 	move	s8,sp
a0806504:	afc40018 	sw	a0,24(s8)
a0806508:	8fc30018 	lw	v1,24(s8)
a080650c:	3c020001 	lui	v0,0x1
a0806510:	00621021 	addu	v0,v1,v0
a0806514:	00021b00 	sll	v1,v0,0xc
a0806518:	3c02a0ff 	lui	v0,0xa0ff
a080651c:	34444000 	ori	a0,v0,0x4000
a0806520:	00602821 	move	a1,v1
a0806524:	24061000 	li	a2,4096
a0806528:	0c202b3a 	jal	a080ace8 <.pic.sdwrite>
a080652c:	00000000 	nop
a0806530:	03c0e821 	move	sp,s8
a0806534:	8fbf0014 	lw	ra,20(sp)
a0806538:	8fbe0010 	lw	s8,16(sp)
a080653c:	27bd0018 	addiu	sp,sp,24
a0806540:	03e00008 	jr	ra
a0806544:	00000000 	nop

a0806548 <read_imap>:
a0806548:	27bdffe8 	addiu	sp,sp,-24
a080654c:	afbf0014 	sw	ra,20(sp)
a0806550:	afbe0010 	sw	s8,16(sp)
a0806554:	03a0f021 	move	s8,sp
a0806558:	3c02a0ff 	lui	v0,0xa0ff
a080655c:	34444000 	ori	a0,v0,0x4000
a0806560:	3c021000 	lui	v0,0x1000
a0806564:	34451000 	ori	a1,v0,0x1000
a0806568:	24061000 	li	a2,4096
a080656c:	0c202b5a 	jal	a080ad68 <.pic.sdread>
a0806570:	00000000 	nop
a0806574:	03c0e821 	move	sp,s8
a0806578:	8fbf0014 	lw	ra,20(sp)
a080657c:	8fbe0010 	lw	s8,16(sp)
a0806580:	27bd0018 	addiu	sp,sp,24
a0806584:	03e00008 	jr	ra
a0806588:	00000000 	nop

a080658c <write_imap>:
a080658c:	27bdffe8 	addiu	sp,sp,-24
a0806590:	afbf0014 	sw	ra,20(sp)
a0806594:	afbe0010 	sw	s8,16(sp)
a0806598:	03a0f021 	move	s8,sp
a080659c:	3c02a0ff 	lui	v0,0xa0ff
a08065a0:	34444000 	ori	a0,v0,0x4000
a08065a4:	3c021000 	lui	v0,0x1000
a08065a8:	34451000 	ori	a1,v0,0x1000
a08065ac:	24061000 	li	a2,4096
a08065b0:	0c202b3a 	jal	a080ace8 <.pic.sdwrite>
a08065b4:	00000000 	nop
a08065b8:	03c0e821 	move	sp,s8
a08065bc:	8fbf0014 	lw	ra,20(sp)
a08065c0:	8fbe0010 	lw	s8,16(sp)
a08065c4:	27bd0018 	addiu	sp,sp,24
a08065c8:	03e00008 	jr	ra
a08065cc:	00000000 	nop

a08065d0 <read_bmap>:
a08065d0:	27bdffe8 	addiu	sp,sp,-24
a08065d4:	afbf0014 	sw	ra,20(sp)
a08065d8:	afbe0010 	sw	s8,16(sp)
a08065dc:	03a0f021 	move	s8,sp
a08065e0:	3c02a0ff 	lui	v0,0xa0ff
a08065e4:	34444000 	ori	a0,v0,0x4000
a08065e8:	3c021000 	lui	v0,0x1000
a08065ec:	34452000 	ori	a1,v0,0x2000
a08065f0:	34068000 	li	a2,0x8000
a08065f4:	0c202b5a 	jal	a080ad68 <.pic.sdread>
a08065f8:	00000000 	nop
a08065fc:	03c0e821 	move	sp,s8
a0806600:	8fbf0014 	lw	ra,20(sp)
a0806604:	8fbe0010 	lw	s8,16(sp)
a0806608:	27bd0018 	addiu	sp,sp,24
a080660c:	03e00008 	jr	ra
a0806610:	00000000 	nop

a0806614 <write_bmap>:
a0806614:	27bdffe8 	addiu	sp,sp,-24
a0806618:	afbf0014 	sw	ra,20(sp)
a080661c:	afbe0010 	sw	s8,16(sp)
a0806620:	03a0f021 	move	s8,sp
a0806624:	3c02a0ff 	lui	v0,0xa0ff
a0806628:	34444000 	ori	a0,v0,0x4000
a080662c:	3c021000 	lui	v0,0x1000
a0806630:	34452000 	ori	a1,v0,0x2000
a0806634:	34068000 	li	a2,0x8000
a0806638:	0c202b3a 	jal	a080ace8 <.pic.sdwrite>
a080663c:	00000000 	nop
a0806640:	03c0e821 	move	sp,s8
a0806644:	8fbf0014 	lw	ra,20(sp)
a0806648:	8fbe0010 	lw	s8,16(sp)
a080664c:	27bd0018 	addiu	sp,sp,24
a0806650:	03e00008 	jr	ra
a0806654:	00000000 	nop

a0806658 <read_inode>:
a0806658:	27bdffe0 	addiu	sp,sp,-32
a080665c:	afbf001c 	sw	ra,28(sp)
a0806660:	afbe0018 	sw	s8,24(sp)
a0806664:	03a0f021 	move	s8,sp
a0806668:	00801021 	move	v0,a0
a080666c:	a7c20020 	sh	v0,32(s8)
a0806670:	97c20020 	lhu	v0,32(s8)
a0806674:	00021102 	srl	v0,v0,0x4
a0806678:	a7c20012 	sh	v0,18(s8)
a080667c:	97c20020 	lhu	v0,32(s8)
a0806680:	3042000f 	andi	v0,v0,0xf
a0806684:	a7c20010 	sh	v0,16(s8)
a0806688:	97c30012 	lhu	v1,18(s8)
a080668c:	3c020008 	lui	v0,0x8
a0806690:	34420050 	ori	v0,v0,0x50
a0806694:	00621021 	addu	v0,v1,v0
a0806698:	00021a40 	sll	v1,v0,0x9
a080669c:	3c02a0ff 	lui	v0,0xa0ff
a08066a0:	34444000 	ori	a0,v0,0x4000
a08066a4:	00602821 	move	a1,v1
a08066a8:	24060200 	li	a2,512
a08066ac:	0c202b5a 	jal	a080ad68 <.pic.sdread>
a08066b0:	00000000 	nop
a08066b4:	3c02a081 	lui	v0,0xa081
a08066b8:	2444f948 	addiu	a0,v0,-1720
a08066bc:	97c30010 	lhu	v1,16(s8)
a08066c0:	3c020283 	lui	v0,0x283
a08066c4:	3442fd00 	ori	v0,v0,0xfd00
a08066c8:	00621021 	addu	v0,v1,v0
a08066cc:	00021180 	sll	v0,v0,0x6
a08066d0:	00402821 	move	a1,v0
a08066d4:	24060040 	li	a2,64
a08066d8:	0c201642 	jal	a0805908 <memcpy>
a08066dc:	00000000 	nop
a08066e0:	03c0e821 	move	sp,s8
a08066e4:	8fbf001c 	lw	ra,28(sp)
a08066e8:	8fbe0018 	lw	s8,24(sp)
a08066ec:	27bd0020 	addiu	sp,sp,32
a08066f0:	03e00008 	jr	ra
a08066f4:	00000000 	nop

a08066f8 <write_inode>:
a08066f8:	27bdffe0 	addiu	sp,sp,-32
a08066fc:	afbf001c 	sw	ra,28(sp)
a0806700:	afbe0018 	sw	s8,24(sp)
a0806704:	03a0f021 	move	s8,sp
a0806708:	00801021 	move	v0,a0
a080670c:	a7c20020 	sh	v0,32(s8)
a0806710:	97c20020 	lhu	v0,32(s8)
a0806714:	00021102 	srl	v0,v0,0x4
a0806718:	a7c20012 	sh	v0,18(s8)
a080671c:	97c20020 	lhu	v0,32(s8)
a0806720:	3042000f 	andi	v0,v0,0xf
a0806724:	a7c20010 	sh	v0,16(s8)
a0806728:	97c30012 	lhu	v1,18(s8)
a080672c:	3c020008 	lui	v0,0x8
a0806730:	34420050 	ori	v0,v0,0x50
a0806734:	00621021 	addu	v0,v1,v0
a0806738:	00021a40 	sll	v1,v0,0x9
a080673c:	3c02a0ff 	lui	v0,0xa0ff
a0806740:	34444000 	ori	a0,v0,0x4000
a0806744:	00602821 	move	a1,v1
a0806748:	24060200 	li	a2,512
a080674c:	0c202b5a 	jal	a080ad68 <.pic.sdread>
a0806750:	00000000 	nop
a0806754:	97c30010 	lhu	v1,16(s8)
a0806758:	3c020283 	lui	v0,0x283
a080675c:	3442fd00 	ori	v0,v0,0xfd00
a0806760:	00621021 	addu	v0,v1,v0
a0806764:	00021180 	sll	v0,v0,0x6
a0806768:	00401821 	move	v1,v0
a080676c:	3c02a081 	lui	v0,0xa081
a0806770:	2442f948 	addiu	v0,v0,-1720
a0806774:	00602021 	move	a0,v1
a0806778:	00402821 	move	a1,v0
a080677c:	24060040 	li	a2,64
a0806780:	0c201642 	jal	a0805908 <memcpy>
a0806784:	00000000 	nop
a0806788:	97c30012 	lhu	v1,18(s8)
a080678c:	3c020008 	lui	v0,0x8
a0806790:	34420050 	ori	v0,v0,0x50
a0806794:	00621021 	addu	v0,v1,v0
a0806798:	00021a40 	sll	v1,v0,0x9
a080679c:	3c02a0ff 	lui	v0,0xa0ff
a08067a0:	34444000 	ori	a0,v0,0x4000
a08067a4:	00602821 	move	a1,v1
a08067a8:	24060200 	li	a2,512
a08067ac:	0c202b3a 	jal	a080ace8 <.pic.sdwrite>
a08067b0:	00000000 	nop
a08067b4:	03c0e821 	move	sp,s8
a08067b8:	8fbf001c 	lw	ra,28(sp)
a08067bc:	8fbe0018 	lw	s8,24(sp)
a08067c0:	27bd0020 	addiu	sp,sp,32
a08067c4:	03e00008 	jr	ra
a08067c8:	00000000 	nop

a08067cc <path_locate>:
a08067cc:	27bdffc8 	addiu	sp,sp,-56
a08067d0:	afbf0034 	sw	ra,52(sp)
a08067d4:	afbe0030 	sw	s8,48(sp)
a08067d8:	03a0f021 	move	s8,sp
a08067dc:	3c02a081 	lui	v0,0xa081
a08067e0:	8c42b400 	lw	v0,-19456(v0)
a08067e4:	10400004 	beqz	v0,a08067f8 <path_locate+0x2c>
a08067e8:	00000000 	nop
a08067ec:	a7c00028 	sh	zero,40(s8)
a08067f0:	08201a02 	j	a0806808 <path_locate+0x3c>
a08067f4:	00000000 	nop
a08067f8:	3c02a081 	lui	v0,0xa081
a08067fc:	2442cd88 	addiu	v0,v0,-12920
a0806800:	9442027c 	lhu	v0,636(v0)
a0806804:	a7c20028 	sh	v0,40(s8)
a0806808:	afc0002c 	sw	zero,44(s8)
a080680c:	08201a52 	j	a0806948 <path_locate+0x17c>
a0806810:	00000000 	nop
a0806814:	97c20028 	lhu	v0,40(s8)
a0806818:	00402021 	move	a0,v0
a080681c:	0c201996 	jal	a0806658 <read_inode>
a0806820:	00000000 	nop
a0806824:	3c02a081 	lui	v0,0xa081
a0806828:	2442f948 	addiu	v0,v0,-1720
a080682c:	8c420038 	lw	v0,56(v0)
a0806830:	afc20024 	sw	v0,36(s8)
a0806834:	3c02a081 	lui	v0,0xa081
a0806838:	2442f948 	addiu	v0,v0,-1720
a080683c:	8c420004 	lw	v0,4(v0)
a0806840:	afc20020 	sw	v0,32(s8)
a0806844:	8fc40020 	lw	a0,32(s8)
a0806848:	0c201928 	jal	a08064a0 <read_block>
a080684c:	00000000 	nop
a0806850:	afc0001c 	sw	zero,28(s8)
a0806854:	afc00018 	sw	zero,24(s8)
a0806858:	afc00014 	sw	zero,20(s8)
a080685c:	08201a43 	j	a080690c <path_locate+0x140>
a0806860:	00000000 	nop
a0806864:	8fc3001c 	lw	v1,28(s8)
a0806868:	3c020507 	lui	v0,0x507
a080686c:	3442fa00 	ori	v0,v0,0xfa00
a0806870:	00621021 	addu	v0,v1,v0
a0806874:	00021140 	sll	v0,v0,0x5
a0806878:	afc20010 	sw	v0,16(s8)
a080687c:	8fc2001c 	lw	v0,28(s8)
a0806880:	24420001 	addiu	v0,v0,1
a0806884:	afc2001c 	sw	v0,28(s8)
a0806888:	8fc20010 	lw	v0,16(s8)
a080688c:	80420000 	lb	v0,0(v0)
a0806890:	1040001e 	beqz	v0,a080690c <path_locate+0x140>
a0806894:	00000000 	nop
a0806898:	8fc20018 	lw	v0,24(s8)
a080689c:	24420001 	addiu	v0,v0,1
a08068a0:	afc20018 	sw	v0,24(s8)
a08068a4:	8fc20010 	lw	v0,16(s8)
a08068a8:	9043001e 	lbu	v1,30(v0)
a08068ac:	24020080 	li	v0,128
a08068b0:	14620016 	bne	v1,v0,a080690c <path_locate+0x140>
a08068b4:	00000000 	nop
a08068b8:	3c02a081 	lui	v0,0xa081
a08068bc:	2444f588 	addiu	a0,v0,-2680
a08068c0:	8fc2002c 	lw	v0,44(s8)
a08068c4:	00021880 	sll	v1,v0,0x2
a08068c8:	000310c0 	sll	v0,v1,0x3
a08068cc:	00431023 	subu	v0,v0,v1
a08068d0:	00821021 	addu	v0,a0,v0
a08068d4:	8fc30010 	lw	v1,16(s8)
a08068d8:	00402021 	move	a0,v0
a08068dc:	00602821 	move	a1,v1
a08068e0:	0c20168c 	jal	a0805a30 <strcmp>
a08068e4:	00000000 	nop
a08068e8:	14400008 	bnez	v0,a080690c <path_locate+0x140>
a08068ec:	00000000 	nop
a08068f0:	8fc20010 	lw	v0,16(s8)
a08068f4:	9442001c 	lhu	v0,28(v0)
a08068f8:	a7c20028 	sh	v0,40(s8)
a08068fc:	24020001 	li	v0,1
a0806900:	afc20014 	sw	v0,20(s8)
a0806904:	08201a48 	j	a0806920 <path_locate+0x154>
a0806908:	00000000 	nop
a080690c:	8fc20018 	lw	v0,24(s8)
a0806910:	8fc30024 	lw	v1,36(s8)
a0806914:	0043102b 	sltu	v0,v0,v1
a0806918:	1440ffd2 	bnez	v0,a0806864 <path_locate+0x98>
a080691c:	00000000 	nop
a0806920:	8fc20014 	lw	v0,20(s8)
a0806924:	14400005 	bnez	v0,a080693c <path_locate+0x170>
a0806928:	00000000 	nop
a080692c:	2402ffff 	li	v0,-1
a0806930:	a7c20028 	sh	v0,40(s8)
a0806934:	08201a58 	j	a0806960 <path_locate+0x194>
a0806938:	00000000 	nop
a080693c:	8fc2002c 	lw	v0,44(s8)
a0806940:	24420001 	addiu	v0,v0,1
a0806944:	afc2002c 	sw	v0,44(s8)
a0806948:	3c02a081 	lui	v0,0xa081
a080694c:	8c43c7a4 	lw	v1,-14428(v0)
a0806950:	8fc2002c 	lw	v0,44(s8)
a0806954:	0043102a 	slt	v0,v0,v1
a0806958:	1440ffae 	bnez	v0,a0806814 <path_locate+0x48>
a080695c:	00000000 	nop
a0806960:	97c20028 	lhu	v0,40(s8)
a0806964:	03c0e821 	move	sp,s8
a0806968:	8fbf0034 	lw	ra,52(sp)
a080696c:	8fbe0030 	lw	s8,48(sp)
a0806970:	27bd0038 	addiu	sp,sp,56
a0806974:	03e00008 	jr	ra
a0806978:	00000000 	nop

a080697c <alloc_inode>:
a080697c:	27bdffd8 	addiu	sp,sp,-40
a0806980:	afbf0024 	sw	ra,36(sp)
a0806984:	afbe0020 	sw	s8,32(sp)
a0806988:	03a0f021 	move	s8,sp
a080698c:	0c201952 	jal	a0806548 <read_imap>
a0806990:	00000000 	nop
a0806994:	afc00018 	sw	zero,24(s8)
a0806998:	08201a73 	j	a08069cc <alloc_inode+0x50>
a080699c:	00000000 	nop
a08069a0:	8fc30018 	lw	v1,24(s8)
a08069a4:	3c02a0ff 	lui	v0,0xa0ff
a08069a8:	34424000 	ori	v0,v0,0x4000
a08069ac:	00621021 	addu	v0,v1,v0
a08069b0:	90430000 	lbu	v1,0(v0)
a08069b4:	240200ff 	li	v0,255
a08069b8:	14620008 	bne	v1,v0,a08069dc <alloc_inode+0x60>
a08069bc:	00000000 	nop
a08069c0:	8fc20018 	lw	v0,24(s8)
a08069c4:	24420001 	addiu	v0,v0,1
a08069c8:	afc20018 	sw	v0,24(s8)
a08069cc:	8fc20018 	lw	v0,24(s8)
a08069d0:	28421000 	slti	v0,v0,4096
a08069d4:	1440fff2 	bnez	v0,a08069a0 <alloc_inode+0x24>
a08069d8:	00000000 	nop
a08069dc:	8fc30018 	lw	v1,24(s8)
a08069e0:	3c02a0ff 	lui	v0,0xa0ff
a08069e4:	34424000 	ori	v0,v0,0x4000
a08069e8:	00621021 	addu	v0,v1,v0
a08069ec:	90420000 	lbu	v0,0(v0)
a08069f0:	a3c20010 	sb	v0,16(s8)
a08069f4:	afc00014 	sw	zero,20(s8)
a08069f8:	08201a8a 	j	a0806a28 <alloc_inode+0xac>
a08069fc:	00000000 	nop
a0806a00:	93c20010 	lbu	v0,16(s8)
a0806a04:	30420001 	andi	v0,v0,0x1
a0806a08:	1040000b 	beqz	v0,a0806a38 <alloc_inode+0xbc>
a0806a0c:	00000000 	nop
a0806a10:	93c20010 	lbu	v0,16(s8)
a0806a14:	00021042 	srl	v0,v0,0x1
a0806a18:	a3c20010 	sb	v0,16(s8)
a0806a1c:	8fc20014 	lw	v0,20(s8)
a0806a20:	24420001 	addiu	v0,v0,1
a0806a24:	afc20014 	sw	v0,20(s8)
a0806a28:	8fc20014 	lw	v0,20(s8)
a0806a2c:	28420008 	slti	v0,v0,8
a0806a30:	1440fff3 	bnez	v0,a0806a00 <alloc_inode+0x84>
a0806a34:	00000000 	nop
a0806a38:	24030001 	li	v1,1
a0806a3c:	8fc20014 	lw	v0,20(s8)
a0806a40:	00431004 	sllv	v0,v1,v0
a0806a44:	a3c20010 	sb	v0,16(s8)
a0806a48:	8fc30018 	lw	v1,24(s8)
a0806a4c:	3c02a0ff 	lui	v0,0xa0ff
a0806a50:	34424000 	ori	v0,v0,0x4000
a0806a54:	00621021 	addu	v0,v1,v0
a0806a58:	00402021 	move	a0,v0
a0806a5c:	8fc30018 	lw	v1,24(s8)
a0806a60:	3c02a0ff 	lui	v0,0xa0ff
a0806a64:	34424000 	ori	v0,v0,0x4000
a0806a68:	00621021 	addu	v0,v1,v0
a0806a6c:	90430000 	lbu	v1,0(v0)
a0806a70:	93c20010 	lbu	v0,16(s8)
a0806a74:	00621025 	or	v0,v1,v0
a0806a78:	304200ff 	andi	v0,v0,0xff
a0806a7c:	a0820000 	sb	v0,0(a0)
a0806a80:	0c201963 	jal	a080658c <write_imap>
a0806a84:	00000000 	nop
a0806a88:	8fc20018 	lw	v0,24(s8)
a0806a8c:	000210c0 	sll	v0,v0,0x3
a0806a90:	3043ffff 	andi	v1,v0,0xffff
a0806a94:	8fc20014 	lw	v0,20(s8)
a0806a98:	3042ffff 	andi	v0,v0,0xffff
a0806a9c:	00621021 	addu	v0,v1,v0
a0806aa0:	3042ffff 	andi	v0,v0,0xffff
a0806aa4:	03c0e821 	move	sp,s8
a0806aa8:	8fbf0024 	lw	ra,36(sp)
a0806aac:	8fbe0020 	lw	s8,32(sp)
a0806ab0:	27bd0028 	addiu	sp,sp,40
a0806ab4:	03e00008 	jr	ra
a0806ab8:	00000000 	nop

a0806abc <alloc_block>:
a0806abc:	27bdffd8 	addiu	sp,sp,-40
a0806ac0:	afbf0024 	sw	ra,36(sp)
a0806ac4:	afbe0020 	sw	s8,32(sp)
a0806ac8:	03a0f021 	move	s8,sp
a0806acc:	0c201974 	jal	a08065d0 <read_bmap>
a0806ad0:	00000000 	nop
a0806ad4:	afc00018 	sw	zero,24(s8)
a0806ad8:	08201ac3 	j	a0806b0c <alloc_block+0x50>
a0806adc:	00000000 	nop
a0806ae0:	8fc30018 	lw	v1,24(s8)
a0806ae4:	3c02a0ff 	lui	v0,0xa0ff
a0806ae8:	34424000 	ori	v0,v0,0x4000
a0806aec:	00621021 	addu	v0,v1,v0
a0806af0:	90430000 	lbu	v1,0(v0)
a0806af4:	240200ff 	li	v0,255
a0806af8:	14620009 	bne	v1,v0,a0806b20 <alloc_block+0x64>
a0806afc:	00000000 	nop
a0806b00:	8fc20018 	lw	v0,24(s8)
a0806b04:	24420001 	addiu	v0,v0,1
a0806b08:	afc20018 	sw	v0,24(s8)
a0806b0c:	8fc20018 	lw	v0,24(s8)
a0806b10:	34038000 	li	v1,0x8000
a0806b14:	0043102a 	slt	v0,v0,v1
a0806b18:	1440fff1 	bnez	v0,a0806ae0 <alloc_block+0x24>
a0806b1c:	00000000 	nop
a0806b20:	8fc30018 	lw	v1,24(s8)
a0806b24:	3c02a0ff 	lui	v0,0xa0ff
a0806b28:	34424000 	ori	v0,v0,0x4000
a0806b2c:	00621021 	addu	v0,v1,v0
a0806b30:	90420000 	lbu	v0,0(v0)
a0806b34:	a3c20010 	sb	v0,16(s8)
a0806b38:	afc00014 	sw	zero,20(s8)
a0806b3c:	08201adb 	j	a0806b6c <alloc_block+0xb0>
a0806b40:	00000000 	nop
a0806b44:	93c20010 	lbu	v0,16(s8)
a0806b48:	30420001 	andi	v0,v0,0x1
a0806b4c:	1040000b 	beqz	v0,a0806b7c <alloc_block+0xc0>
a0806b50:	00000000 	nop
a0806b54:	93c20010 	lbu	v0,16(s8)
a0806b58:	00021042 	srl	v0,v0,0x1
a0806b5c:	a3c20010 	sb	v0,16(s8)
a0806b60:	8fc20014 	lw	v0,20(s8)
a0806b64:	24420001 	addiu	v0,v0,1
a0806b68:	afc20014 	sw	v0,20(s8)
a0806b6c:	8fc20014 	lw	v0,20(s8)
a0806b70:	28420008 	slti	v0,v0,8
a0806b74:	1440fff3 	bnez	v0,a0806b44 <alloc_block+0x88>
a0806b78:	00000000 	nop
a0806b7c:	24030001 	li	v1,1
a0806b80:	8fc20014 	lw	v0,20(s8)
a0806b84:	00431004 	sllv	v0,v1,v0
a0806b88:	a3c20010 	sb	v0,16(s8)
a0806b8c:	8fc30018 	lw	v1,24(s8)
a0806b90:	3c02a0ff 	lui	v0,0xa0ff
a0806b94:	34424000 	ori	v0,v0,0x4000
a0806b98:	00621021 	addu	v0,v1,v0
a0806b9c:	00402021 	move	a0,v0
a0806ba0:	8fc30018 	lw	v1,24(s8)
a0806ba4:	3c02a0ff 	lui	v0,0xa0ff
a0806ba8:	34424000 	ori	v0,v0,0x4000
a0806bac:	00621021 	addu	v0,v1,v0
a0806bb0:	90430000 	lbu	v1,0(v0)
a0806bb4:	93c20010 	lbu	v0,16(s8)
a0806bb8:	00621025 	or	v0,v1,v0
a0806bbc:	304200ff 	andi	v0,v0,0xff
a0806bc0:	a0820000 	sb	v0,0(a0)
a0806bc4:	0c201985 	jal	a0806614 <write_bmap>
a0806bc8:	00000000 	nop
a0806bcc:	8fc20018 	lw	v0,24(s8)
a0806bd0:	000218c0 	sll	v1,v0,0x3
a0806bd4:	8fc20014 	lw	v0,20(s8)
a0806bd8:	00621021 	addu	v0,v1,v0
a0806bdc:	03c0e821 	move	sp,s8
a0806be0:	8fbf0024 	lw	ra,36(sp)
a0806be4:	8fbe0020 	lw	s8,32(sp)
a0806be8:	27bd0028 	addiu	sp,sp,40
a0806bec:	03e00008 	jr	ra
a0806bf0:	00000000 	nop

a0806bf4 <free_inode>:
a0806bf4:	27bdffd8 	addiu	sp,sp,-40
a0806bf8:	afbf0024 	sw	ra,36(sp)
a0806bfc:	afbe0020 	sw	s8,32(sp)
a0806c00:	03a0f021 	move	s8,sp
a0806c04:	00801021 	move	v0,a0
a0806c08:	a7c20028 	sh	v0,40(s8)
a0806c0c:	97c20028 	lhu	v0,40(s8)
a0806c10:	000210c2 	srl	v0,v0,0x3
a0806c14:	3042ffff 	andi	v0,v0,0xffff
a0806c18:	afc20018 	sw	v0,24(s8)
a0806c1c:	97c20028 	lhu	v0,40(s8)
a0806c20:	30420007 	andi	v0,v0,0x7
a0806c24:	afc20014 	sw	v0,20(s8)
a0806c28:	24030001 	li	v1,1
a0806c2c:	8fc20014 	lw	v0,20(s8)
a0806c30:	00431004 	sllv	v0,v1,v0
a0806c34:	a3c20010 	sb	v0,16(s8)
a0806c38:	0c201952 	jal	a0806548 <read_imap>
a0806c3c:	00000000 	nop
a0806c40:	8fc30018 	lw	v1,24(s8)
a0806c44:	3c02a0ff 	lui	v0,0xa0ff
a0806c48:	34424000 	ori	v0,v0,0x4000
a0806c4c:	00621021 	addu	v0,v1,v0
a0806c50:	00402021 	move	a0,v0
a0806c54:	8fc30018 	lw	v1,24(s8)
a0806c58:	3c02a0ff 	lui	v0,0xa0ff
a0806c5c:	34424000 	ori	v0,v0,0x4000
a0806c60:	00621021 	addu	v0,v1,v0
a0806c64:	90420000 	lbu	v0,0(v0)
a0806c68:	00021e00 	sll	v1,v0,0x18
a0806c6c:	00031e03 	sra	v1,v1,0x18
a0806c70:	83c20010 	lb	v0,16(s8)
a0806c74:	00021027 	nor	v0,zero,v0
a0806c78:	00021600 	sll	v0,v0,0x18
a0806c7c:	00021603 	sra	v0,v0,0x18
a0806c80:	00621024 	and	v0,v1,v0
a0806c84:	00021600 	sll	v0,v0,0x18
a0806c88:	00021603 	sra	v0,v0,0x18
a0806c8c:	304200ff 	andi	v0,v0,0xff
a0806c90:	a0820000 	sb	v0,0(a0)
a0806c94:	0c201963 	jal	a080658c <write_imap>
a0806c98:	00000000 	nop
a0806c9c:	03c0e821 	move	sp,s8
a0806ca0:	8fbf0024 	lw	ra,36(sp)
a0806ca4:	8fbe0020 	lw	s8,32(sp)
a0806ca8:	27bd0028 	addiu	sp,sp,40
a0806cac:	03e00008 	jr	ra
a0806cb0:	00000000 	nop

a0806cb4 <free_block>:
a0806cb4:	27bdffd8 	addiu	sp,sp,-40
a0806cb8:	afbf0024 	sw	ra,36(sp)
a0806cbc:	afbe0020 	sw	s8,32(sp)
a0806cc0:	03a0f021 	move	s8,sp
a0806cc4:	afc40028 	sw	a0,40(s8)
a0806cc8:	8fc20028 	lw	v0,40(s8)
a0806ccc:	000210c2 	srl	v0,v0,0x3
a0806cd0:	afc20018 	sw	v0,24(s8)
a0806cd4:	8fc20028 	lw	v0,40(s8)
a0806cd8:	30420007 	andi	v0,v0,0x7
a0806cdc:	afc20014 	sw	v0,20(s8)
a0806ce0:	24030001 	li	v1,1
a0806ce4:	8fc20014 	lw	v0,20(s8)
a0806ce8:	00431004 	sllv	v0,v1,v0
a0806cec:	a3c20010 	sb	v0,16(s8)
a0806cf0:	0c201974 	jal	a08065d0 <read_bmap>
a0806cf4:	00000000 	nop
a0806cf8:	8fc30018 	lw	v1,24(s8)
a0806cfc:	3c02a0ff 	lui	v0,0xa0ff
a0806d00:	34424000 	ori	v0,v0,0x4000
a0806d04:	00621021 	addu	v0,v1,v0
a0806d08:	00402021 	move	a0,v0
a0806d0c:	8fc30018 	lw	v1,24(s8)
a0806d10:	3c02a0ff 	lui	v0,0xa0ff
a0806d14:	34424000 	ori	v0,v0,0x4000
a0806d18:	00621021 	addu	v0,v1,v0
a0806d1c:	90420000 	lbu	v0,0(v0)
a0806d20:	00021e00 	sll	v1,v0,0x18
a0806d24:	00031e03 	sra	v1,v1,0x18
a0806d28:	83c20010 	lb	v0,16(s8)
a0806d2c:	00021027 	nor	v0,zero,v0
a0806d30:	00021600 	sll	v0,v0,0x18
a0806d34:	00021603 	sra	v0,v0,0x18
a0806d38:	00621024 	and	v0,v1,v0
a0806d3c:	00021600 	sll	v0,v0,0x18
a0806d40:	00021603 	sra	v0,v0,0x18
a0806d44:	304200ff 	andi	v0,v0,0xff
a0806d48:	a0820000 	sb	v0,0(a0)
a0806d4c:	0c201985 	jal	a0806614 <write_bmap>
a0806d50:	00000000 	nop
a0806d54:	03c0e821 	move	sp,s8
a0806d58:	8fbf0024 	lw	ra,36(sp)
a0806d5c:	8fbe0020 	lw	s8,32(sp)
a0806d60:	27bd0028 	addiu	sp,sp,40
a0806d64:	03e00008 	jr	ra
a0806d68:	00000000 	nop

a0806d6c <init_superblock>:
a0806d6c:	27bdffe8 	addiu	sp,sp,-24
a0806d70:	afbf0014 	sw	ra,20(sp)
a0806d74:	afbe0010 	sw	s8,16(sp)
a0806d78:	03a0f021 	move	s8,sp
a0806d7c:	3c03a081 	lui	v1,0xa081
a0806d80:	3c022333 	lui	v0,0x2333
a0806d84:	34423333 	ori	v0,v0,0x3333
a0806d88:	ac62f748 	sw	v0,-2232(v1)
a0806d8c:	3c02a081 	lui	v0,0xa081
a0806d90:	2443f748 	addiu	v1,v0,-2232
a0806d94:	3c024000 	lui	v0,0x4000
a0806d98:	ac620004 	sw	v0,4(v1)
a0806d9c:	3c02a081 	lui	v0,0xa081
a0806da0:	2443f748 	addiu	v1,v0,-2232
a0806da4:	3c021000 	lui	v0,0x1000
a0806da8:	ac620008 	sw	v0,8(v1)
a0806dac:	3c02a081 	lui	v0,0xa081
a0806db0:	2443f748 	addiu	v1,v0,-2232
a0806db4:	24021000 	li	v0,4096
a0806db8:	ac62000c 	sw	v0,12(v1)
a0806dbc:	3c02a081 	lui	v0,0xa081
a0806dc0:	2443f748 	addiu	v1,v0,-2232
a0806dc4:	24021000 	li	v0,4096
a0806dc8:	ac620010 	sw	v0,16(v1)
a0806dcc:	3c02a081 	lui	v0,0xa081
a0806dd0:	2443f748 	addiu	v1,v0,-2232
a0806dd4:	24021000 	li	v0,4096
a0806dd8:	ac620014 	sw	v0,20(v1)
a0806ddc:	3c02a081 	lui	v0,0xa081
a0806de0:	2443f748 	addiu	v1,v0,-2232
a0806de4:	24022000 	li	v0,8192
a0806de8:	ac620018 	sw	v0,24(v1)
a0806dec:	3c02a081 	lui	v0,0xa081
a0806df0:	2443f748 	addiu	v1,v0,-2232
a0806df4:	34028000 	li	v0,0x8000
a0806df8:	ac62001c 	sw	v0,28(v1)
a0806dfc:	3c02a081 	lui	v0,0xa081
a0806e00:	2443f748 	addiu	v1,v0,-2232
a0806e04:	24021000 	li	v0,4096
a0806e08:	ac620034 	sw	v0,52(v1)
a0806e0c:	3c02a081 	lui	v0,0xa081
a0806e10:	2443f748 	addiu	v1,v0,-2232
a0806e14:	3c020004 	lui	v0,0x4
a0806e18:	ac620038 	sw	v0,56(v1)
a0806e1c:	3c02a081 	lui	v0,0xa081
a0806e20:	2443f748 	addiu	v1,v0,-2232
a0806e24:	24020200 	li	v0,512
a0806e28:	ac62003c 	sw	v0,60(v1)
a0806e2c:	3c02a081 	lui	v0,0xa081
a0806e30:	2443f748 	addiu	v1,v0,-2232
a0806e34:	3402a000 	li	v0,0xa000
a0806e38:	ac620020 	sw	v0,32(v1)
a0806e3c:	3c02a081 	lui	v0,0xa081
a0806e40:	2443f748 	addiu	v1,v0,-2232
a0806e44:	3c02001f 	lui	v0,0x1f
a0806e48:	34426000 	ori	v0,v0,0x6000
a0806e4c:	ac620024 	sw	v0,36(v1)
a0806e50:	3c02a081 	lui	v0,0xa081
a0806e54:	2443f748 	addiu	v1,v0,-2232
a0806e58:	24020001 	li	v0,1
a0806e5c:	ac620028 	sw	v0,40(v1)
a0806e60:	3c02a081 	lui	v0,0xa081
a0806e64:	2443f748 	addiu	v1,v0,-2232
a0806e68:	3c020020 	lui	v0,0x20
a0806e6c:	ac62002c 	sw	v0,44(v1)
a0806e70:	3c02a081 	lui	v0,0xa081
a0806e74:	2443f748 	addiu	v1,v0,-2232
a0806e78:	3c023fe0 	lui	v0,0x3fe0
a0806e7c:	ac620030 	sw	v0,48(v1)
a0806e80:	3c02a081 	lui	v0,0xa081
a0806e84:	2443f748 	addiu	v1,v0,-2232
a0806e88:	3c02a0ff 	lui	v0,0xa0ff
a0806e8c:	34444000 	ori	a0,v0,0x4000
a0806e90:	00602821 	move	a1,v1
a0806e94:	24060040 	li	a2,64
a0806e98:	0c201642 	jal	a0805908 <memcpy>
a0806e9c:	00000000 	nop
a0806ea0:	00002021 	move	a0,zero
a0806ea4:	0c20193d 	jal	a08064f4 <write_block>
a0806ea8:	00000000 	nop
a0806eac:	03c0e821 	move	sp,s8
a0806eb0:	8fbf0014 	lw	ra,20(sp)
a0806eb4:	8fbe0010 	lw	s8,16(sp)
a0806eb8:	27bd0018 	addiu	sp,sp,24
a0806ebc:	03e00008 	jr	ra
a0806ec0:	00000000 	nop

a0806ec4 <init_inodemap>:
a0806ec4:	27bdffe0 	addiu	sp,sp,-32
a0806ec8:	afbf001c 	sw	ra,28(sp)
a0806ecc:	afbe0018 	sw	s8,24(sp)
a0806ed0:	03a0f021 	move	s8,sp
a0806ed4:	3c02a0ff 	lui	v0,0xa0ff
a0806ed8:	34434000 	ori	v1,v0,0x4000
a0806edc:	24020001 	li	v0,1
a0806ee0:	a0620000 	sb	v0,0(v1)
a0806ee4:	24020001 	li	v0,1
a0806ee8:	afc20010 	sw	v0,16(s8)
a0806eec:	08201bc5 	j	a0806f14 <init_inodemap+0x50>
a0806ef0:	00000000 	nop
a0806ef4:	8fc30010 	lw	v1,16(s8)
a0806ef8:	3c02a0ff 	lui	v0,0xa0ff
a0806efc:	34424000 	ori	v0,v0,0x4000
a0806f00:	00621021 	addu	v0,v1,v0
a0806f04:	a0400000 	sb	zero,0(v0)
a0806f08:	8fc20010 	lw	v0,16(s8)
a0806f0c:	24420001 	addiu	v0,v0,1
a0806f10:	afc20010 	sw	v0,16(s8)
a0806f14:	8fc20010 	lw	v0,16(s8)
a0806f18:	28421000 	slti	v0,v0,4096
a0806f1c:	1440fff5 	bnez	v0,a0806ef4 <init_inodemap+0x30>
a0806f20:	00000000 	nop
a0806f24:	0c201963 	jal	a080658c <write_imap>
a0806f28:	00000000 	nop
a0806f2c:	03c0e821 	move	sp,s8
a0806f30:	8fbf001c 	lw	ra,28(sp)
a0806f34:	8fbe0018 	lw	s8,24(sp)
a0806f38:	27bd0020 	addiu	sp,sp,32
a0806f3c:	03e00008 	jr	ra
a0806f40:	00000000 	nop

a0806f44 <init_blockmap>:
a0806f44:	27bdffe0 	addiu	sp,sp,-32
a0806f48:	afbf001c 	sw	ra,28(sp)
a0806f4c:	afbe0018 	sw	s8,24(sp)
a0806f50:	03a0f021 	move	s8,sp
a0806f54:	afc00010 	sw	zero,16(s8)
a0806f58:	08201be2 	j	a0806f88 <init_blockmap+0x44>
a0806f5c:	00000000 	nop
a0806f60:	8fc30010 	lw	v1,16(s8)
a0806f64:	3c02a0ff 	lui	v0,0xa0ff
a0806f68:	34424000 	ori	v0,v0,0x4000
a0806f6c:	00621021 	addu	v0,v1,v0
a0806f70:	00401821 	move	v1,v0
a0806f74:	2402ffff 	li	v0,-1
a0806f78:	a0620000 	sb	v0,0(v1)
a0806f7c:	8fc20010 	lw	v0,16(s8)
a0806f80:	24420001 	addiu	v0,v0,1
a0806f84:	afc20010 	sw	v0,16(s8)
a0806f88:	8fc20010 	lw	v0,16(s8)
a0806f8c:	28420040 	slti	v0,v0,64
a0806f90:	1440fff3 	bnez	v0,a0806f60 <init_blockmap+0x1c>
a0806f94:	00000000 	nop
a0806f98:	3c02a0ff 	lui	v0,0xa0ff
a0806f9c:	34434040 	ori	v1,v0,0x4040
a0806fa0:	24020001 	li	v0,1
a0806fa4:	a0620000 	sb	v0,0(v1)
a0806fa8:	24020041 	li	v0,65
a0806fac:	afc20010 	sw	v0,16(s8)
a0806fb0:	08201bf6 	j	a0806fd8 <init_blockmap+0x94>
a0806fb4:	00000000 	nop
a0806fb8:	8fc30010 	lw	v1,16(s8)
a0806fbc:	3c02a0ff 	lui	v0,0xa0ff
a0806fc0:	34424000 	ori	v0,v0,0x4000
a0806fc4:	00621021 	addu	v0,v1,v0
a0806fc8:	a0400000 	sb	zero,0(v0)
a0806fcc:	8fc20010 	lw	v0,16(s8)
a0806fd0:	24420001 	addiu	v0,v0,1
a0806fd4:	afc20010 	sw	v0,16(s8)
a0806fd8:	8fc20010 	lw	v0,16(s8)
a0806fdc:	34038000 	li	v1,0x8000
a0806fe0:	0043102a 	slt	v0,v0,v1
a0806fe4:	1440fff4 	bnez	v0,a0806fb8 <init_blockmap+0x74>
a0806fe8:	00000000 	nop
a0806fec:	0c201985 	jal	a0806614 <write_bmap>
a0806ff0:	00000000 	nop
a0806ff4:	03c0e821 	move	sp,s8
a0806ff8:	8fbf001c 	lw	ra,28(sp)
a0806ffc:	8fbe0018 	lw	s8,24(sp)
a0807000:	27bd0020 	addiu	sp,sp,32
a0807004:	03e00008 	jr	ra
a0807008:	00000000 	nop

a080700c <init_inode>:
a080700c:	27bdffc8 	addiu	sp,sp,-56
a0807010:	afbf0034 	sw	ra,52(sp)
a0807014:	afbe0030 	sw	s8,48(sp)
a0807018:	03a0f021 	move	s8,sp
a080701c:	afc40038 	sw	a0,56(s8)
a0807020:	00a01021 	move	v0,a1
a0807024:	00c01821 	move	v1,a2
a0807028:	00e02021 	move	a0,a3
a080702c:	8fc50048 	lw	a1,72(s8)
a0807030:	8fc6004c 	lw	a2,76(s8)
a0807034:	a7c2003c 	sh	v0,60(s8)
a0807038:	a7c30040 	sh	v1,64(s8)
a080703c:	a7c40044 	sh	a0,68(s8)
a0807040:	a3c50028 	sb	a1,40(s8)
a0807044:	a3c6002c 	sb	a2,44(s8)
a0807048:	3c02a081 	lui	v0,0xa081
a080704c:	2443f948 	addiu	v1,v0,-1720
a0807050:	8fc20038 	lw	v0,56(s8)
a0807054:	ac620004 	sw	v0,4(v1)
a0807058:	24020001 	li	v0,1
a080705c:	afc20024 	sw	v0,36(s8)
a0807060:	08201c23 	j	a080708c <init_inode+0x80>
a0807064:	00000000 	nop
a0807068:	8fc40024 	lw	a0,36(s8)
a080706c:	3c02a081 	lui	v0,0xa081
a0807070:	2443f948 	addiu	v1,v0,-1720
a0807074:	00041080 	sll	v0,a0,0x2
a0807078:	00621021 	addu	v0,v1,v0
a080707c:	ac400004 	sw	zero,4(v0)
a0807080:	8fc20024 	lw	v0,36(s8)
a0807084:	24420001 	addiu	v0,v0,1
a0807088:	afc20024 	sw	v0,36(s8)
a080708c:	8fc20024 	lw	v0,36(s8)
a0807090:	28420008 	slti	v0,v0,8
a0807094:	1440fff4 	bnez	v0,a0807068 <init_inode+0x5c>
a0807098:	00000000 	nop
a080709c:	3c02a081 	lui	v0,0xa081
a08070a0:	2443f948 	addiu	v1,v0,-1720
a08070a4:	24020001 	li	v0,1
a08070a8:	ac620034 	sw	v0,52(v1)
a08070ac:	3c02a081 	lui	v0,0xa081
a08070b0:	2443f948 	addiu	v1,v0,-1720
a08070b4:	24020002 	li	v0,2
a08070b8:	ac620038 	sw	v0,56(v1)
a08070bc:	3c02a081 	lui	v0,0xa081
a08070c0:	2443f948 	addiu	v1,v0,-1720
a08070c4:	97c2003c 	lhu	v0,60(s8)
a08070c8:	a462003c 	sh	v0,60(v1)
a08070cc:	3c02a081 	lui	v0,0xa081
a08070d0:	2443f948 	addiu	v1,v0,-1720
a08070d4:	93c20028 	lbu	v0,40(s8)
a08070d8:	a062003e 	sb	v0,62(v1)
a08070dc:	3c02a081 	lui	v0,0xa081
a08070e0:	2443f948 	addiu	v1,v0,-1720
a08070e4:	93c2002c 	lbu	v0,44(s8)
a08070e8:	a062003f 	sb	v0,63(v1)
a08070ec:	93c3002c 	lbu	v1,44(s8)
a08070f0:	24020080 	li	v0,128
a08070f4:	14620006 	bne	v1,v0,a0807110 <init_inode+0x104>
a08070f8:	00000000 	nop
a08070fc:	3c03a081 	lui	v1,0xa081
a0807100:	24020040 	li	v0,64
a0807104:	ac62f948 	sw	v0,-1720(v1)
a0807108:	08201c46 	j	a0807118 <init_inode+0x10c>
a080710c:	00000000 	nop
a0807110:	3c02a081 	lui	v0,0xa081
a0807114:	ac40f948 	sw	zero,-1720(v0)
a0807118:	97c20044 	lhu	v0,68(s8)
a080711c:	00402021 	move	a0,v0
a0807120:	0c2019be 	jal	a08066f8 <write_inode>
a0807124:	00000000 	nop
a0807128:	97c20044 	lhu	v0,68(s8)
a080712c:	10400053 	beqz	v0,a080727c <init_inode+0x270>
a0807130:	00000000 	nop
a0807134:	97c20040 	lhu	v0,64(s8)
a0807138:	00402021 	move	a0,v0
a080713c:	0c201996 	jal	a0806658 <read_inode>
a0807140:	00000000 	nop
a0807144:	3c02a081 	lui	v0,0xa081
a0807148:	2442f948 	addiu	v0,v0,-1720
a080714c:	8c420038 	lw	v0,56(v0)
a0807150:	24430001 	addiu	v1,v0,1
a0807154:	3c02a081 	lui	v0,0xa081
a0807158:	2442f948 	addiu	v0,v0,-1720
a080715c:	ac430038 	sw	v1,56(v0)
a0807160:	3c02a081 	lui	v0,0xa081
a0807164:	2442f948 	addiu	v0,v0,-1720
a0807168:	8c420038 	lw	v0,56(v0)
a080716c:	afc20020 	sw	v0,32(s8)
a0807170:	3c02a081 	lui	v0,0xa081
a0807174:	2442f948 	addiu	v0,v0,-1720
a0807178:	8c420004 	lw	v0,4(v0)
a080717c:	afc2001c 	sw	v0,28(s8)
a0807180:	97c20040 	lhu	v0,64(s8)
a0807184:	00402021 	move	a0,v0
a0807188:	0c2019be 	jal	a08066f8 <write_inode>
a080718c:	00000000 	nop
a0807190:	8fc4001c 	lw	a0,28(s8)
a0807194:	0c201928 	jal	a08064a0 <read_block>
a0807198:	00000000 	nop
a080719c:	afc00014 	sw	zero,20(s8)
a08071a0:	afc00018 	sw	zero,24(s8)
a08071a4:	08201c78 	j	a08071e0 <init_inode+0x1d4>
a08071a8:	00000000 	nop
a08071ac:	8fc30018 	lw	v1,24(s8)
a08071b0:	3c020507 	lui	v0,0x507
a08071b4:	3442fa00 	ori	v0,v0,0xfa00
a08071b8:	00621021 	addu	v0,v1,v0
a08071bc:	00021140 	sll	v0,v0,0x5
a08071c0:	afc20010 	sw	v0,16(s8)
a08071c4:	8fc20010 	lw	v0,16(s8)
a08071c8:	80420000 	lb	v0,0(v0)
a08071cc:	10400017 	beqz	v0,a080722c <init_inode+0x220>
a08071d0:	00000000 	nop
a08071d4:	8fc20018 	lw	v0,24(s8)
a08071d8:	24420001 	addiu	v0,v0,1
a08071dc:	afc20018 	sw	v0,24(s8)
a08071e0:	8fc20018 	lw	v0,24(s8)
a08071e4:	8fc30020 	lw	v1,32(s8)
a08071e8:	0043102b 	sltu	v0,v0,v1
a08071ec:	1440ffef 	bnez	v0,a08071ac <init_inode+0x1a0>
a08071f0:	00000000 	nop
a08071f4:	08201c8b 	j	a080722c <init_inode+0x220>
a08071f8:	00000000 	nop
a08071fc:	8fc40014 	lw	a0,20(s8)
a0807200:	8fc30014 	lw	v1,20(s8)
a0807204:	3c02a081 	lui	v0,0xa081
a0807208:	2442f588 	addiu	v0,v0,-2680
a080720c:	00621021 	addu	v0,v1,v0
a0807210:	80430000 	lb	v1,0(v0)
a0807214:	8fc20010 	lw	v0,16(s8)
a0807218:	00441021 	addu	v0,v0,a0
a080721c:	a0430000 	sb	v1,0(v0)
a0807220:	8fc20014 	lw	v0,20(s8)
a0807224:	24420001 	addiu	v0,v0,1
a0807228:	afc20014 	sw	v0,20(s8)
a080722c:	8fc30014 	lw	v1,20(s8)
a0807230:	3c02a081 	lui	v0,0xa081
a0807234:	2442f588 	addiu	v0,v0,-2680
a0807238:	00621021 	addu	v0,v1,v0
a080723c:	80420000 	lb	v0,0(v0)
a0807240:	1440ffee 	bnez	v0,a08071fc <init_inode+0x1f0>
a0807244:	00000000 	nop
a0807248:	8fc30014 	lw	v1,20(s8)
a080724c:	8fc20010 	lw	v0,16(s8)
a0807250:	00431021 	addu	v0,v0,v1
a0807254:	a0400000 	sb	zero,0(v0)
a0807258:	8fc30010 	lw	v1,16(s8)
a080725c:	97c20044 	lhu	v0,68(s8)
a0807260:	a462001c 	sh	v0,28(v1)
a0807264:	8fc30010 	lw	v1,16(s8)
a0807268:	93c2002c 	lbu	v0,44(s8)
a080726c:	a062001e 	sb	v0,30(v1)
a0807270:	8fc4001c 	lw	a0,28(s8)
a0807274:	0c20193d 	jal	a08064f4 <write_block>
a0807278:	00000000 	nop
a080727c:	03c0e821 	move	sp,s8
a0807280:	8fbf0034 	lw	ra,52(sp)
a0807284:	8fbe0030 	lw	s8,48(sp)
a0807288:	27bd0038 	addiu	sp,sp,56
a080728c:	03e00008 	jr	ra
a0807290:	00000000 	nop

a0807294 <init_block>:
a0807294:	27bdffe0 	addiu	sp,sp,-32
a0807298:	afbf001c 	sw	ra,28(sp)
a080729c:	afbe0018 	sw	s8,24(sp)
a08072a0:	03a0f021 	move	s8,sp
a08072a4:	afc40020 	sw	a0,32(s8)
a08072a8:	00a01021 	move	v0,a1
a08072ac:	00c01821 	move	v1,a2
a08072b0:	a7c20024 	sh	v0,36(s8)
a08072b4:	a7c30028 	sh	v1,40(s8)
a08072b8:	8fc40020 	lw	a0,32(s8)
a08072bc:	0c201928 	jal	a08064a0 <read_block>
a08072c0:	00000000 	nop
a08072c4:	3c02a0ff 	lui	v0,0xa0ff
a08072c8:	34424000 	ori	v0,v0,0x4000
a08072cc:	afc20010 	sw	v0,16(s8)
a08072d0:	8fc30010 	lw	v1,16(s8)
a08072d4:	2402002e 	li	v0,46
a08072d8:	a0620000 	sb	v0,0(v1)
a08072dc:	8fc30010 	lw	v1,16(s8)
a08072e0:	2402002e 	li	v0,46
a08072e4:	a0620001 	sb	v0,1(v1)
a08072e8:	8fc20010 	lw	v0,16(s8)
a08072ec:	a0400002 	sb	zero,2(v0)
a08072f0:	8fc30010 	lw	v1,16(s8)
a08072f4:	97c20024 	lhu	v0,36(s8)
a08072f8:	a462001c 	sh	v0,28(v1)
a08072fc:	8fc30010 	lw	v1,16(s8)
a0807300:	2402ff80 	li	v0,-128
a0807304:	a062001e 	sb	v0,30(v1)
a0807308:	3c02a0ff 	lui	v0,0xa0ff
a080730c:	34424020 	ori	v0,v0,0x4020
a0807310:	afc20010 	sw	v0,16(s8)
a0807314:	8fc30010 	lw	v1,16(s8)
a0807318:	2402002e 	li	v0,46
a080731c:	a0620000 	sb	v0,0(v1)
a0807320:	8fc20010 	lw	v0,16(s8)
a0807324:	a0400001 	sb	zero,1(v0)
a0807328:	8fc30010 	lw	v1,16(s8)
a080732c:	97c20028 	lhu	v0,40(s8)
a0807330:	a462001c 	sh	v0,28(v1)
a0807334:	8fc30010 	lw	v1,16(s8)
a0807338:	2402ff80 	li	v0,-128
a080733c:	a062001e 	sb	v0,30(v1)
a0807340:	8fc40020 	lw	a0,32(s8)
a0807344:	0c20193d 	jal	a08064f4 <write_block>
a0807348:	00000000 	nop
a080734c:	03c0e821 	move	sp,s8
a0807350:	8fbf001c 	lw	ra,28(sp)
a0807354:	8fbe0018 	lw	s8,24(sp)
a0807358:	27bd0020 	addiu	sp,sp,32
a080735c:	03e00008 	jr	ra
a0807360:	00000000 	nop

a0807364 <init_root>:
a0807364:	27bdffe0 	addiu	sp,sp,-32
a0807368:	afbf001c 	sw	ra,28(sp)
a080736c:	afbe0018 	sw	s8,24(sp)
a0807370:	03a0f021 	move	s8,sp
a0807374:	24020003 	li	v0,3
a0807378:	afa20010 	sw	v0,16(sp)
a080737c:	24020080 	li	v0,128
a0807380:	afa20014 	sw	v0,20(sp)
a0807384:	24040100 	li	a0,256
a0807388:	00002821 	move	a1,zero
a080738c:	00003021 	move	a2,zero
a0807390:	00003821 	move	a3,zero
a0807394:	0c201c03 	jal	a080700c <init_inode>
a0807398:	00000000 	nop
a080739c:	24040100 	li	a0,256
a08073a0:	00002821 	move	a1,zero
a08073a4:	00003021 	move	a2,zero
a08073a8:	0c201ca5 	jal	a0807294 <init_block>
a08073ac:	00000000 	nop
a08073b0:	03c0e821 	move	sp,s8
a08073b4:	8fbf001c 	lw	ra,28(sp)
a08073b8:	8fbe0018 	lw	s8,24(sp)
a08073bc:	27bd0020 	addiu	sp,sp,32
a08073c0:	03e00008 	jr	ra
a08073c4:	00000000 	nop

a08073c8 <do_mkfs>:
a08073c8:	27bdffe0 	addiu	sp,sp,-32
a08073cc:	afbf001c 	sw	ra,28(sp)
a08073d0:	afbe0018 	sw	s8,24(sp)
a08073d4:	03a0f021 	move	s8,sp
a08073d8:	00002021 	move	a0,zero
a08073dc:	0c201928 	jal	a08064a0 <read_block>
a08073e0:	00000000 	nop
a08073e4:	3c02a0ff 	lui	v0,0xa0ff
a08073e8:	34424000 	ori	v0,v0,0x4000
a08073ec:	8c420000 	lw	v0,0(v0)
a08073f0:	afc20010 	sw	v0,16(s8)
a08073f4:	8fc30010 	lw	v1,16(s8)
a08073f8:	3c022333 	lui	v0,0x2333
a08073fc:	34423333 	ori	v0,v0,0x3333
a0807400:	14620017 	bne	v1,v0,a0807460 <do_mkfs+0x98>
a0807404:	00000000 	nop
a0807408:	3c02a081 	lui	v0,0xa081
a080740c:	2442cd88 	addiu	v0,v0,-12920
a0807410:	8c42016c 	lw	v0,364(v0)
a0807414:	24430001 	addiu	v1,v0,1
a0807418:	3c02a081 	lui	v0,0xa081
a080741c:	2442cd88 	addiu	v0,v0,-12920
a0807420:	ac43016c 	sw	v1,364(v0)
a0807424:	3c02a081 	lui	v0,0xa081
a0807428:	2442cd88 	addiu	v0,v0,-12920
a080742c:	8c42016c 	lw	v0,364(v0)
a0807430:	24040001 	li	a0,1
a0807434:	00402821 	move	a1,v0
a0807438:	0c200340 	jal	a0800d00 <vt100_move_cursor>
a080743c:	00000000 	nop
a0807440:	3c02a081 	lui	v0,0xa081
a0807444:	2444afd0 	addiu	a0,v0,-20528
a0807448:	0c2018e1 	jal	a0806384 <printk>
a080744c:	00000000 	nop
a0807450:	0c201d96 	jal	a0807658 <do_statfs>
a0807454:	00000000 	nop
a0807458:	08201d90 	j	a0807640 <do_mkfs+0x278>
a080745c:	00000000 	nop
a0807460:	3c02a081 	lui	v0,0xa081
a0807464:	2443cd88 	addiu	v1,v0,-12920
a0807468:	24020012 	li	v0,18
a080746c:	ac62016c 	sw	v0,364(v1)
a0807470:	3c02a081 	lui	v0,0xa081
a0807474:	2442cd88 	addiu	v0,v0,-12920
a0807478:	8c42016c 	lw	v0,364(v0)
a080747c:	24430001 	addiu	v1,v0,1
a0807480:	3c02a081 	lui	v0,0xa081
a0807484:	2442cd88 	addiu	v0,v0,-12920
a0807488:	ac43016c 	sw	v1,364(v0)
a080748c:	3c02a081 	lui	v0,0xa081
a0807490:	2442cd88 	addiu	v0,v0,-12920
a0807494:	8c42016c 	lw	v0,364(v0)
a0807498:	24040001 	li	a0,1
a080749c:	00402821 	move	a1,v0
a08074a0:	0c200340 	jal	a0800d00 <vt100_move_cursor>
a08074a4:	00000000 	nop
a08074a8:	3c02a081 	lui	v0,0xa081
a08074ac:	2444aff4 	addiu	a0,v0,-20492
a08074b0:	0c2018e1 	jal	a0806384 <printk>
a08074b4:	00000000 	nop
a08074b8:	3c02a081 	lui	v0,0xa081
a08074bc:	2442cd88 	addiu	v0,v0,-12920
a08074c0:	8c42016c 	lw	v0,364(v0)
a08074c4:	24430001 	addiu	v1,v0,1
a08074c8:	3c02a081 	lui	v0,0xa081
a08074cc:	2442cd88 	addiu	v0,v0,-12920
a08074d0:	ac43016c 	sw	v1,364(v0)
a08074d4:	3c02a081 	lui	v0,0xa081
a08074d8:	2442cd88 	addiu	v0,v0,-12920
a08074dc:	8c42016c 	lw	v0,364(v0)
a08074e0:	24040001 	li	a0,1
a08074e4:	00402821 	move	a1,v0
a08074e8:	0c200340 	jal	a0800d00 <vt100_move_cursor>
a08074ec:	00000000 	nop
a08074f0:	3c02a081 	lui	v0,0xa081
a08074f4:	2444b01c 	addiu	a0,v0,-20452
a08074f8:	0c2018e1 	jal	a0806384 <printk>
a08074fc:	00000000 	nop
a0807500:	0c201b5b 	jal	a0806d6c <init_superblock>
a0807504:	00000000 	nop
a0807508:	3c02a081 	lui	v0,0xa081
a080750c:	2442cd88 	addiu	v0,v0,-12920
a0807510:	8c42016c 	lw	v0,364(v0)
a0807514:	24430001 	addiu	v1,v0,1
a0807518:	3c02a081 	lui	v0,0xa081
a080751c:	2442cd88 	addiu	v0,v0,-12920
a0807520:	ac43016c 	sw	v1,364(v0)
a0807524:	3c02a081 	lui	v0,0xa081
a0807528:	2442cd88 	addiu	v0,v0,-12920
a080752c:	8c42016c 	lw	v0,364(v0)
a0807530:	24040001 	li	a0,1
a0807534:	00402821 	move	a1,v0
a0807538:	0c200340 	jal	a0800d00 <vt100_move_cursor>
a080753c:	00000000 	nop
a0807540:	3c02a081 	lui	v0,0xa081
a0807544:	2444b038 	addiu	a0,v0,-20424
a0807548:	0c2018e1 	jal	a0806384 <printk>
a080754c:	00000000 	nop
a0807550:	0c201bb1 	jal	a0806ec4 <init_inodemap>
a0807554:	00000000 	nop
a0807558:	3c02a081 	lui	v0,0xa081
a080755c:	2442cd88 	addiu	v0,v0,-12920
a0807560:	8c42016c 	lw	v0,364(v0)
a0807564:	24430001 	addiu	v1,v0,1
a0807568:	3c02a081 	lui	v0,0xa081
a080756c:	2442cd88 	addiu	v0,v0,-12920
a0807570:	ac43016c 	sw	v1,364(v0)
a0807574:	3c02a081 	lui	v0,0xa081
a0807578:	2442cd88 	addiu	v0,v0,-12920
a080757c:	8c42016c 	lw	v0,364(v0)
a0807580:	24040001 	li	a0,1
a0807584:	00402821 	move	a1,v0
a0807588:	0c200340 	jal	a0800d00 <vt100_move_cursor>
a080758c:	00000000 	nop
a0807590:	3c02a081 	lui	v0,0xa081
a0807594:	2444b054 	addiu	a0,v0,-20396
a0807598:	0c2018e1 	jal	a0806384 <printk>
a080759c:	00000000 	nop
a08075a0:	0c201bd1 	jal	a0806f44 <init_blockmap>
a08075a4:	00000000 	nop
a08075a8:	3c02a081 	lui	v0,0xa081
a08075ac:	2442cd88 	addiu	v0,v0,-12920
a08075b0:	8c42016c 	lw	v0,364(v0)
a08075b4:	24430001 	addiu	v1,v0,1
a08075b8:	3c02a081 	lui	v0,0xa081
a08075bc:	2442cd88 	addiu	v0,v0,-12920
a08075c0:	ac43016c 	sw	v1,364(v0)
a08075c4:	3c02a081 	lui	v0,0xa081
a08075c8:	2442cd88 	addiu	v0,v0,-12920
a08075cc:	8c42016c 	lw	v0,364(v0)
a08075d0:	24040001 	li	a0,1
a08075d4:	00402821 	move	a1,v0
a08075d8:	0c200340 	jal	a0800d00 <vt100_move_cursor>
a08075dc:	00000000 	nop
a08075e0:	3c02a081 	lui	v0,0xa081
a08075e4:	2444b070 	addiu	a0,v0,-20368
a08075e8:	0c2018e1 	jal	a0806384 <printk>
a08075ec:	00000000 	nop
a08075f0:	0c201cd9 	jal	a0807364 <init_root>
a08075f4:	00000000 	nop
a08075f8:	3c02a081 	lui	v0,0xa081
a08075fc:	2442cd88 	addiu	v0,v0,-12920
a0807600:	8c42016c 	lw	v0,364(v0)
a0807604:	24430001 	addiu	v1,v0,1
a0807608:	3c02a081 	lui	v0,0xa081
a080760c:	2442cd88 	addiu	v0,v0,-12920
a0807610:	ac43016c 	sw	v1,364(v0)
a0807614:	3c02a081 	lui	v0,0xa081
a0807618:	2442cd88 	addiu	v0,v0,-12920
a080761c:	8c42016c 	lw	v0,364(v0)
a0807620:	24040001 	li	a0,1
a0807624:	00402821 	move	a1,v0
a0807628:	0c200340 	jal	a0800d00 <vt100_move_cursor>
a080762c:	00000000 	nop
a0807630:	3c02a081 	lui	v0,0xa081
a0807634:	2444b088 	addiu	a0,v0,-20344
a0807638:	0c2018e1 	jal	a0806384 <printk>
a080763c:	00000000 	nop
a0807640:	03c0e821 	move	sp,s8
a0807644:	8fbf001c 	lw	ra,28(sp)
a0807648:	8fbe0018 	lw	s8,24(sp)
a080764c:	27bd0020 	addiu	sp,sp,32
a0807650:	03e00008 	jr	ra
a0807654:	00000000 	nop

a0807658 <do_statfs>:
a0807658:	27bdffb8 	addiu	sp,sp,-72
a080765c:	afbf0044 	sw	ra,68(sp)
a0807660:	afbe0040 	sw	s8,64(sp)
a0807664:	03a0f021 	move	s8,sp
a0807668:	00002021 	move	a0,zero
a080766c:	0c201928 	jal	a08064a0 <read_block>
a0807670:	00000000 	nop
a0807674:	3c02a081 	lui	v0,0xa081
a0807678:	2442f748 	addiu	v0,v0,-2232
a080767c:	00402021 	move	a0,v0
a0807680:	3c02a0ff 	lui	v0,0xa0ff
a0807684:	34454000 	ori	a1,v0,0x4000
a0807688:	24060040 	li	a2,64
a080768c:	0c201642 	jal	a0805908 <memcpy>
a0807690:	00000000 	nop
a0807694:	3c02a081 	lui	v0,0xa081
a0807698:	2442cd88 	addiu	v0,v0,-12920
a080769c:	8c42016c 	lw	v0,364(v0)
a08076a0:	24430001 	addiu	v1,v0,1
a08076a4:	3c02a081 	lui	v0,0xa081
a08076a8:	2442cd88 	addiu	v0,v0,-12920
a08076ac:	ac43016c 	sw	v1,364(v0)
a08076b0:	3c02a081 	lui	v0,0xa081
a08076b4:	2442cd88 	addiu	v0,v0,-12920
a08076b8:	8c42016c 	lw	v0,364(v0)
a08076bc:	24040001 	li	a0,1
a08076c0:	00402821 	move	a1,v0
a08076c4:	0c200340 	jal	a0800d00 <vt100_move_cursor>
a08076c8:	00000000 	nop
a08076cc:	3c02a081 	lui	v0,0xa081
a08076d0:	8c43f748 	lw	v1,-2232(v0)
a08076d4:	3c02a081 	lui	v0,0xa081
a08076d8:	2444b0b0 	addiu	a0,v0,-20304
a08076dc:	00602821 	move	a1,v1
a08076e0:	0c2018e1 	jal	a0806384 <printk>
a08076e4:	00000000 	nop
a08076e8:	3c02a081 	lui	v0,0xa081
a08076ec:	2442cd88 	addiu	v0,v0,-12920
a08076f0:	8c42016c 	lw	v0,364(v0)
a08076f4:	24430001 	addiu	v1,v0,1
a08076f8:	3c02a081 	lui	v0,0xa081
a08076fc:	2442cd88 	addiu	v0,v0,-12920
a0807700:	ac43016c 	sw	v1,364(v0)
a0807704:	3c02a081 	lui	v0,0xa081
a0807708:	2442cd88 	addiu	v0,v0,-12920
a080770c:	8c42016c 	lw	v0,364(v0)
a0807710:	24040001 	li	a0,1
a0807714:	00402821 	move	a1,v0
a0807718:	0c200340 	jal	a0800d00 <vt100_move_cursor>
a080771c:	00000000 	nop
a0807720:	3c02a081 	lui	v0,0xa081
a0807724:	2442f748 	addiu	v0,v0,-2232
a0807728:	8c45003c 	lw	a1,60(v0)
a080772c:	3c02a081 	lui	v0,0xa081
a0807730:	2442f748 	addiu	v0,v0,-2232
a0807734:	8c460038 	lw	a2,56(v0)
a0807738:	3c02a081 	lui	v0,0xa081
a080773c:	2442f748 	addiu	v0,v0,-2232
a0807740:	8c430008 	lw	v1,8(v0)
a0807744:	3c02a081 	lui	v0,0xa081
a0807748:	2442f748 	addiu	v0,v0,-2232
a080774c:	8c420034 	lw	v0,52(v0)
a0807750:	0062001b 	divu	zero,v1,v0
a0807754:	004001f4 	teq	v0,zero,0x7
a0807758:	00001012 	mflo	v0
a080775c:	00401821 	move	v1,v0
a0807760:	3c02a081 	lui	v0,0xa081
a0807764:	2444b0c4 	addiu	a0,v0,-20284
a0807768:	00603821 	move	a3,v1
a080776c:	0c2018e1 	jal	a0806384 <printk>
a0807770:	00000000 	nop
a0807774:	3c02a081 	lui	v0,0xa081
a0807778:	2442cd88 	addiu	v0,v0,-12920
a080777c:	8c42016c 	lw	v0,364(v0)
a0807780:	24430001 	addiu	v1,v0,1
a0807784:	3c02a081 	lui	v0,0xa081
a0807788:	2442cd88 	addiu	v0,v0,-12920
a080778c:	ac43016c 	sw	v1,364(v0)
a0807790:	3c02a081 	lui	v0,0xa081
a0807794:	2442cd88 	addiu	v0,v0,-12920
a0807798:	8c42016c 	lw	v0,364(v0)
a080779c:	24040001 	li	a0,1
a08077a0:	00402821 	move	a1,v0
a08077a4:	0c200340 	jal	a0800d00 <vt100_move_cursor>
a08077a8:	00000000 	nop
a08077ac:	3c02a081 	lui	v0,0xa081
a08077b0:	2442f748 	addiu	v0,v0,-2232
a08077b4:	8c430010 	lw	v1,16(v0)
a08077b8:	3c02a081 	lui	v0,0xa081
a08077bc:	2442f748 	addiu	v0,v0,-2232
a08077c0:	8c420034 	lw	v0,52(v0)
a08077c4:	0062001b 	divu	zero,v1,v0
a08077c8:	004001f4 	teq	v0,zero,0x7
a08077cc:	00001012 	mflo	v0
a08077d0:	00402821 	move	a1,v0
a08077d4:	3c02a081 	lui	v0,0xa081
a08077d8:	2442f748 	addiu	v0,v0,-2232
a08077dc:	8c430014 	lw	v1,20(v0)
a08077e0:	3c02a081 	lui	v0,0xa081
a08077e4:	2442f748 	addiu	v0,v0,-2232
a08077e8:	8c420034 	lw	v0,52(v0)
a08077ec:	0062001b 	divu	zero,v1,v0
a08077f0:	004001f4 	teq	v0,zero,0x7
a08077f4:	00001012 	mflo	v0
a08077f8:	00403021 	move	a2,v0
a08077fc:	3c02a081 	lui	v0,0xa081
a0807800:	2442f748 	addiu	v0,v0,-2232
a0807804:	8c430028 	lw	v1,40(v0)
a0807808:	3c02a081 	lui	v0,0xa081
a080780c:	2442f748 	addiu	v0,v0,-2232
a0807810:	8c420024 	lw	v0,36(v0)
a0807814:	00021182 	srl	v0,v0,0x6
a0807818:	afa20010 	sw	v0,16(sp)
a080781c:	3c02a081 	lui	v0,0xa081
a0807820:	2444b0e8 	addiu	a0,v0,-20248
a0807824:	00603821 	move	a3,v1
a0807828:	0c2018e1 	jal	a0806384 <printk>
a080782c:	00000000 	nop
a0807830:	3c02a081 	lui	v0,0xa081
a0807834:	2442cd88 	addiu	v0,v0,-12920
a0807838:	8c42016c 	lw	v0,364(v0)
a080783c:	24430001 	addiu	v1,v0,1
a0807840:	3c02a081 	lui	v0,0xa081
a0807844:	2442cd88 	addiu	v0,v0,-12920
a0807848:	ac43016c 	sw	v1,364(v0)
a080784c:	3c02a081 	lui	v0,0xa081
a0807850:	2442cd88 	addiu	v0,v0,-12920
a0807854:	8c42016c 	lw	v0,364(v0)
a0807858:	24040001 	li	a0,1
a080785c:	00402821 	move	a1,v0
a0807860:	0c200340 	jal	a0800d00 <vt100_move_cursor>
a0807864:	00000000 	nop
a0807868:	3c02a081 	lui	v0,0xa081
a080786c:	2442f748 	addiu	v0,v0,-2232
a0807870:	8c430018 	lw	v1,24(v0)
a0807874:	3c02a081 	lui	v0,0xa081
a0807878:	2442f748 	addiu	v0,v0,-2232
a080787c:	8c420034 	lw	v0,52(v0)
a0807880:	0062001b 	divu	zero,v1,v0
a0807884:	004001f4 	teq	v0,zero,0x7
a0807888:	00001012 	mflo	v0
a080788c:	00402821 	move	a1,v0
a0807890:	3c02a081 	lui	v0,0xa081
a0807894:	2442f748 	addiu	v0,v0,-2232
a0807898:	8c43001c 	lw	v1,28(v0)
a080789c:	3c02a081 	lui	v0,0xa081
a08078a0:	2442f748 	addiu	v0,v0,-2232
a08078a4:	8c420034 	lw	v0,52(v0)
a08078a8:	0062001b 	divu	zero,v1,v0
a08078ac:	004001f4 	teq	v0,zero,0x7
a08078b0:	00001012 	mflo	v0
a08078b4:	00401821 	move	v1,v0
a08078b8:	3c02a081 	lui	v0,0xa081
a08078bc:	2444b120 	addiu	a0,v0,-20192
a08078c0:	00603021 	move	a2,v1
a08078c4:	0c2018e1 	jal	a0806384 <printk>
a08078c8:	00000000 	nop
a08078cc:	3c02a081 	lui	v0,0xa081
a08078d0:	2442cd88 	addiu	v0,v0,-12920
a08078d4:	8c42016c 	lw	v0,364(v0)
a08078d8:	24430001 	addiu	v1,v0,1
a08078dc:	3c02a081 	lui	v0,0xa081
a08078e0:	2442cd88 	addiu	v0,v0,-12920
a08078e4:	ac43016c 	sw	v1,364(v0)
a08078e8:	3c02a081 	lui	v0,0xa081
a08078ec:	2442cd88 	addiu	v0,v0,-12920
a08078f0:	8c42016c 	lw	v0,364(v0)
a08078f4:	24040001 	li	a0,1
a08078f8:	00402821 	move	a1,v0
a08078fc:	0c200340 	jal	a0800d00 <vt100_move_cursor>
a0807900:	00000000 	nop
a0807904:	3c02a081 	lui	v0,0xa081
a0807908:	2442f748 	addiu	v0,v0,-2232
a080790c:	8c430020 	lw	v1,32(v0)
a0807910:	3c02a081 	lui	v0,0xa081
a0807914:	2442f748 	addiu	v0,v0,-2232
a0807918:	8c420034 	lw	v0,52(v0)
a080791c:	0062001b 	divu	zero,v1,v0
a0807920:	004001f4 	teq	v0,zero,0x7
a0807924:	00001012 	mflo	v0
a0807928:	00402821 	move	a1,v0
a080792c:	3c02a081 	lui	v0,0xa081
a0807930:	2442f748 	addiu	v0,v0,-2232
a0807934:	8c430024 	lw	v1,36(v0)
a0807938:	3c02a081 	lui	v0,0xa081
a080793c:	2442f748 	addiu	v0,v0,-2232
a0807940:	8c420034 	lw	v0,52(v0)
a0807944:	0062001b 	divu	zero,v1,v0
a0807948:	004001f4 	teq	v0,zero,0x7
a080794c:	00001012 	mflo	v0
a0807950:	00401821 	move	v1,v0
a0807954:	3c02a081 	lui	v0,0xa081
a0807958:	2444b14c 	addiu	a0,v0,-20148
a080795c:	00603021 	move	a2,v1
a0807960:	0c2018e1 	jal	a0806384 <printk>
a0807964:	00000000 	nop
a0807968:	3c02a081 	lui	v0,0xa081
a080796c:	2442cd88 	addiu	v0,v0,-12920
a0807970:	8c42016c 	lw	v0,364(v0)
a0807974:	24430001 	addiu	v1,v0,1
a0807978:	3c02a081 	lui	v0,0xa081
a080797c:	2442cd88 	addiu	v0,v0,-12920
a0807980:	ac43016c 	sw	v1,364(v0)
a0807984:	3c02a081 	lui	v0,0xa081
a0807988:	2442cd88 	addiu	v0,v0,-12920
a080798c:	8c42016c 	lw	v0,364(v0)
a0807990:	24040001 	li	a0,1
a0807994:	00402821 	move	a1,v0
a0807998:	0c200340 	jal	a0800d00 <vt100_move_cursor>
a080799c:	00000000 	nop
a08079a0:	3c02a081 	lui	v0,0xa081
a08079a4:	2442f748 	addiu	v0,v0,-2232
a08079a8:	8c43002c 	lw	v1,44(v0)
a08079ac:	3c02a081 	lui	v0,0xa081
a08079b0:	2442f748 	addiu	v0,v0,-2232
a08079b4:	8c420034 	lw	v0,52(v0)
a08079b8:	0062001b 	divu	zero,v1,v0
a08079bc:	004001f4 	teq	v0,zero,0x7
a08079c0:	00001012 	mflo	v0
a08079c4:	00402821 	move	a1,v0
a08079c8:	3c02a081 	lui	v0,0xa081
a08079cc:	2442f748 	addiu	v0,v0,-2232
a08079d0:	8c430030 	lw	v1,48(v0)
a08079d4:	3c02a081 	lui	v0,0xa081
a08079d8:	2442f748 	addiu	v0,v0,-2232
a08079dc:	8c420034 	lw	v0,52(v0)
a08079e0:	0062001b 	divu	zero,v1,v0
a08079e4:	004001f4 	teq	v0,zero,0x7
a08079e8:	00001012 	mflo	v0
a08079ec:	00401821 	move	v1,v0
a08079f0:	3c02a081 	lui	v0,0xa081
a08079f4:	2444b174 	addiu	a0,v0,-20108
a08079f8:	00603021 	move	a2,v1
a08079fc:	0c2018e1 	jal	a0806384 <printk>
a0807a00:	00000000 	nop
a0807a04:	3c02a081 	lui	v0,0xa081
a0807a08:	2442cd88 	addiu	v0,v0,-12920
a0807a0c:	8c42016c 	lw	v0,364(v0)
a0807a10:	24430001 	addiu	v1,v0,1
a0807a14:	3c02a081 	lui	v0,0xa081
a0807a18:	2442cd88 	addiu	v0,v0,-12920
a0807a1c:	ac43016c 	sw	v1,364(v0)
a0807a20:	3c02a081 	lui	v0,0xa081
a0807a24:	2442cd88 	addiu	v0,v0,-12920
a0807a28:	8c42016c 	lw	v0,364(v0)
a0807a2c:	24040001 	li	a0,1
a0807a30:	00402821 	move	a1,v0
a0807a34:	0c200340 	jal	a0800d00 <vt100_move_cursor>
a0807a38:	00000000 	nop
a0807a3c:	3c02a081 	lui	v0,0xa081
a0807a40:	2444b198 	addiu	a0,v0,-20072
a0807a44:	24050040 	li	a1,64
a0807a48:	24060020 	li	a2,32
a0807a4c:	0c2018e1 	jal	a0806384 <printk>
a0807a50:	00000000 	nop
a0807a54:	03c0e821 	move	sp,s8
a0807a58:	8fbf0044 	lw	ra,68(sp)
a0807a5c:	8fbe0040 	lw	s8,64(sp)
a0807a60:	27bd0048 	addiu	sp,sp,72
a0807a64:	03e00008 	jr	ra
a0807a68:	00000000 	nop

a0807a6c <do_ls>:
a0807a6c:	27bdffc8 	addiu	sp,sp,-56
a0807a70:	afbf0034 	sw	ra,52(sp)
a0807a74:	afbe0030 	sw	s8,48(sp)
a0807a78:	03a0f021 	move	s8,sp
a0807a7c:	0c2019f3 	jal	a08067cc <path_locate>
a0807a80:	00000000 	nop
a0807a84:	a7c20028 	sh	v0,40(s8)
a0807a88:	97c30028 	lhu	v1,40(s8)
a0807a8c:	3402ffff 	li	v0,0xffff
a0807a90:	14620015 	bne	v1,v0,a0807ae8 <do_ls+0x7c>
a0807a94:	00000000 	nop
a0807a98:	3c02a081 	lui	v0,0xa081
a0807a9c:	2442cd88 	addiu	v0,v0,-12920
a0807aa0:	8c42016c 	lw	v0,364(v0)
a0807aa4:	24430001 	addiu	v1,v0,1
a0807aa8:	3c02a081 	lui	v0,0xa081
a0807aac:	2442cd88 	addiu	v0,v0,-12920
a0807ab0:	ac43016c 	sw	v1,364(v0)
a0807ab4:	3c02a081 	lui	v0,0xa081
a0807ab8:	2442cd88 	addiu	v0,v0,-12920
a0807abc:	8c42016c 	lw	v0,364(v0)
a0807ac0:	24040001 	li	a0,1
a0807ac4:	00402821 	move	a1,v0
a0807ac8:	0c200340 	jal	a0800d00 <vt100_move_cursor>
a0807acc:	00000000 	nop
a0807ad0:	3c02a081 	lui	v0,0xa081
a0807ad4:	2444b1cc 	addiu	a0,v0,-20020
a0807ad8:	0c2018e1 	jal	a0806384 <printk>
a0807adc:	00000000 	nop
a0807ae0:	08201f0c 	j	a0807c30 <do_ls+0x1c4>
a0807ae4:	00000000 	nop
a0807ae8:	97c20028 	lhu	v0,40(s8)
a0807aec:	00402021 	move	a0,v0
a0807af0:	0c201996 	jal	a0806658 <read_inode>
a0807af4:	00000000 	nop
a0807af8:	3c02a081 	lui	v0,0xa081
a0807afc:	2442f948 	addiu	v0,v0,-1720
a0807b00:	8c420038 	lw	v0,56(v0)
a0807b04:	afc20024 	sw	v0,36(s8)
a0807b08:	3c02a081 	lui	v0,0xa081
a0807b0c:	2442f948 	addiu	v0,v0,-1720
a0807b10:	8c420004 	lw	v0,4(v0)
a0807b14:	afc20020 	sw	v0,32(s8)
a0807b18:	8fc40020 	lw	a0,32(s8)
a0807b1c:	0c201928 	jal	a08064a0 <read_block>
a0807b20:	00000000 	nop
a0807b24:	3c02a081 	lui	v0,0xa081
a0807b28:	2442cd88 	addiu	v0,v0,-12920
a0807b2c:	8c42016c 	lw	v0,364(v0)
a0807b30:	24430001 	addiu	v1,v0,1
a0807b34:	3c02a081 	lui	v0,0xa081
a0807b38:	2442cd88 	addiu	v0,v0,-12920
a0807b3c:	ac43016c 	sw	v1,364(v0)
a0807b40:	3c02a081 	lui	v0,0xa081
a0807b44:	2442cd88 	addiu	v0,v0,-12920
a0807b48:	8c42016c 	lw	v0,364(v0)
a0807b4c:	24040001 	li	a0,1
a0807b50:	00402821 	move	a1,v0
a0807b54:	0c200340 	jal	a0800d00 <vt100_move_cursor>
a0807b58:	00000000 	nop
a0807b5c:	24020002 	li	v0,2
a0807b60:	afc2001c 	sw	v0,28(s8)
a0807b64:	24020002 	li	v0,2
a0807b68:	afc20018 	sw	v0,24(s8)
a0807b6c:	08201f07 	j	a0807c1c <do_ls+0x1b0>
a0807b70:	00000000 	nop
a0807b74:	8fc3001c 	lw	v1,28(s8)
a0807b78:	3c020507 	lui	v0,0x507
a0807b7c:	3442fa00 	ori	v0,v0,0xfa00
a0807b80:	00621021 	addu	v0,v1,v0
a0807b84:	00021140 	sll	v0,v0,0x5
a0807b88:	afc20014 	sw	v0,20(s8)
a0807b8c:	8fc2001c 	lw	v0,28(s8)
a0807b90:	24420001 	addiu	v0,v0,1
a0807b94:	afc2001c 	sw	v0,28(s8)
a0807b98:	8fc20014 	lw	v0,20(s8)
a0807b9c:	80420000 	lb	v0,0(v0)
a0807ba0:	1040001e 	beqz	v0,a0807c1c <do_ls+0x1b0>
a0807ba4:	00000000 	nop
a0807ba8:	afc00010 	sw	zero,16(s8)
a0807bac:	08201efa 	j	a0807be8 <do_ls+0x17c>
a0807bb0:	00000000 	nop
a0807bb4:	8fc30010 	lw	v1,16(s8)
a0807bb8:	8fc20014 	lw	v0,20(s8)
a0807bbc:	00431021 	addu	v0,v0,v1
a0807bc0:	80420000 	lb	v0,0(v0)
a0807bc4:	00401821 	move	v1,v0
a0807bc8:	8fc20010 	lw	v0,16(s8)
a0807bcc:	24420001 	addiu	v0,v0,1
a0807bd0:	afc20010 	sw	v0,16(s8)
a0807bd4:	3c02a081 	lui	v0,0xa081
a0807bd8:	2444b1e0 	addiu	a0,v0,-20000
a0807bdc:	00602821 	move	a1,v1
a0807be0:	0c2018e1 	jal	a0806384 <printk>
a0807be4:	00000000 	nop
a0807be8:	8fc30010 	lw	v1,16(s8)
a0807bec:	8fc20014 	lw	v0,20(s8)
a0807bf0:	00431021 	addu	v0,v0,v1
a0807bf4:	80420000 	lb	v0,0(v0)
a0807bf8:	1440ffee 	bnez	v0,a0807bb4 <do_ls+0x148>
a0807bfc:	00000000 	nop
a0807c00:	3c02a081 	lui	v0,0xa081
a0807c04:	2444b1e4 	addiu	a0,v0,-19996
a0807c08:	0c2018e1 	jal	a0806384 <printk>
a0807c0c:	00000000 	nop
a0807c10:	8fc20018 	lw	v0,24(s8)
a0807c14:	24420001 	addiu	v0,v0,1
a0807c18:	afc20018 	sw	v0,24(s8)
a0807c1c:	8fc20018 	lw	v0,24(s8)
a0807c20:	8fc30024 	lw	v1,36(s8)
a0807c24:	0043102b 	sltu	v0,v0,v1
a0807c28:	1440ffd2 	bnez	v0,a0807b74 <do_ls+0x108>
a0807c2c:	00000000 	nop
a0807c30:	03c0e821 	move	sp,s8
a0807c34:	8fbf0034 	lw	ra,52(sp)
a0807c38:	8fbe0030 	lw	s8,48(sp)
a0807c3c:	27bd0038 	addiu	sp,sp,56
a0807c40:	03e00008 	jr	ra
a0807c44:	00000000 	nop

a0807c48 <do_cd>:
a0807c48:	27bdffd8 	addiu	sp,sp,-40
a0807c4c:	afbf0024 	sw	ra,36(sp)
a0807c50:	afbe0020 	sw	s8,32(sp)
a0807c54:	03a0f021 	move	s8,sp
a0807c58:	0c2019f3 	jal	a08067cc <path_locate>
a0807c5c:	00000000 	nop
a0807c60:	a7c2001c 	sh	v0,28(s8)
a0807c64:	97c3001c 	lhu	v1,28(s8)
a0807c68:	3402ffff 	li	v0,0xffff
a0807c6c:	14620015 	bne	v1,v0,a0807cc4 <do_cd+0x7c>
a0807c70:	00000000 	nop
a0807c74:	3c02a081 	lui	v0,0xa081
a0807c78:	2442cd88 	addiu	v0,v0,-12920
a0807c7c:	8c42016c 	lw	v0,364(v0)
a0807c80:	24430001 	addiu	v1,v0,1
a0807c84:	3c02a081 	lui	v0,0xa081
a0807c88:	2442cd88 	addiu	v0,v0,-12920
a0807c8c:	ac43016c 	sw	v1,364(v0)
a0807c90:	3c02a081 	lui	v0,0xa081
a0807c94:	2442cd88 	addiu	v0,v0,-12920
a0807c98:	8c42016c 	lw	v0,364(v0)
a0807c9c:	24040001 	li	a0,1
a0807ca0:	00402821 	move	a1,v0
a0807ca4:	0c200340 	jal	a0800d00 <vt100_move_cursor>
a0807ca8:	00000000 	nop
a0807cac:	3c02a081 	lui	v0,0xa081
a0807cb0:	2444b1cc 	addiu	a0,v0,-20020
a0807cb4:	0c2018e1 	jal	a0806384 <printk>
a0807cb8:	00000000 	nop
a0807cbc:	08202009 	j	a0808024 <do_cd+0x3dc>
a0807cc0:	00000000 	nop
a0807cc4:	3c02a081 	lui	v0,0xa081
a0807cc8:	2443cd88 	addiu	v1,v0,-12920
a0807ccc:	97c2001c 	lhu	v0,28(s8)
a0807cd0:	a462027c 	sh	v0,636(v1)
a0807cd4:	afc00010 	sw	zero,16(s8)
a0807cd8:	3c02a081 	lui	v0,0xa081
a0807cdc:	8c42b400 	lw	v0,-19456(v0)
a0807ce0:	10400065 	beqz	v0,a0807e78 <do_cd+0x230>
a0807ce4:	00000000 	nop
a0807ce8:	afc00018 	sw	zero,24(s8)
a0807cec:	08201f90 	j	a0807e40 <do_cd+0x1f8>
a0807cf0:	00000000 	nop
a0807cf4:	8fc20018 	lw	v0,24(s8)
a0807cf8:	3c04a081 	lui	a0,0xa081
a0807cfc:	00021880 	sll	v1,v0,0x2
a0807d00:	000310c0 	sll	v0,v1,0x3
a0807d04:	00431023 	subu	v0,v0,v1
a0807d08:	2483f588 	addiu	v1,a0,-2680
a0807d0c:	00431021 	addu	v0,v0,v1
a0807d10:	80430000 	lb	v1,0(v0)
a0807d14:	2402002e 	li	v0,46
a0807d18:	14620019 	bne	v1,v0,a0807d80 <do_cd+0x138>
a0807d1c:	00000000 	nop
a0807d20:	8fc20010 	lw	v0,16(s8)
a0807d24:	24420001 	addiu	v0,v0,1
a0807d28:	afc20010 	sw	v0,16(s8)
a0807d2c:	8fc20018 	lw	v0,24(s8)
a0807d30:	3c04a081 	lui	a0,0xa081
a0807d34:	00021880 	sll	v1,v0,0x2
a0807d38:	000310c0 	sll	v0,v1,0x3
a0807d3c:	00431023 	subu	v0,v0,v1
a0807d40:	2483f588 	addiu	v1,a0,-2680
a0807d44:	00431021 	addu	v0,v0,v1
a0807d48:	80430001 	lb	v1,1(v0)
a0807d4c:	2402002e 	li	v0,46
a0807d50:	14620038 	bne	v1,v0,a0807e34 <do_cd+0x1ec>
a0807d54:	00000000 	nop
a0807d58:	8fc20018 	lw	v0,24(s8)
a0807d5c:	8fc30010 	lw	v1,16(s8)
a0807d60:	00431023 	subu	v0,v0,v1
a0807d64:	04400033 	bltz	v0,a0807e34 <do_cd+0x1ec>
a0807d68:	00000000 	nop
a0807d6c:	8fc20010 	lw	v0,16(s8)
a0807d70:	24420001 	addiu	v0,v0,1
a0807d74:	afc20010 	sw	v0,16(s8)
a0807d78:	08201f8d 	j	a0807e34 <do_cd+0x1ec>
a0807d7c:	00000000 	nop
a0807d80:	afc00014 	sw	zero,20(s8)
a0807d84:	08201f89 	j	a0807e24 <do_cd+0x1dc>
a0807d88:	00000000 	nop
a0807d8c:	8fc30018 	lw	v1,24(s8)
a0807d90:	8fc20010 	lw	v0,16(s8)
a0807d94:	00623023 	subu	a2,v1,v0
a0807d98:	8fc70014 	lw	a3,20(s8)
a0807d9c:	8fc20018 	lw	v0,24(s8)
a0807da0:	8fc40014 	lw	a0,20(s8)
a0807da4:	3c05a081 	lui	a1,0xa081
a0807da8:	00021880 	sll	v1,v0,0x2
a0807dac:	000310c0 	sll	v0,v1,0x3
a0807db0:	00431023 	subu	v0,v0,v1
a0807db4:	00441821 	addu	v1,v0,a0
a0807db8:	24a2f588 	addiu	v0,a1,-2680
a0807dbc:	00621021 	addu	v0,v1,v0
a0807dc0:	80440000 	lb	a0,0(v0)
a0807dc4:	3c05a081 	lui	a1,0xa081
a0807dc8:	00c01021 	move	v0,a2
a0807dcc:	00021880 	sll	v1,v0,0x2
a0807dd0:	000310c0 	sll	v0,v1,0x3
a0807dd4:	00431023 	subu	v0,v0,v1
a0807dd8:	00471821 	addu	v1,v0,a3
a0807ddc:	24a2f788 	addiu	v0,a1,-2168
a0807de0:	00621021 	addu	v0,v1,v0
a0807de4:	a0440000 	sb	a0,0(v0)
a0807de8:	8fc20018 	lw	v0,24(s8)
a0807dec:	8fc40014 	lw	a0,20(s8)
a0807df0:	3c05a081 	lui	a1,0xa081
a0807df4:	00021880 	sll	v1,v0,0x2
a0807df8:	000310c0 	sll	v0,v1,0x3
a0807dfc:	00431023 	subu	v0,v0,v1
a0807e00:	00441821 	addu	v1,v0,a0
a0807e04:	24a2f588 	addiu	v0,a1,-2680
a0807e08:	00621021 	addu	v0,v1,v0
a0807e0c:	80420000 	lb	v0,0(v0)
a0807e10:	10400008 	beqz	v0,a0807e34 <do_cd+0x1ec>
a0807e14:	00000000 	nop
a0807e18:	8fc20014 	lw	v0,20(s8)
a0807e1c:	24420001 	addiu	v0,v0,1
a0807e20:	afc20014 	sw	v0,20(s8)
a0807e24:	8fc20014 	lw	v0,20(s8)
a0807e28:	2842001c 	slti	v0,v0,28
a0807e2c:	1440ffd7 	bnez	v0,a0807d8c <do_cd+0x144>
a0807e30:	00000000 	nop
a0807e34:	8fc20018 	lw	v0,24(s8)
a0807e38:	24420001 	addiu	v0,v0,1
a0807e3c:	afc20018 	sw	v0,24(s8)
a0807e40:	3c02a081 	lui	v0,0xa081
a0807e44:	8c43c7a4 	lw	v1,-14428(v0)
a0807e48:	8fc20018 	lw	v0,24(s8)
a0807e4c:	0043102a 	slt	v0,v0,v1
a0807e50:	1440ffa8 	bnez	v0,a0807cf4 <do_cd+0xac>
a0807e54:	00000000 	nop
a0807e58:	3c02a081 	lui	v0,0xa081
a0807e5c:	8c43c7a4 	lw	v1,-14428(v0)
a0807e60:	8fc20010 	lw	v0,16(s8)
a0807e64:	00621823 	subu	v1,v1,v0
a0807e68:	3c02a081 	lui	v0,0xa081
a0807e6c:	ac43c7a0 	sw	v1,-14432(v0)
a0807e70:	08202009 	j	a0808024 <do_cd+0x3dc>
a0807e74:	00000000 	nop
a0807e78:	afc00018 	sw	zero,24(s8)
a0807e7c:	08201ffa 	j	a0807fe8 <do_cd+0x3a0>
a0807e80:	00000000 	nop
a0807e84:	8fc20018 	lw	v0,24(s8)
a0807e88:	3c04a081 	lui	a0,0xa081
a0807e8c:	00021880 	sll	v1,v0,0x2
a0807e90:	000310c0 	sll	v0,v1,0x3
a0807e94:	00431023 	subu	v0,v0,v1
a0807e98:	2483f588 	addiu	v1,a0,-2680
a0807e9c:	00431021 	addu	v0,v0,v1
a0807ea0:	80430000 	lb	v1,0(v0)
a0807ea4:	2402002e 	li	v0,46
a0807ea8:	1462001c 	bne	v1,v0,a0807f1c <do_cd+0x2d4>
a0807eac:	00000000 	nop
a0807eb0:	8fc20010 	lw	v0,16(s8)
a0807eb4:	24420001 	addiu	v0,v0,1
a0807eb8:	afc20010 	sw	v0,16(s8)
a0807ebc:	8fc20018 	lw	v0,24(s8)
a0807ec0:	3c04a081 	lui	a0,0xa081
a0807ec4:	00021880 	sll	v1,v0,0x2
a0807ec8:	000310c0 	sll	v0,v1,0x3
a0807ecc:	00431023 	subu	v0,v0,v1
a0807ed0:	2483f588 	addiu	v1,a0,-2680
a0807ed4:	00431021 	addu	v0,v0,v1
a0807ed8:	80430001 	lb	v1,1(v0)
a0807edc:	2402002e 	li	v0,46
a0807ee0:	1462003e 	bne	v1,v0,a0807fdc <do_cd+0x394>
a0807ee4:	00000000 	nop
a0807ee8:	3c02a081 	lui	v0,0xa081
a0807eec:	8c43c7a0 	lw	v1,-14432(v0)
a0807ef0:	8fc20018 	lw	v0,24(s8)
a0807ef4:	00621821 	addu	v1,v1,v0
a0807ef8:	8fc20010 	lw	v0,16(s8)
a0807efc:	00621023 	subu	v0,v1,v0
a0807f00:	04400036 	bltz	v0,a0807fdc <do_cd+0x394>
a0807f04:	00000000 	nop
a0807f08:	8fc20010 	lw	v0,16(s8)
a0807f0c:	24420001 	addiu	v0,v0,1
a0807f10:	afc20010 	sw	v0,16(s8)
a0807f14:	08201ff7 	j	a0807fdc <do_cd+0x394>
a0807f18:	00000000 	nop
a0807f1c:	afc00014 	sw	zero,20(s8)
a0807f20:	08201ff3 	j	a0807fcc <do_cd+0x384>
a0807f24:	00000000 	nop
a0807f28:	3c02a081 	lui	v0,0xa081
a0807f2c:	8c43c7a0 	lw	v1,-14432(v0)
a0807f30:	8fc20018 	lw	v0,24(s8)
a0807f34:	00621821 	addu	v1,v1,v0
a0807f38:	8fc20010 	lw	v0,16(s8)
a0807f3c:	00623023 	subu	a2,v1,v0
a0807f40:	8fc70014 	lw	a3,20(s8)
a0807f44:	8fc20018 	lw	v0,24(s8)
a0807f48:	8fc40014 	lw	a0,20(s8)
a0807f4c:	3c05a081 	lui	a1,0xa081
a0807f50:	00021880 	sll	v1,v0,0x2
a0807f54:	000310c0 	sll	v0,v1,0x3
a0807f58:	00431023 	subu	v0,v0,v1
a0807f5c:	00441821 	addu	v1,v0,a0
a0807f60:	24a2f588 	addiu	v0,a1,-2680
a0807f64:	00621021 	addu	v0,v1,v0
a0807f68:	80440000 	lb	a0,0(v0)
a0807f6c:	3c05a081 	lui	a1,0xa081
a0807f70:	00c01021 	move	v0,a2
a0807f74:	00021880 	sll	v1,v0,0x2
a0807f78:	000310c0 	sll	v0,v1,0x3
a0807f7c:	00431023 	subu	v0,v0,v1
a0807f80:	00471821 	addu	v1,v0,a3
a0807f84:	24a2f788 	addiu	v0,a1,-2168
a0807f88:	00621021 	addu	v0,v1,v0
a0807f8c:	a0440000 	sb	a0,0(v0)
a0807f90:	8fc20018 	lw	v0,24(s8)
a0807f94:	8fc40014 	lw	a0,20(s8)
a0807f98:	3c05a081 	lui	a1,0xa081
a0807f9c:	00021880 	sll	v1,v0,0x2
a0807fa0:	000310c0 	sll	v0,v1,0x3
a0807fa4:	00431023 	subu	v0,v0,v1
a0807fa8:	00441821 	addu	v1,v0,a0
a0807fac:	24a2f588 	addiu	v0,a1,-2680
a0807fb0:	00621021 	addu	v0,v1,v0
a0807fb4:	80420000 	lb	v0,0(v0)
a0807fb8:	10400008 	beqz	v0,a0807fdc <do_cd+0x394>
a0807fbc:	00000000 	nop
a0807fc0:	8fc20014 	lw	v0,20(s8)
a0807fc4:	24420001 	addiu	v0,v0,1
a0807fc8:	afc20014 	sw	v0,20(s8)
a0807fcc:	8fc20014 	lw	v0,20(s8)
a0807fd0:	2842001c 	slti	v0,v0,28
a0807fd4:	1440ffd4 	bnez	v0,a0807f28 <do_cd+0x2e0>
a0807fd8:	00000000 	nop
a0807fdc:	8fc20018 	lw	v0,24(s8)
a0807fe0:	24420001 	addiu	v0,v0,1
a0807fe4:	afc20018 	sw	v0,24(s8)
a0807fe8:	3c02a081 	lui	v0,0xa081
a0807fec:	8c43c7a4 	lw	v1,-14428(v0)
a0807ff0:	8fc20018 	lw	v0,24(s8)
a0807ff4:	0043102a 	slt	v0,v0,v1
a0807ff8:	1440ffa2 	bnez	v0,a0807e84 <do_cd+0x23c>
a0807ffc:	00000000 	nop
a0808000:	3c02a081 	lui	v0,0xa081
a0808004:	8c43c7a0 	lw	v1,-14432(v0)
a0808008:	3c02a081 	lui	v0,0xa081
a080800c:	8c42c7a4 	lw	v0,-14428(v0)
a0808010:	00621821 	addu	v1,v1,v0
a0808014:	8fc20010 	lw	v0,16(s8)
a0808018:	00621823 	subu	v1,v1,v0
a080801c:	3c02a081 	lui	v0,0xa081
a0808020:	ac43c7a0 	sw	v1,-14432(v0)
a0808024:	03c0e821 	move	sp,s8
a0808028:	8fbf0024 	lw	ra,36(sp)
a080802c:	8fbe0020 	lw	s8,32(sp)
a0808030:	27bd0028 	addiu	sp,sp,40
a0808034:	03e00008 	jr	ra
a0808038:	00000000 	nop

a080803c <do_mkdir>:
a080803c:	27bdffd8 	addiu	sp,sp,-40
a0808040:	afbf0024 	sw	ra,36(sp)
a0808044:	afbe0020 	sw	s8,32(sp)
a0808048:	03a0f021 	move	s8,sp
a080804c:	0c201a5f 	jal	a080697c <alloc_inode>
a0808050:	00000000 	nop
a0808054:	a7c2001c 	sh	v0,28(s8)
a0808058:	0c201aaf 	jal	a0806abc <alloc_block>
a080805c:	00000000 	nop
a0808060:	afc20018 	sw	v0,24(s8)
a0808064:	3c02a081 	lui	v0,0xa081
a0808068:	2442cd88 	addiu	v0,v0,-12920
a080806c:	9442027c 	lhu	v0,636(v0)
a0808070:	00401821 	move	v1,v0
a0808074:	97c7001c 	lhu	a3,28(s8)
a0808078:	24020003 	li	v0,3
a080807c:	afa20010 	sw	v0,16(sp)
a0808080:	24020080 	li	v0,128
a0808084:	afa20014 	sw	v0,20(sp)
a0808088:	8fc40018 	lw	a0,24(s8)
a080808c:	00002821 	move	a1,zero
a0808090:	00603021 	move	a2,v1
a0808094:	0c201c03 	jal	a080700c <init_inode>
a0808098:	00000000 	nop
a080809c:	3c02a081 	lui	v0,0xa081
a08080a0:	2442cd88 	addiu	v0,v0,-12920
a08080a4:	9442027c 	lhu	v0,636(v0)
a08080a8:	97c3001c 	lhu	v1,28(s8)
a08080ac:	8fc40018 	lw	a0,24(s8)
a08080b0:	00402821 	move	a1,v0
a08080b4:	00603021 	move	a2,v1
a08080b8:	0c201ca5 	jal	a0807294 <init_block>
a08080bc:	00000000 	nop
a08080c0:	3c02a081 	lui	v0,0xa081
a08080c4:	2442cd88 	addiu	v0,v0,-12920
a08080c8:	8c42016c 	lw	v0,364(v0)
a08080cc:	24430001 	addiu	v1,v0,1
a08080d0:	3c02a081 	lui	v0,0xa081
a08080d4:	2442cd88 	addiu	v0,v0,-12920
a08080d8:	ac43016c 	sw	v1,364(v0)
a08080dc:	3c02a081 	lui	v0,0xa081
a08080e0:	2442cd88 	addiu	v0,v0,-12920
a08080e4:	8c42016c 	lw	v0,364(v0)
a08080e8:	24040001 	li	a0,1
a08080ec:	00402821 	move	a1,v0
a08080f0:	0c200340 	jal	a0800d00 <vt100_move_cursor>
a08080f4:	00000000 	nop
a08080f8:	3c02a081 	lui	v0,0xa081
a08080fc:	2444b1e8 	addiu	a0,v0,-19992
a0808100:	0c2018e1 	jal	a0806384 <printk>
a0808104:	00000000 	nop
a0808108:	03c0e821 	move	sp,s8
a080810c:	8fbf0024 	lw	ra,36(sp)
a0808110:	8fbe0020 	lw	s8,32(sp)
a0808114:	27bd0028 	addiu	sp,sp,40
a0808118:	03e00008 	jr	ra
a080811c:	00000000 	nop

a0808120 <do_rmdir>:
a0808120:	27bdffc0 	addiu	sp,sp,-64
a0808124:	afbf003c 	sw	ra,60(sp)
a0808128:	afbe0038 	sw	s8,56(sp)
a080812c:	03a0f021 	move	s8,sp
a0808130:	3c02a081 	lui	v0,0xa081
a0808134:	2442cd88 	addiu	v0,v0,-12920
a0808138:	9442027c 	lhu	v0,636(v0)
a080813c:	a7c20028 	sh	v0,40(s8)
a0808140:	97c20028 	lhu	v0,40(s8)
a0808144:	00402021 	move	a0,v0
a0808148:	0c201996 	jal	a0806658 <read_inode>
a080814c:	00000000 	nop
a0808150:	3c02a081 	lui	v0,0xa081
a0808154:	2442f948 	addiu	v0,v0,-1720
a0808158:	8c420038 	lw	v0,56(v0)
a080815c:	afc20024 	sw	v0,36(s8)
a0808160:	2443ffff 	addiu	v1,v0,-1
a0808164:	3c02a081 	lui	v0,0xa081
a0808168:	2442f948 	addiu	v0,v0,-1720
a080816c:	ac430038 	sw	v1,56(v0)
a0808170:	3c02a081 	lui	v0,0xa081
a0808174:	2442f948 	addiu	v0,v0,-1720
a0808178:	8c420004 	lw	v0,4(v0)
a080817c:	afc20020 	sw	v0,32(s8)
a0808180:	97c20028 	lhu	v0,40(s8)
a0808184:	00402021 	move	a0,v0
a0808188:	0c2019be 	jal	a08066f8 <write_inode>
a080818c:	00000000 	nop
a0808190:	8fc40020 	lw	a0,32(s8)
a0808194:	0c201928 	jal	a08064a0 <read_block>
a0808198:	00000000 	nop
a080819c:	24020002 	li	v0,2
a08081a0:	afc2001c 	sw	v0,28(s8)
a08081a4:	24020002 	li	v0,2
a08081a8:	afc20018 	sw	v0,24(s8)
a08081ac:	afc00014 	sw	zero,20(s8)
a08081b0:	08202098 	j	a0808260 <do_rmdir+0x140>
a08081b4:	00000000 	nop
a08081b8:	8fc3001c 	lw	v1,28(s8)
a08081bc:	3c020507 	lui	v0,0x507
a08081c0:	3442fa00 	ori	v0,v0,0xfa00
a08081c4:	00621021 	addu	v0,v1,v0
a08081c8:	00021140 	sll	v0,v0,0x5
a08081cc:	afc20010 	sw	v0,16(s8)
a08081d0:	8fc2001c 	lw	v0,28(s8)
a08081d4:	24420001 	addiu	v0,v0,1
a08081d8:	afc2001c 	sw	v0,28(s8)
a08081dc:	8fc20010 	lw	v0,16(s8)
a08081e0:	80420000 	lb	v0,0(v0)
a08081e4:	1040001e 	beqz	v0,a0808260 <do_rmdir+0x140>
a08081e8:	00000000 	nop
a08081ec:	8fc20018 	lw	v0,24(s8)
a08081f0:	24420001 	addiu	v0,v0,1
a08081f4:	afc20018 	sw	v0,24(s8)
a08081f8:	8fc20010 	lw	v0,16(s8)
a08081fc:	9043001e 	lbu	v1,30(v0)
a0808200:	24020080 	li	v0,128
a0808204:	14620016 	bne	v1,v0,a0808260 <do_rmdir+0x140>
a0808208:	00000000 	nop
a080820c:	3c02a081 	lui	v0,0xa081
a0808210:	2442f588 	addiu	v0,v0,-2680
a0808214:	8fc30010 	lw	v1,16(s8)
a0808218:	00402021 	move	a0,v0
a080821c:	00602821 	move	a1,v1
a0808220:	0c20168c 	jal	a0805a30 <strcmp>
a0808224:	00000000 	nop
a0808228:	1440000d 	bnez	v0,a0808260 <do_rmdir+0x140>
a080822c:	00000000 	nop
a0808230:	8fc20010 	lw	v0,16(s8)
a0808234:	a0400000 	sb	zero,0(v0)
a0808238:	8fc20010 	lw	v0,16(s8)
a080823c:	9442001c 	lhu	v0,28(v0)
a0808240:	a7c20028 	sh	v0,40(s8)
a0808244:	24020001 	li	v0,1
a0808248:	afc20014 	sw	v0,20(s8)
a080824c:	8fc40020 	lw	a0,32(s8)
a0808250:	0c20193d 	jal	a08064f4 <write_block>
a0808254:	00000000 	nop
a0808258:	0820209d 	j	a0808274 <do_rmdir+0x154>
a080825c:	00000000 	nop
a0808260:	8fc20018 	lw	v0,24(s8)
a0808264:	8fc30024 	lw	v1,36(s8)
a0808268:	0043102b 	sltu	v0,v0,v1
a080826c:	1440ffd2 	bnez	v0,a08081b8 <do_rmdir+0x98>
a0808270:	00000000 	nop
a0808274:	8fc20014 	lw	v0,20(s8)
a0808278:	14400005 	bnez	v0,a0808290 <do_rmdir+0x170>
a080827c:	00000000 	nop
a0808280:	24020001 	li	v0,1
a0808284:	afc20030 	sw	v0,48(s8)
a0808288:	082020c0 	j	a0808300 <do_rmdir+0x1e0>
a080828c:	00000000 	nop
a0808290:	97c20028 	lhu	v0,40(s8)
a0808294:	00402021 	move	a0,v0
a0808298:	0c201996 	jal	a0806658 <read_inode>
a080829c:	00000000 	nop
a08082a0:	afc0001c 	sw	zero,28(s8)
a08082a4:	082020b7 	j	a08082dc <do_rmdir+0x1bc>
a08082a8:	00000000 	nop
a08082ac:	8fc4001c 	lw	a0,28(s8)
a08082b0:	3c02a081 	lui	v0,0xa081
a08082b4:	2443f948 	addiu	v1,v0,-1720
a08082b8:	00041080 	sll	v0,a0,0x2
a08082bc:	00621021 	addu	v0,v1,v0
a08082c0:	8c420004 	lw	v0,4(v0)
a08082c4:	00402021 	move	a0,v0
a08082c8:	0c201b2d 	jal	a0806cb4 <free_block>
a08082cc:	00000000 	nop
a08082d0:	8fc2001c 	lw	v0,28(s8)
a08082d4:	24420001 	addiu	v0,v0,1
a08082d8:	afc2001c 	sw	v0,28(s8)
a08082dc:	8fc2001c 	lw	v0,28(s8)
a08082e0:	28420008 	slti	v0,v0,8
a08082e4:	1440fff1 	bnez	v0,a08082ac <do_rmdir+0x18c>
a08082e8:	00000000 	nop
a08082ec:	97c20028 	lhu	v0,40(s8)
a08082f0:	00402021 	move	a0,v0
a08082f4:	0c201afd 	jal	a0806bf4 <free_inode>
a08082f8:	00000000 	nop
a08082fc:	afc00030 	sw	zero,48(s8)
a0808300:	8fc20030 	lw	v0,48(s8)
a0808304:	03c0e821 	move	sp,s8
a0808308:	8fbf003c 	lw	ra,60(sp)
a080830c:	8fbe0038 	lw	s8,56(sp)
a0808310:	27bd0040 	addiu	sp,sp,64
a0808314:	03e00008 	jr	ra
a0808318:	00000000 	nop

a080831c <do_touch>:
a080831c:	27bdffd8 	addiu	sp,sp,-40
a0808320:	afbf0024 	sw	ra,36(sp)
a0808324:	afbe0020 	sw	s8,32(sp)
a0808328:	03a0f021 	move	s8,sp
a080832c:	0c201a5f 	jal	a080697c <alloc_inode>
a0808330:	00000000 	nop
a0808334:	a7c2001c 	sh	v0,28(s8)
a0808338:	0c201aaf 	jal	a0806abc <alloc_block>
a080833c:	00000000 	nop
a0808340:	afc20018 	sw	v0,24(s8)
a0808344:	3c02a081 	lui	v0,0xa081
a0808348:	2442cd88 	addiu	v0,v0,-12920
a080834c:	9442027c 	lhu	v0,636(v0)
a0808350:	00401821 	move	v1,v0
a0808354:	97c7001c 	lhu	a3,28(s8)
a0808358:	24020003 	li	v0,3
a080835c:	afa20010 	sw	v0,16(sp)
a0808360:	afa00014 	sw	zero,20(sp)
a0808364:	8fc40018 	lw	a0,24(s8)
a0808368:	00002821 	move	a1,zero
a080836c:	00603021 	move	a2,v1
a0808370:	0c201c03 	jal	a080700c <init_inode>
a0808374:	00000000 	nop
a0808378:	3c02a081 	lui	v0,0xa081
a080837c:	2442cd88 	addiu	v0,v0,-12920
a0808380:	8c42016c 	lw	v0,364(v0)
a0808384:	24430001 	addiu	v1,v0,1
a0808388:	3c02a081 	lui	v0,0xa081
a080838c:	2442cd88 	addiu	v0,v0,-12920
a0808390:	ac43016c 	sw	v1,364(v0)
a0808394:	3c02a081 	lui	v0,0xa081
a0808398:	2442cd88 	addiu	v0,v0,-12920
a080839c:	8c42016c 	lw	v0,364(v0)
a08083a0:	24040001 	li	a0,1
a08083a4:	00402821 	move	a1,v0
a08083a8:	0c200340 	jal	a0800d00 <vt100_move_cursor>
a08083ac:	00000000 	nop
a08083b0:	3c02a081 	lui	v0,0xa081
a08083b4:	2444b1e8 	addiu	a0,v0,-19992
a08083b8:	0c2018e1 	jal	a0806384 <printk>
a08083bc:	00000000 	nop
a08083c0:	03c0e821 	move	sp,s8
a08083c4:	8fbf0024 	lw	ra,36(sp)
a08083c8:	8fbe0020 	lw	s8,32(sp)
a08083cc:	27bd0028 	addiu	sp,sp,40
a08083d0:	03e00008 	jr	ra
a08083d4:	00000000 	nop

a08083d8 <do_cat>:
a08083d8:	27bdffb8 	addiu	sp,sp,-72
a08083dc:	afbf0044 	sw	ra,68(sp)
a08083e0:	afbe0040 	sw	s8,64(sp)
a08083e4:	03a0f021 	move	s8,sp
a08083e8:	3c02a081 	lui	v0,0xa081
a08083ec:	2442cd88 	addiu	v0,v0,-12920
a08083f0:	9442027c 	lhu	v0,636(v0)
a08083f4:	a7c20030 	sh	v0,48(s8)
a08083f8:	97c20030 	lhu	v0,48(s8)
a08083fc:	00402021 	move	a0,v0
a0808400:	0c201996 	jal	a0806658 <read_inode>
a0808404:	00000000 	nop
a0808408:	3c02a081 	lui	v0,0xa081
a080840c:	2442f948 	addiu	v0,v0,-1720
a0808410:	8c420038 	lw	v0,56(v0)
a0808414:	afc2002c 	sw	v0,44(s8)
a0808418:	3c02a081 	lui	v0,0xa081
a080841c:	2442f948 	addiu	v0,v0,-1720
a0808420:	8c420004 	lw	v0,4(v0)
a0808424:	afc20028 	sw	v0,40(s8)
a0808428:	8fc40028 	lw	a0,40(s8)
a080842c:	0c201928 	jal	a08064a0 <read_block>
a0808430:	00000000 	nop
a0808434:	24020002 	li	v0,2
a0808438:	afc20024 	sw	v0,36(s8)
a080843c:	24020002 	li	v0,2
a0808440:	afc20020 	sw	v0,32(s8)
a0808444:	afc0001c 	sw	zero,28(s8)
a0808448:	08202138 	j	a08084e0 <do_cat+0x108>
a080844c:	00000000 	nop
a0808450:	8fc30024 	lw	v1,36(s8)
a0808454:	3c020507 	lui	v0,0x507
a0808458:	3442fa00 	ori	v0,v0,0xfa00
a080845c:	00621021 	addu	v0,v1,v0
a0808460:	00021140 	sll	v0,v0,0x5
a0808464:	afc20018 	sw	v0,24(s8)
a0808468:	8fc20024 	lw	v0,36(s8)
a080846c:	24420001 	addiu	v0,v0,1
a0808470:	afc20024 	sw	v0,36(s8)
a0808474:	8fc20018 	lw	v0,24(s8)
a0808478:	80420000 	lb	v0,0(v0)
a080847c:	10400018 	beqz	v0,a08084e0 <do_cat+0x108>
a0808480:	00000000 	nop
a0808484:	8fc20020 	lw	v0,32(s8)
a0808488:	24420001 	addiu	v0,v0,1
a080848c:	afc20020 	sw	v0,32(s8)
a0808490:	8fc20018 	lw	v0,24(s8)
a0808494:	9042001e 	lbu	v0,30(v0)
a0808498:	14400011 	bnez	v0,a08084e0 <do_cat+0x108>
a080849c:	00000000 	nop
a08084a0:	3c02a081 	lui	v0,0xa081
a08084a4:	2442f588 	addiu	v0,v0,-2680
a08084a8:	8fc30018 	lw	v1,24(s8)
a08084ac:	00402021 	move	a0,v0
a08084b0:	00602821 	move	a1,v1
a08084b4:	0c20168c 	jal	a0805a30 <strcmp>
a08084b8:	00000000 	nop
a08084bc:	14400008 	bnez	v0,a08084e0 <do_cat+0x108>
a08084c0:	00000000 	nop
a08084c4:	8fc20018 	lw	v0,24(s8)
a08084c8:	9442001c 	lhu	v0,28(v0)
a08084cc:	a7c20030 	sh	v0,48(s8)
a08084d0:	24020001 	li	v0,1
a08084d4:	afc2001c 	sw	v0,28(s8)
a08084d8:	0820213d 	j	a08084f4 <do_cat+0x11c>
a08084dc:	00000000 	nop
a08084e0:	8fc20020 	lw	v0,32(s8)
a08084e4:	8fc3002c 	lw	v1,44(s8)
a08084e8:	0043102b 	sltu	v0,v0,v1
a08084ec:	1440ffd8 	bnez	v0,a0808450 <do_cat+0x78>
a08084f0:	00000000 	nop
a08084f4:	8fc2001c 	lw	v0,28(s8)
a08084f8:	14400005 	bnez	v0,a0808510 <do_cat+0x138>
a08084fc:	00000000 	nop
a0808500:	24020001 	li	v0,1
a0808504:	afc20038 	sw	v0,56(s8)
a0808508:	0820219c 	j	a0808670 <do_cat+0x298>
a080850c:	00000000 	nop
a0808510:	3c02a081 	lui	v0,0xa081
a0808514:	2442cd88 	addiu	v0,v0,-12920
a0808518:	8c42016c 	lw	v0,364(v0)
a080851c:	24430001 	addiu	v1,v0,1
a0808520:	3c02a081 	lui	v0,0xa081
a0808524:	2442cd88 	addiu	v0,v0,-12920
a0808528:	ac43016c 	sw	v1,364(v0)
a080852c:	3c02a081 	lui	v0,0xa081
a0808530:	2442cd88 	addiu	v0,v0,-12920
a0808534:	8c42016c 	lw	v0,364(v0)
a0808538:	24040001 	li	a0,1
a080853c:	00402821 	move	a1,v0
a0808540:	0c200340 	jal	a0800d00 <vt100_move_cursor>
a0808544:	00000000 	nop
a0808548:	97c20030 	lhu	v0,48(s8)
a080854c:	00402021 	move	a0,v0
a0808550:	0c201996 	jal	a0806658 <read_inode>
a0808554:	00000000 	nop
a0808558:	3c02a081 	lui	v0,0xa081
a080855c:	2442f948 	addiu	v0,v0,-1720
a0808560:	8c420034 	lw	v0,52(v0)
a0808564:	afc2002c 	sw	v0,44(s8)
a0808568:	afc00024 	sw	zero,36(s8)
a080856c:	08202196 	j	a0808658 <do_cat+0x280>
a0808570:	00000000 	nop
a0808574:	8fc40024 	lw	a0,36(s8)
a0808578:	3c02a081 	lui	v0,0xa081
a080857c:	2443f948 	addiu	v1,v0,-1720
a0808580:	00041080 	sll	v0,a0,0x2
a0808584:	00621021 	addu	v0,v1,v0
a0808588:	8c420004 	lw	v0,4(v0)
a080858c:	afc20028 	sw	v0,40(s8)
a0808590:	8fc40028 	lw	a0,40(s8)
a0808594:	0c201928 	jal	a08064a0 <read_block>
a0808598:	00000000 	nop
a080859c:	afc00014 	sw	zero,20(s8)
a08085a0:	0820218d 	j	a0808634 <do_cat+0x25c>
a08085a4:	00000000 	nop
a08085a8:	8fc30014 	lw	v1,20(s8)
a08085ac:	3c02a0ff 	lui	v0,0xa0ff
a08085b0:	34424000 	ori	v0,v0,0x4000
a08085b4:	00621021 	addu	v0,v1,v0
a08085b8:	90420000 	lbu	v0,0(v0)
a08085bc:	a3c20010 	sb	v0,16(s8)
a08085c0:	83c30010 	lb	v1,16(s8)
a08085c4:	2402000a 	li	v0,10
a08085c8:	14620011 	bne	v1,v0,a0808610 <do_cat+0x238>
a08085cc:	00000000 	nop
a08085d0:	3c02a081 	lui	v0,0xa081
a08085d4:	2442cd88 	addiu	v0,v0,-12920
a08085d8:	8c42016c 	lw	v0,364(v0)
a08085dc:	24430001 	addiu	v1,v0,1
a08085e0:	3c02a081 	lui	v0,0xa081
a08085e4:	2442cd88 	addiu	v0,v0,-12920
a08085e8:	ac43016c 	sw	v1,364(v0)
a08085ec:	3c02a081 	lui	v0,0xa081
a08085f0:	2442cd88 	addiu	v0,v0,-12920
a08085f4:	8c42016c 	lw	v0,364(v0)
a08085f8:	24040001 	li	a0,1
a08085fc:	00402821 	move	a1,v0
a0808600:	0c200340 	jal	a0800d00 <vt100_move_cursor>
a0808604:	00000000 	nop
a0808608:	0820218a 	j	a0808628 <do_cat+0x250>
a080860c:	00000000 	nop
a0808610:	83c30010 	lb	v1,16(s8)
a0808614:	3c02a081 	lui	v0,0xa081
a0808618:	2444b1e0 	addiu	a0,v0,-20000
a080861c:	00602821 	move	a1,v1
a0808620:	0c2018e1 	jal	a0806384 <printk>
a0808624:	00000000 	nop
a0808628:	8fc20014 	lw	v0,20(s8)
a080862c:	24420001 	addiu	v0,v0,1
a0808630:	afc20014 	sw	v0,20(s8)
a0808634:	8fc30014 	lw	v1,20(s8)
a0808638:	3c02a081 	lui	v0,0xa081
a080863c:	8c42f948 	lw	v0,-1720(v0)
a0808640:	0062102b 	sltu	v0,v1,v0
a0808644:	1440ffd8 	bnez	v0,a08085a8 <do_cat+0x1d0>
a0808648:	00000000 	nop
a080864c:	8fc20024 	lw	v0,36(s8)
a0808650:	24420001 	addiu	v0,v0,1
a0808654:	afc20024 	sw	v0,36(s8)
a0808658:	8fc20024 	lw	v0,36(s8)
a080865c:	8fc3002c 	lw	v1,44(s8)
a0808660:	0043102b 	sltu	v0,v0,v1
a0808664:	1440ffc3 	bnez	v0,a0808574 <do_cat+0x19c>
a0808668:	00000000 	nop
a080866c:	afc00038 	sw	zero,56(s8)
a0808670:	8fc20038 	lw	v0,56(s8)
a0808674:	03c0e821 	move	sp,s8
a0808678:	8fbf0044 	lw	ra,68(sp)
a080867c:	8fbe0040 	lw	s8,64(sp)
a0808680:	27bd0048 	addiu	sp,sp,72
a0808684:	03e00008 	jr	ra
a0808688:	00000000 	nop

a080868c <do_fopen>:
a080868c:	27bdffb8 	addiu	sp,sp,-72
a0808690:	afbf0044 	sw	ra,68(sp)
a0808694:	afbe0040 	sw	s8,64(sp)
a0808698:	03a0f021 	move	s8,sp
a080869c:	afc40048 	sw	a0,72(s8)
a08086a0:	afc5004c 	sw	a1,76(s8)
a08086a4:	3c02a081 	lui	v0,0xa081
a08086a8:	2442cd88 	addiu	v0,v0,-12920
a08086ac:	9442027c 	lhu	v0,636(v0)
a08086b0:	a7c20038 	sh	v0,56(s8)
a08086b4:	97c20038 	lhu	v0,56(s8)
a08086b8:	00402021 	move	a0,v0
a08086bc:	0c201996 	jal	a0806658 <read_inode>
a08086c0:	00000000 	nop
a08086c4:	3c02a081 	lui	v0,0xa081
a08086c8:	2442f948 	addiu	v0,v0,-1720
a08086cc:	8c420038 	lw	v0,56(v0)
a08086d0:	afc20034 	sw	v0,52(s8)
a08086d4:	3c02a081 	lui	v0,0xa081
a08086d8:	2442f948 	addiu	v0,v0,-1720
a08086dc:	8c420004 	lw	v0,4(v0)
a08086e0:	afc20030 	sw	v0,48(s8)
a08086e4:	8fc40030 	lw	a0,48(s8)
a08086e8:	0c201928 	jal	a08064a0 <read_block>
a08086ec:	00000000 	nop
a08086f0:	24020002 	li	v0,2
a08086f4:	afc2002c 	sw	v0,44(s8)
a08086f8:	24020002 	li	v0,2
a08086fc:	afc20028 	sw	v0,40(s8)
a0808700:	afc00024 	sw	zero,36(s8)
a0808704:	082021e5 	j	a0808794 <do_fopen+0x108>
a0808708:	00000000 	nop
a080870c:	8fc3002c 	lw	v1,44(s8)
a0808710:	3c020507 	lui	v0,0x507
a0808714:	3442fa00 	ori	v0,v0,0xfa00
a0808718:	00621021 	addu	v0,v1,v0
a080871c:	00021140 	sll	v0,v0,0x5
a0808720:	afc20018 	sw	v0,24(s8)
a0808724:	8fc2002c 	lw	v0,44(s8)
a0808728:	24420001 	addiu	v0,v0,1
a080872c:	afc2002c 	sw	v0,44(s8)
a0808730:	8fc20018 	lw	v0,24(s8)
a0808734:	80420000 	lb	v0,0(v0)
a0808738:	10400016 	beqz	v0,a0808794 <do_fopen+0x108>
a080873c:	00000000 	nop
a0808740:	8fc20028 	lw	v0,40(s8)
a0808744:	24420001 	addiu	v0,v0,1
a0808748:	afc20028 	sw	v0,40(s8)
a080874c:	8fc20018 	lw	v0,24(s8)
a0808750:	9042001e 	lbu	v0,30(v0)
a0808754:	1440000f 	bnez	v0,a0808794 <do_fopen+0x108>
a0808758:	00000000 	nop
a080875c:	8fc20018 	lw	v0,24(s8)
a0808760:	8fc40048 	lw	a0,72(s8)
a0808764:	00402821 	move	a1,v0
a0808768:	0c20168c 	jal	a0805a30 <strcmp>
a080876c:	00000000 	nop
a0808770:	14400008 	bnez	v0,a0808794 <do_fopen+0x108>
a0808774:	00000000 	nop
a0808778:	8fc20018 	lw	v0,24(s8)
a080877c:	9442001c 	lhu	v0,28(v0)
a0808780:	a7c20038 	sh	v0,56(s8)
a0808784:	24020001 	li	v0,1
a0808788:	afc20024 	sw	v0,36(s8)
a080878c:	082021ea 	j	a08087a8 <do_fopen+0x11c>
a0808790:	00000000 	nop
a0808794:	8fc20028 	lw	v0,40(s8)
a0808798:	8fc30034 	lw	v1,52(s8)
a080879c:	0043102b 	sltu	v0,v0,v1
a08087a0:	1440ffda 	bnez	v0,a080870c <do_fopen+0x80>
a08087a4:	00000000 	nop
a08087a8:	afc0002c 	sw	zero,44(s8)
a08087ac:	8fc20024 	lw	v0,36(s8)
a08087b0:	1440002c 	bnez	v0,a0808864 <do_fopen+0x1d8>
a08087b4:	00000000 	nop
a08087b8:	082021fd 	j	a08087f4 <do_fopen+0x168>
a08087bc:	00000000 	nop
a08087c0:	8fc3002c 	lw	v1,44(s8)
a08087c4:	8fc20048 	lw	v0,72(s8)
a08087c8:	80440000 	lb	a0,0(v0)
a08087cc:	3c02a081 	lui	v0,0xa081
a08087d0:	2442f588 	addiu	v0,v0,-2680
a08087d4:	00621021 	addu	v0,v1,v0
a08087d8:	a0440000 	sb	a0,0(v0)
a08087dc:	8fc20048 	lw	v0,72(s8)
a08087e0:	24420001 	addiu	v0,v0,1
a08087e4:	afc20048 	sw	v0,72(s8)
a08087e8:	8fc2002c 	lw	v0,44(s8)
a08087ec:	24420001 	addiu	v0,v0,1
a08087f0:	afc2002c 	sw	v0,44(s8)
a08087f4:	8fc20048 	lw	v0,72(s8)
a08087f8:	80420000 	lb	v0,0(v0)
a08087fc:	1440fff0 	bnez	v0,a08087c0 <do_fopen+0x134>
a0808800:	00000000 	nop
a0808804:	8fc3002c 	lw	v1,44(s8)
a0808808:	3c02a081 	lui	v0,0xa081
a080880c:	2442f588 	addiu	v0,v0,-2680
a0808810:	00621021 	addu	v0,v1,v0
a0808814:	a0400000 	sb	zero,0(v0)
a0808818:	0c201a5f 	jal	a080697c <alloc_inode>
a080881c:	00000000 	nop
a0808820:	a7c20038 	sh	v0,56(s8)
a0808824:	0c201aaf 	jal	a0806abc <alloc_block>
a0808828:	00000000 	nop
a080882c:	afc20030 	sw	v0,48(s8)
a0808830:	3c02a081 	lui	v0,0xa081
a0808834:	2442cd88 	addiu	v0,v0,-12920
a0808838:	9442027c 	lhu	v0,636(v0)
a080883c:	00401821 	move	v1,v0
a0808840:	97c70038 	lhu	a3,56(s8)
a0808844:	24020003 	li	v0,3
a0808848:	afa20010 	sw	v0,16(sp)
a080884c:	afa00014 	sw	zero,20(sp)
a0808850:	8fc40030 	lw	a0,48(s8)
a0808854:	00002821 	move	a1,zero
a0808858:	00603021 	move	a2,v1
a080885c:	0c201c03 	jal	a080700c <init_inode>
a0808860:	00000000 	nop
a0808864:	97c20038 	lhu	v0,56(s8)
a0808868:	00402021 	move	a0,v0
a080886c:	0c201996 	jal	a0806658 <read_inode>
a0808870:	00000000 	nop
a0808874:	afc00020 	sw	zero,32(s8)
a0808878:	0820222d 	j	a08088b4 <do_fopen+0x228>
a080887c:	00000000 	nop
a0808880:	8fc30020 	lw	v1,32(s8)
a0808884:	3c020283 	lui	v0,0x283
a0808888:	3442ff00 	ori	v0,v0,0xff00
a080888c:	00621021 	addu	v0,v1,v0
a0808890:	00021180 	sll	v0,v0,0x6
a0808894:	afc2001c 	sw	v0,28(s8)
a0808898:	8fc2001c 	lw	v0,28(s8)
a080889c:	9042003f 	lbu	v0,63(v0)
a08088a0:	10400008 	beqz	v0,a08088c4 <do_fopen+0x238>
a08088a4:	00000000 	nop
a08088a8:	8fc20020 	lw	v0,32(s8)
a08088ac:	24420001 	addiu	v0,v0,1
a08088b0:	afc20020 	sw	v0,32(s8)
a08088b4:	8fc20020 	lw	v0,32(s8)
a08088b8:	28420040 	slti	v0,v0,64
a08088bc:	1440fff0 	bnez	v0,a0808880 <do_fopen+0x1f4>
a08088c0:	00000000 	nop
a08088c4:	3c02a081 	lui	v0,0xa081
a08088c8:	8c43f948 	lw	v1,-1720(v0)
a08088cc:	8fc2001c 	lw	v0,28(s8)
a08088d0:	ac430000 	sw	v1,0(v0)
a08088d4:	afc0002c 	sw	zero,44(s8)
a08088d8:	08202246 	j	a0808918 <do_fopen+0x28c>
a08088dc:	00000000 	nop
a08088e0:	8fc5002c 	lw	a1,44(s8)
a08088e4:	8fc4002c 	lw	a0,44(s8)
a08088e8:	3c02a081 	lui	v0,0xa081
a08088ec:	2443f948 	addiu	v1,v0,-1720
a08088f0:	00041080 	sll	v0,a0,0x2
a08088f4:	00621021 	addu	v0,v1,v0
a08088f8:	8c440004 	lw	a0,4(v0)
a08088fc:	8fc3001c 	lw	v1,28(s8)
a0808900:	00051080 	sll	v0,a1,0x2
a0808904:	00621021 	addu	v0,v1,v0
a0808908:	ac440004 	sw	a0,4(v0)
a080890c:	8fc2002c 	lw	v0,44(s8)
a0808910:	24420001 	addiu	v0,v0,1
a0808914:	afc2002c 	sw	v0,44(s8)
a0808918:	8fc2002c 	lw	v0,44(s8)
a080891c:	28420008 	slti	v0,v0,8
a0808920:	1440ffef 	bnez	v0,a08088e0 <do_fopen+0x254>
a0808924:	00000000 	nop
a0808928:	3c02a081 	lui	v0,0xa081
a080892c:	2442f948 	addiu	v0,v0,-1720
a0808930:	8c43002c 	lw	v1,44(v0)
a0808934:	8fc2001c 	lw	v0,28(s8)
a0808938:	ac430024 	sw	v1,36(v0)
a080893c:	3c02a081 	lui	v0,0xa081
a0808940:	2442f948 	addiu	v0,v0,-1720
a0808944:	8c430030 	lw	v1,48(v0)
a0808948:	8fc2001c 	lw	v0,28(s8)
a080894c:	ac430028 	sw	v1,40(v0)
a0808950:	3c02a081 	lui	v0,0xa081
a0808954:	2442f948 	addiu	v0,v0,-1720
a0808958:	8c430034 	lw	v1,52(v0)
a080895c:	8fc2001c 	lw	v0,28(s8)
a0808960:	ac43002c 	sw	v1,44(v0)
a0808964:	8fc2001c 	lw	v0,28(s8)
a0808968:	ac400030 	sw	zero,48(v0)
a080896c:	8fc2001c 	lw	v0,28(s8)
a0808970:	ac400034 	sw	zero,52(v0)
a0808974:	8fc3001c 	lw	v1,28(s8)
a0808978:	97c20038 	lhu	v0,56(s8)
a080897c:	a462003c 	sh	v0,60(v1)
a0808980:	3c02a081 	lui	v0,0xa081
a0808984:	2442f948 	addiu	v0,v0,-1720
a0808988:	9042003e 	lbu	v0,62(v0)
a080898c:	00021e00 	sll	v1,v0,0x18
a0808990:	00031e03 	sra	v1,v1,0x18
a0808994:	8fc2004c 	lw	v0,76(s8)
a0808998:	00021600 	sll	v0,v0,0x18
a080899c:	00021603 	sra	v0,v0,0x18
a08089a0:	00621024 	and	v0,v1,v0
a08089a4:	00021600 	sll	v0,v0,0x18
a08089a8:	00021603 	sra	v0,v0,0x18
a08089ac:	304300ff 	andi	v1,v0,0xff
a08089b0:	8fc2001c 	lw	v0,28(s8)
a08089b4:	a043003e 	sb	v1,62(v0)
a08089b8:	8fc20020 	lw	v0,32(s8)
a08089bc:	03c0e821 	move	sp,s8
a08089c0:	8fbf0044 	lw	ra,68(sp)
a08089c4:	8fbe0040 	lw	s8,64(sp)
a08089c8:	27bd0048 	addiu	sp,sp,72
a08089cc:	03e00008 	jr	ra
a08089d0:	00000000 	nop

a08089d4 <do_fclose>:
a08089d4:	27bdfff0 	addiu	sp,sp,-16
a08089d8:	afbe000c 	sw	s8,12(sp)
a08089dc:	03a0f021 	move	s8,sp
a08089e0:	afc40010 	sw	a0,16(s8)
a08089e4:	8fc30010 	lw	v1,16(s8)
a08089e8:	3c020283 	lui	v0,0x283
a08089ec:	3442ff00 	ori	v0,v0,0xff00
a08089f0:	00621021 	addu	v0,v1,v0
a08089f4:	00021180 	sll	v0,v0,0x6
a08089f8:	afc20000 	sw	v0,0(s8)
a08089fc:	8fc20000 	lw	v0,0(s8)
a0808a00:	a040003f 	sb	zero,63(v0)
a0808a04:	03c0e821 	move	sp,s8
a0808a08:	8fbe000c 	lw	s8,12(sp)
a0808a0c:	27bd0010 	addiu	sp,sp,16
a0808a10:	03e00008 	jr	ra
a0808a14:	00000000 	nop

a0808a18 <do_fread>:
a0808a18:	27bdffc8 	addiu	sp,sp,-56
a0808a1c:	afbf0034 	sw	ra,52(sp)
a0808a20:	afbe0030 	sw	s8,48(sp)
a0808a24:	03a0f021 	move	s8,sp
a0808a28:	afc40038 	sw	a0,56(s8)
a0808a2c:	afc5003c 	sw	a1,60(s8)
a0808a30:	afc60040 	sw	a2,64(s8)
a0808a34:	8fc30038 	lw	v1,56(s8)
a0808a38:	3c020283 	lui	v0,0x283
a0808a3c:	3442ff00 	ori	v0,v0,0xff00
a0808a40:	00621021 	addu	v0,v1,v0
a0808a44:	00021180 	sll	v0,v0,0x6
a0808a48:	afc20028 	sw	v0,40(s8)
a0808a4c:	8fc20028 	lw	v0,40(s8)
a0808a50:	8c420030 	lw	v0,48(v0)
a0808a54:	afc20020 	sw	v0,32(s8)
a0808a58:	8fc20028 	lw	v0,40(s8)
a0808a5c:	8c430030 	lw	v1,48(v0)
a0808a60:	8fc20040 	lw	v0,64(s8)
a0808a64:	00621821 	addu	v1,v1,v0
a0808a68:	8fc20028 	lw	v0,40(s8)
a0808a6c:	ac430030 	sw	v1,48(v0)
a0808a70:	8fc20020 	lw	v0,32(s8)
a0808a74:	00021302 	srl	v0,v0,0xc
a0808a78:	afc2001c 	sw	v0,28(s8)
a0808a7c:	8fc20028 	lw	v0,40(s8)
a0808a80:	8c420030 	lw	v0,48(v0)
a0808a84:	00021302 	srl	v0,v0,0xc
a0808a88:	afc20018 	sw	v0,24(s8)
a0808a8c:	8fc2001c 	lw	v0,28(s8)
a0808a90:	afc20024 	sw	v0,36(s8)
a0808a94:	082022d2 	j	a0808b48 <do_fread+0x130>
a0808a98:	00000000 	nop
a0808a9c:	8fc20024 	lw	v0,36(s8)
a0808aa0:	00021300 	sll	v0,v0,0xc
a0808aa4:	00021023 	negu	v0,v0
a0808aa8:	00401821 	move	v1,v0
a0808aac:	8fc20020 	lw	v0,32(s8)
a0808ab0:	00621021 	addu	v0,v1,v0
a0808ab4:	afc20014 	sw	v0,20(s8)
a0808ab8:	8fc20024 	lw	v0,36(s8)
a0808abc:	8fc30028 	lw	v1,40(s8)
a0808ac0:	00021080 	sll	v0,v0,0x2
a0808ac4:	00621021 	addu	v0,v1,v0
a0808ac8:	8c420004 	lw	v0,4(v0)
a0808acc:	00402021 	move	a0,v0
a0808ad0:	0c201928 	jal	a08064a0 <read_block>
a0808ad4:	00000000 	nop
a0808ad8:	8fc20014 	lw	v0,20(s8)
a0808adc:	afc20010 	sw	v0,16(s8)
a0808ae0:	082022c7 	j	a0808b1c <do_fread+0x104>
a0808ae4:	00000000 	nop
a0808ae8:	8fc30010 	lw	v1,16(s8)
a0808aec:	3c02a0ff 	lui	v0,0xa0ff
a0808af0:	34424000 	ori	v0,v0,0x4000
a0808af4:	00621021 	addu	v0,v1,v0
a0808af8:	80430000 	lb	v1,0(v0)
a0808afc:	8fc2003c 	lw	v0,60(s8)
a0808b00:	a0430000 	sb	v1,0(v0)
a0808b04:	8fc2003c 	lw	v0,60(s8)
a0808b08:	24420001 	addiu	v0,v0,1
a0808b0c:	afc2003c 	sw	v0,60(s8)
a0808b10:	8fc20010 	lw	v0,16(s8)
a0808b14:	24420001 	addiu	v0,v0,1
a0808b18:	afc20010 	sw	v0,16(s8)
a0808b1c:	8fc20010 	lw	v0,16(s8)
a0808b20:	28421000 	slti	v0,v0,4096
a0808b24:	1440fff0 	bnez	v0,a0808ae8 <do_fread+0xd0>
a0808b28:	00000000 	nop
a0808b2c:	8fc20024 	lw	v0,36(s8)
a0808b30:	24420001 	addiu	v0,v0,1
a0808b34:	00021300 	sll	v0,v0,0xc
a0808b38:	afc20020 	sw	v0,32(s8)
a0808b3c:	8fc20024 	lw	v0,36(s8)
a0808b40:	24420001 	addiu	v0,v0,1
a0808b44:	afc20024 	sw	v0,36(s8)
a0808b48:	8fc20024 	lw	v0,36(s8)
a0808b4c:	8fc30018 	lw	v1,24(s8)
a0808b50:	0043102a 	slt	v0,v0,v1
a0808b54:	1440ffd1 	bnez	v0,a0808a9c <do_fread+0x84>
a0808b58:	00000000 	nop
a0808b5c:	8fc20018 	lw	v0,24(s8)
a0808b60:	8fc30028 	lw	v1,40(s8)
a0808b64:	00021080 	sll	v0,v0,0x2
a0808b68:	00621021 	addu	v0,v1,v0
a0808b6c:	8c420004 	lw	v0,4(v0)
a0808b70:	00402021 	move	a0,v0
a0808b74:	0c201928 	jal	a08064a0 <read_block>
a0808b78:	00000000 	nop
a0808b7c:	afc00024 	sw	zero,36(s8)
a0808b80:	082022f2 	j	a0808bc8 <do_fread+0x1b0>
a0808b84:	00000000 	nop
a0808b88:	8fc20020 	lw	v0,32(s8)
a0808b8c:	30430fff 	andi	v1,v0,0xfff
a0808b90:	8fc20024 	lw	v0,36(s8)
a0808b94:	00621821 	addu	v1,v1,v0
a0808b98:	3c02a0ff 	lui	v0,0xa0ff
a0808b9c:	34424000 	ori	v0,v0,0x4000
a0808ba0:	00621021 	addu	v0,v1,v0
a0808ba4:	80430000 	lb	v1,0(v0)
a0808ba8:	8fc2003c 	lw	v0,60(s8)
a0808bac:	a0430000 	sb	v1,0(v0)
a0808bb0:	8fc2003c 	lw	v0,60(s8)
a0808bb4:	24420001 	addiu	v0,v0,1
a0808bb8:	afc2003c 	sw	v0,60(s8)
a0808bbc:	8fc20024 	lw	v0,36(s8)
a0808bc0:	24420001 	addiu	v0,v0,1
a0808bc4:	afc20024 	sw	v0,36(s8)
a0808bc8:	8fc40024 	lw	a0,36(s8)
a0808bcc:	8fc20028 	lw	v0,40(s8)
a0808bd0:	8c430030 	lw	v1,48(v0)
a0808bd4:	8fc20020 	lw	v0,32(s8)
a0808bd8:	00621023 	subu	v0,v1,v0
a0808bdc:	0082102b 	sltu	v0,a0,v0
a0808be0:	1440ffe9 	bnez	v0,a0808b88 <do_fread+0x170>
a0808be4:	00000000 	nop
a0808be8:	8fc20040 	lw	v0,64(s8)
a0808bec:	03c0e821 	move	sp,s8
a0808bf0:	8fbf0034 	lw	ra,52(sp)
a0808bf4:	8fbe0030 	lw	s8,48(sp)
a0808bf8:	27bd0038 	addiu	sp,sp,56
a0808bfc:	03e00008 	jr	ra
a0808c00:	00000000 	nop

a0808c04 <do_fwrite>:
a0808c04:	27bdffc0 	addiu	sp,sp,-64
a0808c08:	afbf003c 	sw	ra,60(sp)
a0808c0c:	afbe0038 	sw	s8,56(sp)
a0808c10:	afb00034 	sw	s0,52(sp)
a0808c14:	03a0f021 	move	s8,sp
a0808c18:	afc40040 	sw	a0,64(s8)
a0808c1c:	afc50044 	sw	a1,68(s8)
a0808c20:	afc60048 	sw	a2,72(s8)
a0808c24:	8fc30040 	lw	v1,64(s8)
a0808c28:	3c020283 	lui	v0,0x283
a0808c2c:	3442ff00 	ori	v0,v0,0xff00
a0808c30:	00621021 	addu	v0,v1,v0
a0808c34:	00021180 	sll	v0,v0,0x6
a0808c38:	afc20028 	sw	v0,40(s8)
a0808c3c:	8fc20028 	lw	v0,40(s8)
a0808c40:	8c420034 	lw	v0,52(v0)
a0808c44:	afc20020 	sw	v0,32(s8)
a0808c48:	8fc20028 	lw	v0,40(s8)
a0808c4c:	8c430034 	lw	v1,52(v0)
a0808c50:	8fc20048 	lw	v0,72(s8)
a0808c54:	00621821 	addu	v1,v1,v0
a0808c58:	8fc20028 	lw	v0,40(s8)
a0808c5c:	ac430034 	sw	v1,52(v0)
a0808c60:	8fc20020 	lw	v0,32(s8)
a0808c64:	00021302 	srl	v0,v0,0xc
a0808c68:	afc2001c 	sw	v0,28(s8)
a0808c6c:	8fc20028 	lw	v0,40(s8)
a0808c70:	8c420034 	lw	v0,52(v0)
a0808c74:	00021302 	srl	v0,v0,0xc
a0808c78:	afc20018 	sw	v0,24(s8)
a0808c7c:	8fc2001c 	lw	v0,28(s8)
a0808c80:	afc20024 	sw	v0,36(s8)
a0808c84:	08202366 	j	a0808d98 <do_fwrite+0x194>
a0808c88:	00000000 	nop
a0808c8c:	8fc20024 	lw	v0,36(s8)
a0808c90:	00021300 	sll	v0,v0,0xc
a0808c94:	00021023 	negu	v0,v0
a0808c98:	00401821 	move	v1,v0
a0808c9c:	8fc20020 	lw	v0,32(s8)
a0808ca0:	00621021 	addu	v0,v1,v0
a0808ca4:	afc20014 	sw	v0,20(s8)
a0808ca8:	8fc20024 	lw	v0,36(s8)
a0808cac:	8fc30028 	lw	v1,40(s8)
a0808cb0:	00021080 	sll	v0,v0,0x2
a0808cb4:	00621021 	addu	v0,v1,v0
a0808cb8:	8c420004 	lw	v0,4(v0)
a0808cbc:	14400009 	bnez	v0,a0808ce4 <do_fwrite+0xe0>
a0808cc0:	00000000 	nop
a0808cc4:	8fd00024 	lw	s0,36(s8)
a0808cc8:	0c201aaf 	jal	a0806abc <alloc_block>
a0808ccc:	00000000 	nop
a0808cd0:	00402021 	move	a0,v0
a0808cd4:	8fc30028 	lw	v1,40(s8)
a0808cd8:	00101080 	sll	v0,s0,0x2
a0808cdc:	00621021 	addu	v0,v1,v0
a0808ce0:	ac440004 	sw	a0,4(v0)
a0808ce4:	8fc20024 	lw	v0,36(s8)
a0808ce8:	8fc30028 	lw	v1,40(s8)
a0808cec:	00021080 	sll	v0,v0,0x2
a0808cf0:	00621021 	addu	v0,v1,v0
a0808cf4:	8c420004 	lw	v0,4(v0)
a0808cf8:	00402021 	move	a0,v0
a0808cfc:	0c201928 	jal	a08064a0 <read_block>
a0808d00:	00000000 	nop
a0808d04:	8fc20014 	lw	v0,20(s8)
a0808d08:	afc20010 	sw	v0,16(s8)
a0808d0c:	08202353 	j	a0808d4c <do_fwrite+0x148>
a0808d10:	00000000 	nop
a0808d14:	8fc30010 	lw	v1,16(s8)
a0808d18:	3c02a0ff 	lui	v0,0xa0ff
a0808d1c:	34424000 	ori	v0,v0,0x4000
a0808d20:	00621021 	addu	v0,v1,v0
a0808d24:	00401821 	move	v1,v0
a0808d28:	8fc20044 	lw	v0,68(s8)
a0808d2c:	80420000 	lb	v0,0(v0)
a0808d30:	a0620000 	sb	v0,0(v1)
a0808d34:	8fc20044 	lw	v0,68(s8)
a0808d38:	24420001 	addiu	v0,v0,1
a0808d3c:	afc20044 	sw	v0,68(s8)
a0808d40:	8fc20010 	lw	v0,16(s8)
a0808d44:	24420001 	addiu	v0,v0,1
a0808d48:	afc20010 	sw	v0,16(s8)
a0808d4c:	8fc20010 	lw	v0,16(s8)
a0808d50:	28421000 	slti	v0,v0,4096
a0808d54:	1440ffef 	bnez	v0,a0808d14 <do_fwrite+0x110>
a0808d58:	00000000 	nop
a0808d5c:	8fc20024 	lw	v0,36(s8)
a0808d60:	8fc30028 	lw	v1,40(s8)
a0808d64:	00021080 	sll	v0,v0,0x2
a0808d68:	00621021 	addu	v0,v1,v0
a0808d6c:	8c420004 	lw	v0,4(v0)
a0808d70:	00402021 	move	a0,v0
a0808d74:	0c20193d 	jal	a08064f4 <write_block>
a0808d78:	00000000 	nop
a0808d7c:	8fc20024 	lw	v0,36(s8)
a0808d80:	24420001 	addiu	v0,v0,1
a0808d84:	00021300 	sll	v0,v0,0xc
a0808d88:	afc20020 	sw	v0,32(s8)
a0808d8c:	8fc20024 	lw	v0,36(s8)
a0808d90:	24420001 	addiu	v0,v0,1
a0808d94:	afc20024 	sw	v0,36(s8)
a0808d98:	8fc20024 	lw	v0,36(s8)
a0808d9c:	8fc30018 	lw	v1,24(s8)
a0808da0:	0043102a 	slt	v0,v0,v1
a0808da4:	1440ffb9 	bnez	v0,a0808c8c <do_fwrite+0x88>
a0808da8:	00000000 	nop
a0808dac:	8fc20018 	lw	v0,24(s8)
a0808db0:	8fc30028 	lw	v1,40(s8)
a0808db4:	00021080 	sll	v0,v0,0x2
a0808db8:	00621021 	addu	v0,v1,v0
a0808dbc:	8c420004 	lw	v0,4(v0)
a0808dc0:	00402021 	move	a0,v0
a0808dc4:	0c201928 	jal	a08064a0 <read_block>
a0808dc8:	00000000 	nop
a0808dcc:	afc00024 	sw	zero,36(s8)
a0808dd0:	08202387 	j	a0808e1c <do_fwrite+0x218>
a0808dd4:	00000000 	nop
a0808dd8:	8fc20020 	lw	v0,32(s8)
a0808ddc:	30430fff 	andi	v1,v0,0xfff
a0808de0:	8fc20024 	lw	v0,36(s8)
a0808de4:	00621821 	addu	v1,v1,v0
a0808de8:	3c02a0ff 	lui	v0,0xa0ff
a0808dec:	34424000 	ori	v0,v0,0x4000
a0808df0:	00621021 	addu	v0,v1,v0
a0808df4:	00401821 	move	v1,v0
a0808df8:	8fc20044 	lw	v0,68(s8)
a0808dfc:	80420000 	lb	v0,0(v0)
a0808e00:	a0620000 	sb	v0,0(v1)
a0808e04:	8fc20044 	lw	v0,68(s8)
a0808e08:	24420001 	addiu	v0,v0,1
a0808e0c:	afc20044 	sw	v0,68(s8)
a0808e10:	8fc20024 	lw	v0,36(s8)
a0808e14:	24420001 	addiu	v0,v0,1
a0808e18:	afc20024 	sw	v0,36(s8)
a0808e1c:	8fc40024 	lw	a0,36(s8)
a0808e20:	8fc20028 	lw	v0,40(s8)
a0808e24:	8c430034 	lw	v1,52(v0)
a0808e28:	8fc20020 	lw	v0,32(s8)
a0808e2c:	00621023 	subu	v0,v1,v0
a0808e30:	0082102b 	sltu	v0,a0,v0
a0808e34:	1440ffe8 	bnez	v0,a0808dd8 <do_fwrite+0x1d4>
a0808e38:	00000000 	nop
a0808e3c:	8fc20018 	lw	v0,24(s8)
a0808e40:	8fc30028 	lw	v1,40(s8)
a0808e44:	00021080 	sll	v0,v0,0x2
a0808e48:	00621021 	addu	v0,v1,v0
a0808e4c:	8c420004 	lw	v0,4(v0)
a0808e50:	00402021 	move	a0,v0
a0808e54:	0c20193d 	jal	a08064f4 <write_block>
a0808e58:	00000000 	nop
a0808e5c:	8fc20028 	lw	v0,40(s8)
a0808e60:	8c430034 	lw	v1,52(v0)
a0808e64:	8fc20028 	lw	v0,40(s8)
a0808e68:	8c420000 	lw	v0,0(v0)
a0808e6c:	0043102b 	sltu	v0,v0,v1
a0808e70:	1040000f 	beqz	v0,a0808eb0 <do_fwrite+0x2ac>
a0808e74:	00000000 	nop
a0808e78:	8fc20028 	lw	v0,40(s8)
a0808e7c:	9442003c 	lhu	v0,60(v0)
a0808e80:	00402021 	move	a0,v0
a0808e84:	0c201996 	jal	a0806658 <read_inode>
a0808e88:	00000000 	nop
a0808e8c:	8fc20028 	lw	v0,40(s8)
a0808e90:	8c430034 	lw	v1,52(v0)
a0808e94:	3c02a081 	lui	v0,0xa081
a0808e98:	ac43f948 	sw	v1,-1720(v0)
a0808e9c:	8fc20028 	lw	v0,40(s8)
a0808ea0:	9442003c 	lhu	v0,60(v0)
a0808ea4:	00402021 	move	a0,v0
a0808ea8:	0c2019be 	jal	a08066f8 <write_inode>
a0808eac:	00000000 	nop
a0808eb0:	8fc20048 	lw	v0,72(s8)
a0808eb4:	03c0e821 	move	sp,s8
a0808eb8:	8fbf003c 	lw	ra,60(sp)
a0808ebc:	8fbe0038 	lw	s8,56(sp)
a0808ec0:	8fb00034 	lw	s0,52(sp)
a0808ec4:	27bd0040 	addiu	sp,sp,64
a0808ec8:	03e00008 	jr	ra
a0808ecc:	00000000 	nop

a0808ed0 <do_loadelf>:
a0808ed0:	27bdff98 	addiu	sp,sp,-104
a0808ed4:	afbf0064 	sw	ra,100(sp)
a0808ed8:	afbe0060 	sw	s8,96(sp)
a0808edc:	03a0f021 	move	s8,sp
a0808ee0:	3c02a081 	lui	v0,0xa081
a0808ee4:	2442cd88 	addiu	v0,v0,-12920
a0808ee8:	9442027c 	lhu	v0,636(v0)
a0808eec:	a7c20058 	sh	v0,88(s8)
a0808ef0:	97c20058 	lhu	v0,88(s8)
a0808ef4:	00402021 	move	a0,v0
a0808ef8:	0c201996 	jal	a0806658 <read_inode>
a0808efc:	00000000 	nop
a0808f00:	3c02a081 	lui	v0,0xa081
a0808f04:	2442f948 	addiu	v0,v0,-1720
a0808f08:	8c420038 	lw	v0,56(v0)
a0808f0c:	afc20054 	sw	v0,84(s8)
a0808f10:	3c02a081 	lui	v0,0xa081
a0808f14:	2442f948 	addiu	v0,v0,-1720
a0808f18:	8c420004 	lw	v0,4(v0)
a0808f1c:	afc20050 	sw	v0,80(s8)
a0808f20:	8fc40050 	lw	a0,80(s8)
a0808f24:	0c201928 	jal	a08064a0 <read_block>
a0808f28:	00000000 	nop
a0808f2c:	24020002 	li	v0,2
a0808f30:	afc2004c 	sw	v0,76(s8)
a0808f34:	24020002 	li	v0,2
a0808f38:	afc20048 	sw	v0,72(s8)
a0808f3c:	afc00044 	sw	zero,68(s8)
a0808f40:	082023f6 	j	a0808fd8 <do_loadelf+0x108>
a0808f44:	00000000 	nop
a0808f48:	8fc3004c 	lw	v1,76(s8)
a0808f4c:	3c020507 	lui	v0,0x507
a0808f50:	3442fa00 	ori	v0,v0,0xfa00
a0808f54:	00621021 	addu	v0,v1,v0
a0808f58:	00021140 	sll	v0,v0,0x5
a0808f5c:	afc20010 	sw	v0,16(s8)
a0808f60:	8fc2004c 	lw	v0,76(s8)
a0808f64:	24420001 	addiu	v0,v0,1
a0808f68:	afc2004c 	sw	v0,76(s8)
a0808f6c:	8fc20010 	lw	v0,16(s8)
a0808f70:	80420000 	lb	v0,0(v0)
a0808f74:	10400018 	beqz	v0,a0808fd8 <do_loadelf+0x108>
a0808f78:	00000000 	nop
a0808f7c:	8fc20048 	lw	v0,72(s8)
a0808f80:	24420001 	addiu	v0,v0,1
a0808f84:	afc20048 	sw	v0,72(s8)
a0808f88:	8fc20010 	lw	v0,16(s8)
a0808f8c:	9042001e 	lbu	v0,30(v0)
a0808f90:	14400011 	bnez	v0,a0808fd8 <do_loadelf+0x108>
a0808f94:	00000000 	nop
a0808f98:	3c02a081 	lui	v0,0xa081
a0808f9c:	2442f588 	addiu	v0,v0,-2680
a0808fa0:	8fc30010 	lw	v1,16(s8)
a0808fa4:	00402021 	move	a0,v0
a0808fa8:	00602821 	move	a1,v1
a0808fac:	0c20168c 	jal	a0805a30 <strcmp>
a0808fb0:	00000000 	nop
a0808fb4:	14400008 	bnez	v0,a0808fd8 <do_loadelf+0x108>
a0808fb8:	00000000 	nop
a0808fbc:	8fc20010 	lw	v0,16(s8)
a0808fc0:	9442001c 	lhu	v0,28(v0)
a0808fc4:	a7c20058 	sh	v0,88(s8)
a0808fc8:	24020001 	li	v0,1
a0808fcc:	afc20044 	sw	v0,68(s8)
a0808fd0:	082023fb 	j	a0808fec <do_loadelf+0x11c>
a0808fd4:	00000000 	nop
a0808fd8:	8fc20048 	lw	v0,72(s8)
a0808fdc:	8fc30054 	lw	v1,84(s8)
a0808fe0:	0043102b 	sltu	v0,v0,v1
a0808fe4:	1440ffd8 	bnez	v0,a0808f48 <do_loadelf+0x78>
a0808fe8:	00000000 	nop
a0808fec:	8fc20044 	lw	v0,68(s8)
a0808ff0:	14400015 	bnez	v0,a0809048 <do_loadelf+0x178>
a0808ff4:	00000000 	nop
a0808ff8:	3c02a081 	lui	v0,0xa081
a0808ffc:	2442cd88 	addiu	v0,v0,-12920
a0809000:	8c42016c 	lw	v0,364(v0)
a0809004:	24430001 	addiu	v1,v0,1
a0809008:	3c02a081 	lui	v0,0xa081
a080900c:	2442cd88 	addiu	v0,v0,-12920
a0809010:	ac43016c 	sw	v1,364(v0)
a0809014:	3c02a081 	lui	v0,0xa081
a0809018:	2442cd88 	addiu	v0,v0,-12920
a080901c:	8c42016c 	lw	v0,364(v0)
a0809020:	24040001 	li	a0,1
a0809024:	00402821 	move	a1,v0
a0809028:	0c200340 	jal	a0800d00 <vt100_move_cursor>
a080902c:	00000000 	nop
a0809030:	3c02a081 	lui	v0,0xa081
a0809034:	2444b1f8 	addiu	a0,v0,-19976
a0809038:	0c2018e1 	jal	a0806384 <printk>
a080903c:	00000000 	nop
a0809040:	082024ce 	j	a0809338 <do_loadelf+0x468>
a0809044:	00000000 	nop
a0809048:	97c20058 	lhu	v0,88(s8)
a080904c:	00402021 	move	a0,v0
a0809050:	0c201996 	jal	a0806658 <read_inode>
a0809054:	00000000 	nop
a0809058:	3c02a081 	lui	v0,0xa081
a080905c:	2442f948 	addiu	v0,v0,-1720
a0809060:	8c420004 	lw	v0,4(v0)
a0809064:	00402021 	move	a0,v0
a0809068:	0c201928 	jal	a08064a0 <read_block>
a080906c:	00000000 	nop
a0809070:	3c02a0ff 	lui	v0,0xa0ff
a0809074:	34424000 	ori	v0,v0,0x4000
a0809078:	afc20040 	sw	v0,64(s8)
a080907c:	8fc20040 	lw	v0,64(s8)
a0809080:	8c43001c 	lw	v1,28(v0)
a0809084:	3c02a0ff 	lui	v0,0xa0ff
a0809088:	34424000 	ori	v0,v0,0x4000
a080908c:	00621021 	addu	v0,v1,v0
a0809090:	afc2003c 	sw	v0,60(s8)
a0809094:	8fc2003c 	lw	v0,60(s8)
a0809098:	8c420010 	lw	v0,16(v0)
a080909c:	afc20038 	sw	v0,56(s8)
a08090a0:	8fc2003c 	lw	v0,60(s8)
a08090a4:	8c420004 	lw	v0,4(v0)
a08090a8:	afc20034 	sw	v0,52(s8)
a08090ac:	8fc20040 	lw	v0,64(s8)
a08090b0:	8c420018 	lw	v0,24(v0)
a08090b4:	afc20030 	sw	v0,48(s8)
a08090b8:	8fc20030 	lw	v0,48(s8)
a08090bc:	000215c2 	srl	v0,v0,0x17
a08090c0:	afc2002c 	sw	v0,44(s8)
a08090c4:	8fc2002c 	lw	v0,44(s8)
a08090c8:	00021dc0 	sll	v1,v0,0x17
a08090cc:	8fc20030 	lw	v0,48(s8)
a08090d0:	00431023 	subu	v0,v0,v1
a08090d4:	00021342 	srl	v0,v0,0xd
a08090d8:	afc20028 	sw	v0,40(s8)
a08090dc:	8fc3002c 	lw	v1,44(s8)
a08090e0:	3c02507f 	lui	v0,0x507f
a08090e4:	3442e800 	ori	v0,v0,0xe800
a08090e8:	00621021 	addu	v0,v1,v0
a08090ec:	00021040 	sll	v0,v0,0x1
a08090f0:	94420000 	lhu	v0,0(v0)
a08090f4:	a7c20020 	sh	v0,32(s8)
a08090f8:	97c20020 	lhu	v0,32(s8)
a08090fc:	14400007 	bnez	v0,a080911c <do_loadelf+0x24c>
a0809100:	00000000 	nop
a0809104:	8fc2002c 	lw	v0,44(s8)
a0809108:	304200ff 	andi	v0,v0,0xff
a080910c:	00402021 	move	a0,v0
a0809110:	0c200b43 	jal	a0802d0c <alloc_top_pte>
a0809114:	00000000 	nop
a0809118:	a7c20020 	sh	v0,32(s8)
a080911c:	97c30020 	lhu	v1,32(s8)
a0809120:	3c020005 	lui	v0,0x5
a0809124:	00621021 	addu	v0,v1,v0
a0809128:	00021a80 	sll	v1,v0,0xa
a080912c:	8fc20028 	lw	v0,40(s8)
a0809130:	00621021 	addu	v0,v1,v0
a0809134:	000210c0 	sll	v0,v0,0x3
a0809138:	afc20024 	sw	v0,36(s8)
a080913c:	8fc2002c 	lw	v0,44(s8)
a0809140:	00021dc0 	sll	v1,v0,0x17
a0809144:	8fc20028 	lw	v0,40(s8)
a0809148:	00021340 	sll	v0,v0,0xd
a080914c:	00621825 	or	v1,v1,v0
a0809150:	3c02a081 	lui	v0,0xa081
a0809154:	8c42c780 	lw	v0,-14464(v0)
a0809158:	24420001 	addiu	v0,v0,1
a080915c:	304200ff 	andi	v0,v0,0xff
a0809160:	00621825 	or	v1,v1,v0
a0809164:	8fc20024 	lw	v0,36(s8)
a0809168:	ac430000 	sw	v1,0(v0)
a080916c:	0c200ad4 	jal	a0802b50 <alloc_page>
a0809170:	00000000 	nop
a0809174:	afc2001c 	sw	v0,28(s8)
a0809178:	8fc2001c 	lw	v0,28(s8)
a080917c:	000211c0 	sll	v0,v0,0x7
a0809180:	34430016 	ori	v1,v0,0x16
a0809184:	8fc20024 	lw	v0,36(s8)
a0809188:	ac430004 	sw	v1,4(v0)
a080918c:	8fc20024 	lw	v0,36(s8)
a0809190:	8c420000 	lw	v0,0(v0)
a0809194:	00402021 	move	a0,v0
a0809198:	0c2002f8 	jal	a0800be0 <set_entryhi>
a080919c:	00000000 	nop
a08091a0:	8fc20024 	lw	v0,36(s8)
a08091a4:	8c420004 	lw	v0,4(v0)
a08091a8:	00402021 	move	a0,v0
a08091ac:	0c2002fb 	jal	a0800bec <set_entrylo>
a08091b0:	00000000 	nop
a08091b4:	8fc20024 	lw	v0,36(s8)
a08091b8:	8c420000 	lw	v0,0(v0)
a08091bc:	00402021 	move	a0,v0
a08091c0:	0c200306 	jal	a0800c18 <get_index>
a08091c4:	00000000 	nop
a08091c8:	afc20018 	sw	v0,24(s8)
a08091cc:	8fc20018 	lw	v0,24(s8)
a08091d0:	0441000d 	bgez	v0,a0809208 <do_loadelf+0x338>
a08091d4:	00000000 	nop
a08091d8:	3c02a081 	lui	v0,0xa081
a08091dc:	9042c770 	lbu	v0,-14480(v0)
a08091e0:	3042001f 	andi	v0,v0,0x1f
a08091e4:	00402021 	move	a0,v0
a08091e8:	0c20030b 	jal	a0800c2c <set_index>
a08091ec:	00000000 	nop
a08091f0:	3c02a081 	lui	v0,0xa081
a08091f4:	9042c770 	lbu	v0,-14480(v0)
a08091f8:	24420001 	addiu	v0,v0,1
a08091fc:	304300ff 	andi	v1,v0,0xff
a0809200:	3c02a081 	lui	v0,0xa081
a0809204:	a043c770 	sb	v1,-14480(v0)
a0809208:	0c20030e 	jal	a0800c38 <tlb_fill>
a080920c:	00000000 	nop
a0809210:	8fc2001c 	lw	v0,28(s8)
a0809214:	00021b40 	sll	v1,v0,0xd
a0809218:	3c02a000 	lui	v0,0xa000
a080921c:	00621025 	or	v0,v1,v0
a0809220:	00402021 	move	a0,v0
a0809224:	8fc30034 	lw	v1,52(s8)
a0809228:	3c02a0ff 	lui	v0,0xa0ff
a080922c:	34424000 	ori	v0,v0,0x4000
a0809230:	00621021 	addu	v0,v1,v0
a0809234:	00402821 	move	a1,v0
a0809238:	8fc60038 	lw	a2,56(s8)
a080923c:	0c201642 	jal	a0805908 <memcpy>
a0809240:	00000000 	nop
a0809244:	0c200e1c 	jal	a0803870 <init_one_pcb>
a0809248:	00000000 	nop
a080924c:	afc20014 	sw	v0,20(s8)
a0809250:	8fc30014 	lw	v1,20(s8)
a0809254:	3c02a081 	lui	v0,0xa081
a0809258:	2444cd88 	addiu	a0,v0,-12920
a080925c:	00601021 	move	v0,v1
a0809260:	000219c0 	sll	v1,v0,0x7
a0809264:	00031080 	sll	v0,v1,0x2
a0809268:	00621021 	addu	v0,v1,v0
a080926c:	00821021 	addu	v0,a0,v0
a0809270:	8fc30030 	lw	v1,48(s8)
a0809274:	ac430130 	sw	v1,304(v0)
a0809278:	8fc30014 	lw	v1,20(s8)
a080927c:	3c02a081 	lui	v0,0xa081
a0809280:	2444cd88 	addiu	a0,v0,-12920
a0809284:	00601021 	move	v0,v1
a0809288:	000219c0 	sll	v1,v0,0x7
a080928c:	00031080 	sll	v0,v1,0x2
a0809290:	00621021 	addu	v0,v1,v0
a0809294:	00821021 	addu	v0,a0,v0
a0809298:	24030002 	li	v1,2
a080929c:	ac43014c 	sw	v1,332(v0)
a08092a0:	8fc30014 	lw	v1,20(s8)
a08092a4:	3c02a081 	lui	v0,0xa081
a08092a8:	2444cd88 	addiu	a0,v0,-12920
a08092ac:	00601021 	move	v0,v1
a08092b0:	000219c0 	sll	v1,v0,0x7
a08092b4:	00031080 	sll	v0,v1,0x2
a08092b8:	00621021 	addu	v0,v1,v0
a08092bc:	00821021 	addu	v0,a0,v0
a08092c0:	24030001 	li	v1,1
a08092c4:	ac430154 	sw	v1,340(v0)
a08092c8:	8fc50014 	lw	a1,20(s8)
a08092cc:	3c02a081 	lui	v0,0xa081
a08092d0:	8c42c780 	lw	v0,-14464(v0)
a08092d4:	24430001 	addiu	v1,v0,1
a08092d8:	3c02a081 	lui	v0,0xa081
a08092dc:	ac43c780 	sw	v1,-14464(v0)
a08092e0:	3c02a081 	lui	v0,0xa081
a08092e4:	8c46c780 	lw	a2,-14464(v0)
a08092e8:	3c04a081 	lui	a0,0xa081
a08092ec:	00a01021 	move	v0,a1
a08092f0:	000211c0 	sll	v0,v0,0x7
a08092f4:	00021880 	sll	v1,v0,0x2
a08092f8:	00431021 	addu	v0,v0,v1
a08092fc:	2483cd88 	addiu	v1,a0,-12920
a0809300:	00431021 	addu	v0,v0,v1
a0809304:	ac460148 	sw	a2,328(v0)
a0809308:	8fc20014 	lw	v0,20(s8)
a080930c:	000219c0 	sll	v1,v0,0x7
a0809310:	00031080 	sll	v0,v1,0x2
a0809314:	00621821 	addu	v1,v1,v0
a0809318:	3c02a081 	lui	v0,0xa081
a080931c:	2442cd88 	addiu	v0,v0,-12920
a0809320:	00621821 	addu	v1,v1,v0
a0809324:	3c02a081 	lui	v0,0xa081
a0809328:	2444cd50 	addiu	a0,v0,-12976
a080932c:	00602821 	move	a1,v1
a0809330:	0c2011eb 	jal	a08047ac <queue_push>
a0809334:	00000000 	nop
a0809338:	03c0e821 	move	sp,s8
a080933c:	8fbf0064 	lw	ra,100(sp)
a0809340:	8fbe0060 	lw	s8,96(sp)
a0809344:	27bd0068 	addiu	sp,sp,104
a0809348:	03e00008 	jr	ra
a080934c:	00000000 	nop

a0809350 <mac_recv_desc_init>:
a0809350:	27bdfff0 	addiu	sp,sp,-16
a0809354:	afbe000c 	sw	s8,12(sp)
a0809358:	03a0f021 	move	s8,sp
a080935c:	afc40010 	sw	a0,16(s8)
a0809360:	afc00000 	sw	zero,0(s8)
a0809364:	0820250f 	j	a080943c <mac_recv_desc_init+0xec>
a0809368:	00000000 	nop
a080936c:	8fc20000 	lw	v0,0(s8)
a0809370:	3c03a081 	lui	v1,0xa081
a0809374:	00022100 	sll	a0,v0,0x4
a0809378:	2462c7c0 	addiu	v0,v1,-14400
a080937c:	00821821 	addu	v1,a0,v0
a0809380:	3c028000 	lui	v0,0x8000
a0809384:	ac620000 	sw	v0,0(v1)
a0809388:	8fc40000 	lw	a0,0(s8)
a080938c:	3c02a081 	lui	v0,0xa081
a0809390:	2443c7c0 	addiu	v1,v0,-14400
a0809394:	00041100 	sll	v0,a0,0x4
a0809398:	00621021 	addu	v0,v1,v0
a080939c:	3c038100 	lui	v1,0x8100
a08093a0:	34630400 	ori	v1,v1,0x400
a08093a4:	ac430004 	sw	v1,4(v0)
a08093a8:	8fc50000 	lw	a1,0(s8)
a08093ac:	8fc30000 	lw	v1,0(s8)
a08093b0:	3c020028 	lui	v0,0x28
a08093b4:	34423f40 	ori	v0,v0,0x3f40
a08093b8:	00621021 	addu	v0,v1,v0
a08093bc:	00021a80 	sll	v1,v0,0xa
a08093c0:	3c021fff 	lui	v0,0x1fff
a08093c4:	3442ffff 	ori	v0,v0,0xffff
a08093c8:	00623024 	and	a2,v1,v0
a08093cc:	3c04a081 	lui	a0,0xa081
a08093d0:	00051040 	sll	v0,a1,0x1
a08093d4:	24420001 	addiu	v0,v0,1
a08093d8:	000218c0 	sll	v1,v0,0x3
a08093dc:	2482c7c0 	addiu	v0,a0,-14400
a08093e0:	00621021 	addu	v0,v1,v0
a08093e4:	ac460000 	sw	a2,0(v0)
a08093e8:	8fc50000 	lw	a1,0(s8)
a08093ec:	8fc20000 	lw	v0,0(s8)
a08093f0:	24420001 	addiu	v0,v0,1
a08093f4:	00021900 	sll	v1,v0,0x4
a08093f8:	3c02a081 	lui	v0,0xa081
a08093fc:	2442c7c0 	addiu	v0,v0,-14400
a0809400:	00621021 	addu	v0,v1,v0
a0809404:	00401821 	move	v1,v0
a0809408:	3c021fff 	lui	v0,0x1fff
a080940c:	3442ffff 	ori	v0,v0,0xffff
a0809410:	00622024 	and	a0,v1,v0
a0809414:	3c03a081 	lui	v1,0xa081
a0809418:	00051040 	sll	v0,a1,0x1
a080941c:	24420001 	addiu	v0,v0,1
a0809420:	2463c7c0 	addiu	v1,v1,-14400
a0809424:	000210c0 	sll	v0,v0,0x3
a0809428:	00621021 	addu	v0,v1,v0
a080942c:	ac440004 	sw	a0,4(v0)
a0809430:	8fc20000 	lw	v0,0(s8)
a0809434:	24420001 	addiu	v0,v0,1
a0809438:	afc20000 	sw	v0,0(s8)
a080943c:	8fc20000 	lw	v0,0(s8)
a0809440:	2842003f 	slti	v0,v0,63
a0809444:	1440ffc9 	bnez	v0,a080936c <mac_recv_desc_init+0x1c>
a0809448:	00000000 	nop
a080944c:	3c02a081 	lui	v0,0xa081
a0809450:	2443c7c0 	addiu	v1,v0,-14400
a0809454:	3c028000 	lui	v0,0x8000
a0809458:	ac6203f0 	sw	v0,1008(v1)
a080945c:	3c02a081 	lui	v0,0xa081
a0809460:	2443c7c0 	addiu	v1,v0,-14400
a0809464:	3c028300 	lui	v0,0x8300
a0809468:	34420400 	ori	v0,v0,0x400
a080946c:	ac6203f4 	sw	v0,1012(v1)
a0809470:	3c02a081 	lui	v0,0xa081
a0809474:	2443c7c0 	addiu	v1,v0,-14400
a0809478:	3c0200fd 	lui	v0,0xfd
a080947c:	3442fc00 	ori	v0,v0,0xfc00
a0809480:	ac6203f8 	sw	v0,1016(v1)
a0809484:	3c02a081 	lui	v0,0xa081
a0809488:	2443c7c0 	addiu	v1,v0,-14400
a080948c:	3c021fff 	lui	v0,0x1fff
a0809490:	3442ffff 	ori	v0,v0,0xffff
a0809494:	00621824 	and	v1,v1,v0
a0809498:	3c02a081 	lui	v0,0xa081
a080949c:	2442c7c0 	addiu	v0,v0,-14400
a08094a0:	ac4303fc 	sw	v1,1020(v0)
a08094a4:	8fc30010 	lw	v1,16(s8)
a08094a8:	3c02a0fd 	lui	v0,0xa0fd
a08094ac:	ac620014 	sw	v0,20(v1)
a08094b0:	8fc30010 	lw	v1,16(s8)
a08094b4:	3c0200fd 	lui	v0,0xfd
a08094b8:	ac62001c 	sw	v0,28(v1)
a08094bc:	3c02a081 	lui	v0,0xa081
a08094c0:	2443c7c0 	addiu	v1,v0,-14400
a08094c4:	8fc20010 	lw	v0,16(s8)
a08094c8:	ac430024 	sw	v1,36(v0)
a08094cc:	3c02a081 	lui	v0,0xa081
a08094d0:	2443c7c0 	addiu	v1,v0,-14400
a08094d4:	3c021fff 	lui	v0,0x1fff
a08094d8:	3442ffff 	ori	v0,v0,0xffff
a08094dc:	00621824 	and	v1,v1,v0
a08094e0:	8fc20010 	lw	v0,16(s8)
a08094e4:	ac43002c 	sw	v1,44(v0)
a08094e8:	03c0e821 	move	sp,s8
a08094ec:	8fbe000c 	lw	s8,12(sp)
a08094f0:	27bd0010 	addiu	sp,sp,16
a08094f4:	03e00008 	jr	ra
a08094f8:	00000000 	nop

a08094fc <mii_dul_force>:
a08094fc:	27bdffd8 	addiu	sp,sp,-40
a0809500:	afbf0024 	sw	ra,36(sp)
a0809504:	afbe0020 	sw	s8,32(sp)
a0809508:	afb0001c 	sw	s0,28(sp)
a080950c:	03a0f021 	move	s8,sp
a0809510:	afc40028 	sw	a0,40(s8)
a0809514:	8fc20028 	lw	v0,40(s8)
a0809518:	8c42000c 	lw	v0,12(v0)
a080951c:	00402021 	move	a0,v0
a0809520:	24050080 	li	a1,128
a0809524:	0c200555 	jal	a0801554 <reg_write_32>
a0809528:	00000000 	nop
a080952c:	3402c800 	li	v0,0xc800
a0809530:	afc20010 	sw	v0,16(s8)
a0809534:	8fc20028 	lw	v0,40(s8)
a0809538:	8c500008 	lw	s0,8(v0)
a080953c:	8fc20028 	lw	v0,40(s8)
a0809540:	8c420008 	lw	v0,8(v0)
a0809544:	00402021 	move	a0,v0
a0809548:	0c200538 	jal	a08014e0 <reg_read_32>
a080954c:	00000000 	nop
a0809550:	00401821 	move	v1,v0
a0809554:	8fc20010 	lw	v0,16(s8)
a0809558:	00621025 	or	v0,v1,v0
a080955c:	34420100 	ori	v0,v0,0x100
a0809560:	02002021 	move	a0,s0
a0809564:	00402821 	move	a1,v0
a0809568:	0c200555 	jal	a0801554 <reg_write_32>
a080956c:	00000000 	nop
a0809570:	8fc20028 	lw	v0,40(s8)
a0809574:	8c420008 	lw	v0,8(v0)
a0809578:	24500004 	addiu	s0,v0,4
a080957c:	8fc20028 	lw	v0,40(s8)
a0809580:	8c420008 	lw	v0,8(v0)
a0809584:	24420004 	addiu	v0,v0,4
a0809588:	00402021 	move	a0,v0
a080958c:	0c200538 	jal	a08014e0 <reg_read_32>
a0809590:	00000000 	nop
a0809594:	00401821 	move	v1,v0
a0809598:	3c028000 	lui	v0,0x8000
a080959c:	34420001 	ori	v0,v0,0x1
a08095a0:	00621025 	or	v0,v1,v0
a08095a4:	02002021 	move	a0,s0
a08095a8:	00402821 	move	a1,v0
a08095ac:	0c200555 	jal	a0801554 <reg_write_32>
a08095b0:	00000000 	nop
a08095b4:	03c0e821 	move	sp,s8
a08095b8:	8fbf0024 	lw	ra,36(sp)
a08095bc:	8fbe0020 	lw	s8,32(sp)
a08095c0:	8fb0001c 	lw	s0,28(sp)
a08095c4:	27bd0028 	addiu	sp,sp,40
a08095c8:	03e00008 	jr	ra
a08095cc:	00000000 	nop

a08095d0 <dma_control_init>:
a08095d0:	27bdffe8 	addiu	sp,sp,-24
a08095d4:	afbf0014 	sw	ra,20(sp)
a08095d8:	afbe0010 	sw	s8,16(sp)
a08095dc:	03a0f021 	move	s8,sp
a08095e0:	afc40018 	sw	a0,24(s8)
a08095e4:	afc5001c 	sw	a1,28(s8)
a08095e8:	8fc20018 	lw	v0,24(s8)
a08095ec:	8c42000c 	lw	v0,12(v0)
a08095f0:	24420018 	addiu	v0,v0,24
a08095f4:	00402021 	move	a0,v0
a08095f8:	8fc5001c 	lw	a1,28(s8)
a08095fc:	0c200555 	jal	a0801554 <reg_write_32>
a0809600:	00000000 	nop
a0809604:	03c0e821 	move	sp,s8
a0809608:	8fbf0014 	lw	ra,20(sp)
a080960c:	8fbe0010 	lw	s8,16(sp)
a0809610:	27bd0018 	addiu	sp,sp,24
a0809614:	03e00008 	jr	ra
a0809618:	00000000 	nop

a080961c <download_task>:
a080961c:	27bdffa0 	addiu	sp,sp,-96
a0809620:	afbf005c 	sw	ra,92(sp)
a0809624:	afbe0058 	sw	s8,88(sp)
a0809628:	03a0f021 	move	s8,sp
a080962c:	24020003 	li	v0,3
a0809630:	afc20014 	sw	v0,20(s8)
a0809634:	3c02bfe1 	lui	v0,0xbfe1
a0809638:	afc2002c 	sw	v0,44(s8)
a080963c:	3c02bfe1 	lui	v0,0xbfe1
a0809640:	34421000 	ori	v0,v0,0x1000
a0809644:	afc20030 	sw	v0,48(s8)
a0809648:	24020400 	li	v0,1024
a080964c:	afc20024 	sw	v0,36(s8)
a0809650:	24020040 	li	v0,64
a0809654:	afc20028 	sw	v0,40(s8)
a0809658:	27c20024 	addiu	v0,s8,36
a080965c:	00402021 	move	a0,v0
a0809660:	0c2024d4 	jal	a0809350 <mac_recv_desc_init>
a0809664:	00000000 	nop
a0809668:	27c20024 	addiu	v0,s8,36
a080966c:	00402021 	move	a0,v0
a0809670:	3c020020 	lui	v0,0x20
a0809674:	3445001c 	ori	a1,v0,0x1c
a0809678:	0c202574 	jal	a08095d0 <dma_control_init>
a080967c:	00000000 	nop
a0809680:	0c200601 	jal	a0801804 <clear_interrupt>
a0809684:	00000000 	nop
a0809688:	27c20024 	addiu	v0,s8,36
a080968c:	00402021 	move	a0,v0
a0809690:	0c20253f 	jal	a08094fc <mii_dul_force>
a0809694:	00000000 	nop
a0809698:	3c02a081 	lui	v0,0xa081
a080969c:	2444c7b0 	addiu	a0,v0,-14416
a08096a0:	0c2011c4 	jal	a0804710 <queue_init>
a08096a4:	00000000 	nop
a08096a8:	8fc20014 	lw	v0,20(s8)
a08096ac:	24040001 	li	a0,1
a08096b0:	00402821 	move	a1,v0
a08096b4:	0c2013b7 	jal	a0804edc <sys_move_cursor>
a08096b8:	00000000 	nop
a08096bc:	3c02a081 	lui	v0,0xa081
a08096c0:	2444b210 	addiu	a0,v0,-19952
a08096c4:	0c201903 	jal	a080640c <printf>
a08096c8:	00000000 	nop
a08096cc:	8fc20048 	lw	v0,72(s8)
a08096d0:	8fc30050 	lw	v1,80(s8)
a08096d4:	8fc60038 	lw	a2,56(s8)
a08096d8:	00402021 	move	a0,v0
a08096dc:	00602821 	move	a1,v1
a08096e0:	0c2015f7 	jal	a08057dc <sys_net_recv>
a08096e4:	00000000 	nop
a08096e8:	afc20020 	sw	v0,32(s8)
a08096ec:	3c02a081 	lui	v0,0xa081
a08096f0:	ac40b3d0 	sw	zero,-19504(v0)
a08096f4:	082025c6 	j	a0809718 <download_task+0xfc>
a08096f8:	00000000 	nop
a08096fc:	3c02bfe1 	lui	v0,0xbfe1
a0809700:	34441008 	ori	a0,v0,0x1008
a0809704:	24050001 	li	a1,1
a0809708:	0c200555 	jal	a0801554 <reg_write_32>
a080970c:	00000000 	nop
a0809710:	0c20161c 	jal	a0805870 <sys_wait_recv_package>
a0809714:	00000000 	nop
a0809718:	3c02a081 	lui	v0,0xa081
a080971c:	8c42b3d0 	lw	v0,-19504(v0)
a0809720:	28420012 	slti	v0,v0,18
a0809724:	1440fff5 	bnez	v0,a08096fc <download_task+0xe0>
a0809728:	00000000 	nop
a080972c:	3c02bfd0 	lui	v0,0xbfd0
a0809730:	3444105c 	ori	a0,v0,0x105c
a0809734:	00002821 	move	a1,zero
a0809738:	0c200555 	jal	a0801554 <reg_write_32>
a080973c:	00000000 	nop
a0809740:	3c03a081 	lui	v1,0xa081
a0809744:	2402ffff 	li	v0,-1
a0809748:	ac62b3d0 	sw	v0,-19504(v1)
a080974c:	3c02a081 	lui	v0,0xa081
a0809750:	2444b23c 	addiu	a0,v0,-19908
a0809754:	24050003 	li	a1,3
a0809758:	0c20159b 	jal	a080566c <sys_fopen>
a080975c:	00000000 	nop
a0809760:	afc20010 	sw	v0,16(s8)
a0809764:	afc0001c 	sw	zero,28(s8)
a0809768:	082025fe 	j	a08097f8 <download_task+0x1dc>
a080976c:	00000000 	nop
a0809770:	8fc3001c 	lw	v1,28(s8)
a0809774:	3c020028 	lui	v0,0x28
a0809778:	34423f40 	ori	v0,v0,0x3f40
a080977c:	00621021 	addu	v0,v1,v0
a0809780:	00021280 	sll	v0,v0,0xa
a0809784:	8c430000 	lw	v1,0(v0)
a0809788:	3c02335b 	lui	v0,0x335b
a080978c:	3442fa80 	ori	v0,v0,0xfa80
a0809790:	14620016 	bne	v1,v0,a08097ec <download_task+0x1d0>
a0809794:	00000000 	nop
a0809798:	8fc3001c 	lw	v1,28(s8)
a080979c:	3c020028 	lui	v0,0x28
a08097a0:	34423f40 	ori	v0,v0,0x3f40
a08097a4:	00621021 	addu	v0,v1,v0
a08097a8:	00021280 	sll	v0,v0,0xa
a08097ac:	24420034 	addiu	v0,v0,52
a08097b0:	8c430000 	lw	v1,0(v0)
a08097b4:	3c02ff00 	lui	v0,0xff00
a08097b8:	1462000c 	bne	v1,v0,a08097ec <download_task+0x1d0>
a08097bc:	00000000 	nop
a08097c0:	8fc3001c 	lw	v1,28(s8)
a08097c4:	3c020028 	lui	v0,0x28
a08097c8:	34423f40 	ori	v0,v0,0x3f40
a08097cc:	00621021 	addu	v0,v1,v0
a08097d0:	00021280 	sll	v0,v0,0xa
a08097d4:	24420038 	addiu	v0,v0,56
a08097d8:	8fc40010 	lw	a0,16(s8)
a08097dc:	00402821 	move	a1,v0
a08097e0:	24060200 	li	a2,512
a08097e4:	0c2015d3 	jal	a080574c <sys_fwrite>
a08097e8:	00000000 	nop
a08097ec:	8fc2001c 	lw	v0,28(s8)
a08097f0:	24420001 	addiu	v0,v0,1
a08097f4:	afc2001c 	sw	v0,28(s8)
a08097f8:	8fc2001c 	lw	v0,28(s8)
a08097fc:	2c420040 	sltiu	v0,v0,64
a0809800:	1440ffdb 	bnez	v0,a0809770 <download_task+0x154>
a0809804:	00000000 	nop
a0809808:	8fc40010 	lw	a0,16(s8)
a080980c:	0c2015ae 	jal	a08056b8 <sys_fclose>
a0809810:	00000000 	nop
a0809814:	0c2014c7 	jal	a080531c <sys_exit>
a0809818:	00000000 	nop
a080981c:	03c0e821 	move	sp,s8
a0809820:	8fbf005c 	lw	ra,92(sp)
a0809824:	8fbe0058 	lw	s8,88(sp)
a0809828:	27bd0060 	addiu	sp,sp,96
a080982c:	03e00008 	jr	ra
a0809830:	00000000 	nop

a0809834 <mac_init_task>:
a0809834:	27bdffe0 	addiu	sp,sp,-32
a0809838:	afbf001c 	sw	ra,28(sp)
a080983c:	afbe0018 	sw	s8,24(sp)
a0809840:	03a0f021 	move	s8,sp
a0809844:	24020001 	li	v0,1
a0809848:	afc20010 	sw	v0,16(s8)
a080984c:	8fc20010 	lw	v0,16(s8)
a0809850:	24040001 	li	a0,1
a0809854:	00402821 	move	a1,v0
a0809858:	0c2013b7 	jal	a0804edc <sys_move_cursor>
a080985c:	00000000 	nop
a0809860:	3c02a081 	lui	v0,0xa081
a0809864:	2444b244 	addiu	a0,v0,-19900
a0809868:	0c201903 	jal	a080640c <printf>
a080986c:	00000000 	nop
a0809870:	0c20160c 	jal	a0805830 <sys_init_mac>
a0809874:	00000000 	nop
a0809878:	8fc20010 	lw	v0,16(s8)
a080987c:	24040001 	li	a0,1
a0809880:	00402821 	move	a1,v0
a0809884:	0c2013b7 	jal	a0804edc <sys_move_cursor>
a0809888:	00000000 	nop
a080988c:	3c02a081 	lui	v0,0xa081
a0809890:	2444b278 	addiu	a0,v0,-19848
a0809894:	0c201903 	jal	a080640c <printf>
a0809898:	00000000 	nop
a080989c:	0c2014c7 	jal	a080531c <sys_exit>
a08098a0:	00000000 	nop
a08098a4:	03c0e821 	move	sp,s8
a08098a8:	8fbf001c 	lw	ra,28(sp)
a08098ac:	8fbe0018 	lw	s8,24(sp)
a08098b0:	27bd0020 	addiu	sp,sp,32
a08098b4:	03e00008 	jr	ra
a08098b8:	00000000 	nop
a08098bc:	00000000 	nop

a08098c0 <disable_interrupt>:
a08098c0:	27bdffe0 	addiu	sp,sp,-32
a08098c4:	afbf001c 	sw	ra,28(sp)
a08098c8:	afbe0018 	sw	s8,24(sp)
a08098cc:	03a0f021 	move	s8,sp
a08098d0:	0c2002f2 	jal	a0800bc8 <get_cp0_status>
a08098d4:	00000000 	nop
a08098d8:	afc20010 	sw	v0,16(s8)
a08098dc:	8fc30010 	lw	v1,16(s8)
a08098e0:	2402fffe 	li	v0,-2
a08098e4:	00621024 	and	v0,v1,v0
a08098e8:	afc20010 	sw	v0,16(s8)
a08098ec:	8fc40010 	lw	a0,16(s8)
a08098f0:	0c2002f5 	jal	a0800bd4 <set_cp0_status>
a08098f4:	00000000 	nop
a08098f8:	03c0e821 	move	sp,s8
a08098fc:	8fbf001c 	lw	ra,28(sp)
a0809900:	8fbe0018 	lw	s8,24(sp)
a0809904:	27bd0020 	addiu	sp,sp,32
a0809908:	03e00008 	jr	ra
a080990c:	00000000 	nop

a0809910 <enable_interrupt>:
a0809910:	27bdffe0 	addiu	sp,sp,-32
a0809914:	afbf001c 	sw	ra,28(sp)
a0809918:	afbe0018 	sw	s8,24(sp)
a080991c:	03a0f021 	move	s8,sp
a0809920:	0c2002f2 	jal	a0800bc8 <get_cp0_status>
a0809924:	00000000 	nop
a0809928:	afc20010 	sw	v0,16(s8)
a080992c:	8fc20010 	lw	v0,16(s8)
a0809930:	34420001 	ori	v0,v0,0x1
a0809934:	afc20010 	sw	v0,16(s8)
a0809938:	8fc40010 	lw	a0,16(s8)
a080993c:	0c2002f5 	jal	a0800bd4 <set_cp0_status>
a0809940:	00000000 	nop
a0809944:	03c0e821 	move	sp,s8
a0809948:	8fbf001c 	lw	ra,28(sp)
a080994c:	8fbe0018 	lw	s8,24(sp)
a0809950:	27bd0020 	addiu	sp,sp,32
a0809954:	03e00008 	jr	ra
a0809958:	00000000 	nop

a080995c <read_uart_ch>:
a080995c:	27bdffe8 	addiu	sp,sp,-24
a0809960:	afbe0014 	sw	s8,20(sp)
a0809964:	03a0f021 	move	s8,sp
a0809968:	a3c00008 	sb	zero,8(s8)
a080996c:	3c02bfe4 	lui	v0,0xbfe4
a0809970:	34428000 	ori	v0,v0,0x8000
a0809974:	afc20004 	sw	v0,4(s8)
a0809978:	3c02bfe4 	lui	v0,0xbfe4
a080997c:	34428005 	ori	v0,v0,0x8005
a0809980:	afc20000 	sw	v0,0(s8)
a0809984:	08202666 	j	a0809998 <read_uart_ch+0x3c>
a0809988:	00000000 	nop
a080998c:	8fc20004 	lw	v0,4(s8)
a0809990:	90420000 	lbu	v0,0(v0)
a0809994:	a3c20008 	sb	v0,8(s8)
a0809998:	8fc20000 	lw	v0,0(s8)
a080999c:	90420000 	lbu	v0,0(v0)
a08099a0:	30420001 	andi	v0,v0,0x1
a08099a4:	304200ff 	andi	v0,v0,0xff
a08099a8:	1440fff8 	bnez	v0,a080998c <read_uart_ch+0x30>
a08099ac:	00000000 	nop
a08099b0:	83c20008 	lb	v0,8(s8)
a08099b4:	03c0e821 	move	sp,s8
a08099b8:	8fbe0014 	lw	s8,20(sp)
a08099bc:	27bd0018 	addiu	sp,sp,24
a08099c0:	03e00008 	jr	ra
a08099c4:	00000000 	nop

a08099c8 <print_localhost>:
a08099c8:	27bdffe0 	addiu	sp,sp,-32
a08099cc:	afbf001c 	sw	ra,28(sp)
a08099d0:	afbe0018 	sw	s8,24(sp)
a08099d4:	03a0f021 	move	s8,sp
a08099d8:	3c02a081 	lui	v0,0xa081
a08099dc:	2444b2e8 	addiu	a0,v0,-19736
a08099e0:	0c201903 	jal	a080640c <printf>
a08099e4:	00000000 	nop
a08099e8:	3c02a081 	lui	v0,0xa081
a08099ec:	8c42c7a0 	lw	v0,-14432(v0)
a08099f0:	14400005 	bnez	v0,a0809a08 <print_localhost+0x40>
a08099f4:	00000000 	nop
a08099f8:	3c02a081 	lui	v0,0xa081
a08099fc:	2444b2f8 	addiu	a0,v0,-19720
a0809a00:	0c201903 	jal	a080640c <printf>
a0809a04:	00000000 	nop
a0809a08:	afc00014 	sw	zero,20(s8)
a0809a0c:	082026ae 	j	a0809ab8 <print_localhost+0xf0>
a0809a10:	00000000 	nop
a0809a14:	afc00010 	sw	zero,16(s8)
a0809a18:	3c02a081 	lui	v0,0xa081
a0809a1c:	2444b2f8 	addiu	a0,v0,-19720
a0809a20:	0c201903 	jal	a080640c <printf>
a0809a24:	00000000 	nop
a0809a28:	0820269f 	j	a0809a7c <print_localhost+0xb4>
a0809a2c:	00000000 	nop
a0809a30:	8fc20014 	lw	v0,20(s8)
a0809a34:	8fc40010 	lw	a0,16(s8)
a0809a38:	3c05a081 	lui	a1,0xa081
a0809a3c:	00021880 	sll	v1,v0,0x2
a0809a40:	000310c0 	sll	v0,v1,0x3
a0809a44:	00431023 	subu	v0,v0,v1
a0809a48:	00441821 	addu	v1,v0,a0
a0809a4c:	24a2f788 	addiu	v0,a1,-2168
a0809a50:	00621021 	addu	v0,v1,v0
a0809a54:	80420000 	lb	v0,0(v0)
a0809a58:	00401821 	move	v1,v0
a0809a5c:	8fc20010 	lw	v0,16(s8)
a0809a60:	24420001 	addiu	v0,v0,1
a0809a64:	afc20010 	sw	v0,16(s8)
a0809a68:	3c02a081 	lui	v0,0xa081
a0809a6c:	2444b2fc 	addiu	a0,v0,-19716
a0809a70:	00602821 	move	a1,v1
a0809a74:	0c201903 	jal	a080640c <printf>
a0809a78:	00000000 	nop
a0809a7c:	8fc20014 	lw	v0,20(s8)
a0809a80:	8fc40010 	lw	a0,16(s8)
a0809a84:	3c05a081 	lui	a1,0xa081
a0809a88:	00021880 	sll	v1,v0,0x2
a0809a8c:	000310c0 	sll	v0,v1,0x3
a0809a90:	00431023 	subu	v0,v0,v1
a0809a94:	00441821 	addu	v1,v0,a0
a0809a98:	24a2f788 	addiu	v0,a1,-2168
a0809a9c:	00621021 	addu	v0,v1,v0
a0809aa0:	80420000 	lb	v0,0(v0)
a0809aa4:	1440ffe2 	bnez	v0,a0809a30 <print_localhost+0x68>
a0809aa8:	00000000 	nop
a0809aac:	8fc20014 	lw	v0,20(s8)
a0809ab0:	24420001 	addiu	v0,v0,1
a0809ab4:	afc20014 	sw	v0,20(s8)
a0809ab8:	3c02a081 	lui	v0,0xa081
a0809abc:	8c43c7a0 	lw	v1,-14432(v0)
a0809ac0:	8fc20014 	lw	v0,20(s8)
a0809ac4:	0043102a 	slt	v0,v0,v1
a0809ac8:	1440ffd2 	bnez	v0,a0809a14 <print_localhost+0x4c>
a0809acc:	00000000 	nop
a0809ad0:	3c02a081 	lui	v0,0xa081
a0809ad4:	2444b300 	addiu	a0,v0,-19712
a0809ad8:	0c201903 	jal	a080640c <printf>
a0809adc:	00000000 	nop
a0809ae0:	03c0e821 	move	sp,s8
a0809ae4:	8fbf001c 	lw	ra,28(sp)
a0809ae8:	8fbe0018 	lw	s8,24(sp)
a0809aec:	27bd0020 	addiu	sp,sp,32
a0809af0:	03e00008 	jr	ra
a0809af4:	00000000 	nop

a0809af8 <path_analyse>:
a0809af8:	27bdffe8 	addiu	sp,sp,-24
a0809afc:	afbe0014 	sw	s8,20(sp)
a0809b00:	03a0f021 	move	s8,sp
a0809b04:	afc40018 	sw	a0,24(s8)
a0809b08:	8fc20018 	lw	v0,24(s8)
a0809b0c:	afc20008 	sw	v0,8(s8)
a0809b10:	afc00004 	sw	zero,4(s8)
a0809b14:	afc00000 	sw	zero,0(s8)
a0809b18:	3c02a081 	lui	v0,0xa081
a0809b1c:	ac40c7a4 	sw	zero,-14428(v0)
a0809b20:	8fc30008 	lw	v1,8(s8)
a0809b24:	3c02a081 	lui	v0,0xa081
a0809b28:	2442f988 	addiu	v0,v0,-1656
a0809b2c:	00621021 	addu	v0,v1,v0
a0809b30:	80430000 	lb	v1,0(v0)
a0809b34:	2402002f 	li	v0,47
a0809b38:	1462003c 	bne	v1,v0,a0809c2c <path_analyse+0x134>
a0809b3c:	00000000 	nop
a0809b40:	24020001 	li	v0,1
a0809b44:	afc20000 	sw	v0,0(s8)
a0809b48:	8fc20008 	lw	v0,8(s8)
a0809b4c:	24420001 	addiu	v0,v0,1
a0809b50:	afc20008 	sw	v0,8(s8)
a0809b54:	0820270b 	j	a0809c2c <path_analyse+0x134>
a0809b58:	00000000 	nop
a0809b5c:	8fc30008 	lw	v1,8(s8)
a0809b60:	3c02a081 	lui	v0,0xa081
a0809b64:	2442f988 	addiu	v0,v0,-1656
a0809b68:	00621021 	addu	v0,v1,v0
a0809b6c:	80430000 	lb	v1,0(v0)
a0809b70:	2402002f 	li	v0,47
a0809b74:	14620016 	bne	v1,v0,a0809bd0 <path_analyse+0xd8>
a0809b78:	00000000 	nop
a0809b7c:	3c02a081 	lui	v0,0xa081
a0809b80:	8c44c7a4 	lw	a0,-14428(v0)
a0809b84:	8fc50004 	lw	a1,4(s8)
a0809b88:	3c06a081 	lui	a2,0xa081
a0809b8c:	00801021 	move	v0,a0
a0809b90:	00021880 	sll	v1,v0,0x2
a0809b94:	000310c0 	sll	v0,v1,0x3
a0809b98:	00431023 	subu	v0,v0,v1
a0809b9c:	00451821 	addu	v1,v0,a1
a0809ba0:	24c2f588 	addiu	v0,a2,-2680
a0809ba4:	00621021 	addu	v0,v1,v0
a0809ba8:	a0400000 	sb	zero,0(v0)
a0809bac:	24830001 	addiu	v1,a0,1
a0809bb0:	3c02a081 	lui	v0,0xa081
a0809bb4:	ac43c7a4 	sw	v1,-14428(v0)
a0809bb8:	afc00004 	sw	zero,4(s8)
a0809bbc:	8fc20008 	lw	v0,8(s8)
a0809bc0:	24420001 	addiu	v0,v0,1
a0809bc4:	afc20008 	sw	v0,8(s8)
a0809bc8:	0820270b 	j	a0809c2c <path_analyse+0x134>
a0809bcc:	00000000 	nop
a0809bd0:	3c02a081 	lui	v0,0xa081
a0809bd4:	8c44c7a4 	lw	a0,-14428(v0)
a0809bd8:	8fc70004 	lw	a3,4(s8)
a0809bdc:	8fc30008 	lw	v1,8(s8)
a0809be0:	3c02a081 	lui	v0,0xa081
a0809be4:	2442f988 	addiu	v0,v0,-1656
a0809be8:	00621021 	addu	v0,v1,v0
a0809bec:	80450000 	lb	a1,0(v0)
a0809bf0:	3c06a081 	lui	a2,0xa081
a0809bf4:	00801021 	move	v0,a0
a0809bf8:	00021880 	sll	v1,v0,0x2
a0809bfc:	000310c0 	sll	v0,v1,0x3
a0809c00:	00431023 	subu	v0,v0,v1
a0809c04:	00471821 	addu	v1,v0,a3
a0809c08:	24c2f588 	addiu	v0,a2,-2680
a0809c0c:	00621021 	addu	v0,v1,v0
a0809c10:	a0450000 	sb	a1,0(v0)
a0809c14:	8fc20004 	lw	v0,4(s8)
a0809c18:	24420001 	addiu	v0,v0,1
a0809c1c:	afc20004 	sw	v0,4(s8)
a0809c20:	8fc20008 	lw	v0,8(s8)
a0809c24:	24420001 	addiu	v0,v0,1
a0809c28:	afc20008 	sw	v0,8(s8)
a0809c2c:	8fc30008 	lw	v1,8(s8)
a0809c30:	3c02a081 	lui	v0,0xa081
a0809c34:	2442f988 	addiu	v0,v0,-1656
a0809c38:	00621021 	addu	v0,v1,v0
a0809c3c:	80420000 	lb	v0,0(v0)
a0809c40:	1440ffc6 	bnez	v0,a0809b5c <path_analyse+0x64>
a0809c44:	00000000 	nop
a0809c48:	8fc20008 	lw	v0,8(s8)
a0809c4c:	2443ffff 	addiu	v1,v0,-1
a0809c50:	3c02a081 	lui	v0,0xa081
a0809c54:	2442f988 	addiu	v0,v0,-1656
a0809c58:	00621021 	addu	v0,v1,v0
a0809c5c:	80430000 	lb	v1,0(v0)
a0809c60:	2402002f 	li	v0,47
a0809c64:	10620010 	beq	v1,v0,a0809ca8 <path_analyse+0x1b0>
a0809c68:	00000000 	nop
a0809c6c:	3c02a081 	lui	v0,0xa081
a0809c70:	8c44c7a4 	lw	a0,-14428(v0)
a0809c74:	8fc50004 	lw	a1,4(s8)
a0809c78:	3c06a081 	lui	a2,0xa081
a0809c7c:	00801021 	move	v0,a0
a0809c80:	00021880 	sll	v1,v0,0x2
a0809c84:	000310c0 	sll	v0,v1,0x3
a0809c88:	00431023 	subu	v0,v0,v1
a0809c8c:	00451821 	addu	v1,v0,a1
a0809c90:	24c2f588 	addiu	v0,a2,-2680
a0809c94:	00621021 	addu	v0,v1,v0
a0809c98:	a0400000 	sb	zero,0(v0)
a0809c9c:	24830001 	addiu	v1,a0,1
a0809ca0:	3c02a081 	lui	v0,0xa081
a0809ca4:	ac43c7a4 	sw	v1,-14428(v0)
a0809ca8:	8fc20000 	lw	v0,0(s8)
a0809cac:	03c0e821 	move	sp,s8
a0809cb0:	8fbe0014 	lw	s8,20(sp)
a0809cb4:	27bd0018 	addiu	sp,sp,24
a0809cb8:	03e00008 	jr	ra
a0809cbc:	00000000 	nop

a0809cc0 <test_shell>:
a0809cc0:	27bdff98 	addiu	sp,sp,-104
a0809cc4:	afbf0064 	sw	ra,100(sp)
a0809cc8:	afbe0060 	sw	s8,96(sp)
a0809ccc:	03a0f021 	move	s8,sp
a0809cd0:	3c02a081 	lui	v0,0xa081
a0809cd4:	2443cd88 	addiu	v1,v0,-12920
a0809cd8:	24020011 	li	v0,17
a0809cdc:	ac62016c 	sw	v0,364(v1)
a0809ce0:	afc00034 	sw	zero,52(s8)
a0809ce4:	3c02a081 	lui	v0,0xa081
a0809ce8:	2442cd88 	addiu	v0,v0,-12920
a0809cec:	8c42016c 	lw	v0,364(v0)
a0809cf0:	24040001 	li	a0,1
a0809cf4:	00402821 	move	a1,v0
a0809cf8:	0c2013b7 	jal	a0804edc <sys_move_cursor>
a0809cfc:	00000000 	nop
a0809d00:	3c02a081 	lui	v0,0xa081
a0809d04:	2444b304 	addiu	a0,v0,-19708
a0809d08:	0c201903 	jal	a080640c <printf>
a0809d0c:	00000000 	nop
a0809d10:	3c02a081 	lui	v0,0xa081
a0809d14:	2442cd88 	addiu	v0,v0,-12920
a0809d18:	8c42016c 	lw	v0,364(v0)
a0809d1c:	24430001 	addiu	v1,v0,1
a0809d20:	3c02a081 	lui	v0,0xa081
a0809d24:	2442cd88 	addiu	v0,v0,-12920
a0809d28:	ac43016c 	sw	v1,364(v0)
a0809d2c:	3c02a081 	lui	v0,0xa081
a0809d30:	2442cd88 	addiu	v0,v0,-12920
a0809d34:	8c42016c 	lw	v0,364(v0)
a0809d38:	24040001 	li	a0,1
a0809d3c:	00402821 	move	a1,v0
a0809d40:	0c2013b7 	jal	a0804edc <sys_move_cursor>
a0809d44:	00000000 	nop
a0809d48:	0c202672 	jal	a08099c8 <print_localhost>
a0809d4c:	00000000 	nop
a0809d50:	0c202630 	jal	a08098c0 <disable_interrupt>
a0809d54:	00000000 	nop
a0809d58:	0c202657 	jal	a080995c <read_uart_ch>
a0809d5c:	00000000 	nop
a0809d60:	a3c20030 	sb	v0,48(s8)
a0809d64:	0c202644 	jal	a0809910 <enable_interrupt>
a0809d68:	00000000 	nop
a0809d6c:	83c20030 	lb	v0,48(s8)
a0809d70:	1040fff7 	beqz	v0,a0809d50 <test_shell+0x90>
a0809d74:	00000000 	nop
a0809d78:	83c30030 	lb	v1,48(s8)
a0809d7c:	2402000d 	li	v0,13
a0809d80:	1062002b 	beq	v1,v0,a0809e30 <test_shell+0x170>
a0809d84:	00000000 	nop
a0809d88:	83c30030 	lb	v1,48(s8)
a0809d8c:	24020008 	li	v0,8
a0809d90:	14620012 	bne	v1,v0,a0809ddc <test_shell+0x11c>
a0809d94:	00000000 	nop
a0809d98:	8fc20034 	lw	v0,52(s8)
a0809d9c:	2442ffff 	addiu	v0,v0,-1
a0809da0:	afc20034 	sw	v0,52(s8)
a0809da4:	8fc20034 	lw	v0,52(s8)
a0809da8:	04410004 	bgez	v0,a0809dbc <test_shell+0xfc>
a0809dac:	00000000 	nop
a0809db0:	afc00034 	sw	zero,52(s8)
a0809db4:	08202754 	j	a0809d50 <test_shell+0x90>
a0809db8:	00000000 	nop
a0809dbc:	83c30030 	lb	v1,48(s8)
a0809dc0:	3c02a081 	lui	v0,0xa081
a0809dc4:	2444b2fc 	addiu	a0,v0,-19716
a0809dc8:	00602821 	move	a1,v1
a0809dcc:	0c201903 	jal	a080640c <printf>
a0809dd0:	00000000 	nop
a0809dd4:	08202754 	j	a0809d50 <test_shell+0x90>
a0809dd8:	00000000 	nop
a0809ddc:	8fc20034 	lw	v0,52(s8)
a0809de0:	28420064 	slti	v0,v0,100
a0809de4:	1040ffda 	beqz	v0,a0809d50 <test_shell+0x90>
a0809de8:	00000000 	nop
a0809dec:	8fc30034 	lw	v1,52(s8)
a0809df0:	3c02a081 	lui	v0,0xa081
a0809df4:	2442f988 	addiu	v0,v0,-1656
a0809df8:	00621821 	addu	v1,v1,v0
a0809dfc:	93c20030 	lbu	v0,48(s8)
a0809e00:	a0620000 	sb	v0,0(v1)
a0809e04:	8fc20034 	lw	v0,52(s8)
a0809e08:	24420001 	addiu	v0,v0,1
a0809e0c:	afc20034 	sw	v0,52(s8)
a0809e10:	83c30030 	lb	v1,48(s8)
a0809e14:	3c02a081 	lui	v0,0xa081
a0809e18:	2444b2fc 	addiu	a0,v0,-19716
a0809e1c:	00602821 	move	a1,v1
a0809e20:	0c201903 	jal	a080640c <printf>
a0809e24:	00000000 	nop
a0809e28:	08202754 	j	a0809d50 <test_shell+0x90>
a0809e2c:	00000000 	nop
a0809e30:	8fc30034 	lw	v1,52(s8)
a0809e34:	3c02a081 	lui	v0,0xa081
a0809e38:	2442f988 	addiu	v0,v0,-1656
a0809e3c:	00621021 	addu	v0,v1,v0
a0809e40:	a0400000 	sb	zero,0(v0)
a0809e44:	3c02a081 	lui	v0,0xa081
a0809e48:	8043f988 	lb	v1,-1656(v0)
a0809e4c:	24020070 	li	v0,112
a0809e50:	1462001e 	bne	v1,v0,a0809ecc <test_shell+0x20c>
a0809e54:	00000000 	nop
a0809e58:	3c02a081 	lui	v0,0xa081
a0809e5c:	2442f988 	addiu	v0,v0,-1656
a0809e60:	80430001 	lb	v1,1(v0)
a0809e64:	24020073 	li	v0,115
a0809e68:	14620018 	bne	v1,v0,a0809ecc <test_shell+0x20c>
a0809e6c:	00000000 	nop
a0809e70:	3c02a081 	lui	v0,0xa081
a0809e74:	2442f988 	addiu	v0,v0,-1656
a0809e78:	80420002 	lb	v0,2(v0)
a0809e7c:	14400013 	bnez	v0,a0809ecc <test_shell+0x20c>
a0809e80:	00000000 	nop
a0809e84:	3c02a081 	lui	v0,0xa081
a0809e88:	2442cd88 	addiu	v0,v0,-12920
a0809e8c:	8c42016c 	lw	v0,364(v0)
a0809e90:	24430001 	addiu	v1,v0,1
a0809e94:	3c02a081 	lui	v0,0xa081
a0809e98:	2442cd88 	addiu	v0,v0,-12920
a0809e9c:	ac43016c 	sw	v1,364(v0)
a0809ea0:	3c02a081 	lui	v0,0xa081
a0809ea4:	2442cd88 	addiu	v0,v0,-12920
a0809ea8:	8c42016c 	lw	v0,364(v0)
a0809eac:	24040001 	li	a0,1
a0809eb0:	00402821 	move	a1,v0
a0809eb4:	0c2013b7 	jal	a0804edc <sys_move_cursor>
a0809eb8:	00000000 	nop
a0809ebc:	0c201449 	jal	a0805124 <sys_ps>
a0809ec0:	00000000 	nop
a0809ec4:	08202b2c 	j	a080acb0 <test_shell+0xff0>
a0809ec8:	00000000 	nop
a0809ecc:	3c02a081 	lui	v0,0xa081
a0809ed0:	8043f988 	lb	v1,-1656(v0)
a0809ed4:	24020063 	li	v0,99
a0809ed8:	1462002f 	bne	v1,v0,a0809f98 <test_shell+0x2d8>
a0809edc:	00000000 	nop
a0809ee0:	3c02a081 	lui	v0,0xa081
a0809ee4:	2442f988 	addiu	v0,v0,-1656
a0809ee8:	80430001 	lb	v1,1(v0)
a0809eec:	2402006c 	li	v0,108
a0809ef0:	14620029 	bne	v1,v0,a0809f98 <test_shell+0x2d8>
a0809ef4:	00000000 	nop
a0809ef8:	3c02a081 	lui	v0,0xa081
a0809efc:	2442f988 	addiu	v0,v0,-1656
a0809f00:	80430002 	lb	v1,2(v0)
a0809f04:	24020065 	li	v0,101
a0809f08:	14620023 	bne	v1,v0,a0809f98 <test_shell+0x2d8>
a0809f0c:	00000000 	nop
a0809f10:	3c02a081 	lui	v0,0xa081
a0809f14:	2442f988 	addiu	v0,v0,-1656
a0809f18:	80430003 	lb	v1,3(v0)
a0809f1c:	24020061 	li	v0,97
a0809f20:	1462001d 	bne	v1,v0,a0809f98 <test_shell+0x2d8>
a0809f24:	00000000 	nop
a0809f28:	3c02a081 	lui	v0,0xa081
a0809f2c:	2442f988 	addiu	v0,v0,-1656
a0809f30:	80430004 	lb	v1,4(v0)
a0809f34:	24020072 	li	v0,114
a0809f38:	14620017 	bne	v1,v0,a0809f98 <test_shell+0x2d8>
a0809f3c:	00000000 	nop
a0809f40:	3c02a081 	lui	v0,0xa081
a0809f44:	2442f988 	addiu	v0,v0,-1656
a0809f48:	80420005 	lb	v0,5(v0)
a0809f4c:	14400012 	bnez	v0,a0809f98 <test_shell+0x2d8>
a0809f50:	00000000 	nop
a0809f54:	24040012 	li	a0,18
a0809f58:	2405001e 	li	a1,30
a0809f5c:	0c201459 	jal	a0805164 <sys_clear>
a0809f60:	00000000 	nop
a0809f64:	3c02a081 	lui	v0,0xa081
a0809f68:	2443cd88 	addiu	v1,v0,-12920
a0809f6c:	24020012 	li	v0,18
a0809f70:	ac62016c 	sw	v0,364(v1)
a0809f74:	3c02a081 	lui	v0,0xa081
a0809f78:	2442cd88 	addiu	v0,v0,-12920
a0809f7c:	8c42016c 	lw	v0,364(v0)
a0809f80:	24040001 	li	a0,1
a0809f84:	00402821 	move	a1,v0
a0809f88:	0c2013b7 	jal	a0804edc <sys_move_cursor>
a0809f8c:	00000000 	nop
a0809f90:	08202b2c 	j	a080acb0 <test_shell+0xff0>
a0809f94:	00000000 	nop
a0809f98:	3c02a081 	lui	v0,0xa081
a0809f9c:	8043f988 	lb	v1,-1656(v0)
a0809fa0:	24020065 	li	v0,101
a0809fa4:	146200f5 	bne	v1,v0,a080a37c <test_shell+0x6bc>
a0809fa8:	00000000 	nop
a0809fac:	3c02a081 	lui	v0,0xa081
a0809fb0:	2442f988 	addiu	v0,v0,-1656
a0809fb4:	80430001 	lb	v1,1(v0)
a0809fb8:	24020078 	li	v0,120
a0809fbc:	146200ef 	bne	v1,v0,a080a37c <test_shell+0x6bc>
a0809fc0:	00000000 	nop
a0809fc4:	3c02a081 	lui	v0,0xa081
a0809fc8:	2442f988 	addiu	v0,v0,-1656
a0809fcc:	80430002 	lb	v1,2(v0)
a0809fd0:	24020065 	li	v0,101
a0809fd4:	146200e9 	bne	v1,v0,a080a37c <test_shell+0x6bc>
a0809fd8:	00000000 	nop
a0809fdc:	3c02a081 	lui	v0,0xa081
a0809fe0:	2442f988 	addiu	v0,v0,-1656
a0809fe4:	80430003 	lb	v1,3(v0)
a0809fe8:	24020063 	li	v0,99
a0809fec:	146200e3 	bne	v1,v0,a080a37c <test_shell+0x6bc>
a0809ff0:	00000000 	nop
a0809ff4:	3c02a081 	lui	v0,0xa081
a0809ff8:	2442f988 	addiu	v0,v0,-1656
a0809ffc:	80430004 	lb	v1,4(v0)
a080a000:	24020020 	li	v0,32
a080a004:	146200dd 	bne	v1,v0,a080a37c <test_shell+0x6bc>
a080a008:	00000000 	nop
a080a00c:	3c02a081 	lui	v0,0xa081
a080a010:	2442cd88 	addiu	v0,v0,-12920
a080a014:	8c42016c 	lw	v0,364(v0)
a080a018:	24430001 	addiu	v1,v0,1
a080a01c:	3c02a081 	lui	v0,0xa081
a080a020:	2442cd88 	addiu	v0,v0,-12920
a080a024:	ac43016c 	sw	v1,364(v0)
a080a028:	3c02a081 	lui	v0,0xa081
a080a02c:	2442cd88 	addiu	v0,v0,-12920
a080a030:	8c42016c 	lw	v0,364(v0)
a080a034:	24040001 	li	a0,1
a080a038:	00402821 	move	a1,v0
a080a03c:	0c2013b7 	jal	a0804edc <sys_move_cursor>
a080a040:	00000000 	nop
a080a044:	afc0002c 	sw	zero,44(s8)
a080a048:	24020005 	li	v0,5
a080a04c:	afc20028 	sw	v0,40(s8)
a080a050:	08202825 	j	a080a094 <test_shell+0x3d4>
a080a054:	00000000 	nop
a080a058:	8fc2002c 	lw	v0,44(s8)
a080a05c:	00021840 	sll	v1,v0,0x1
a080a060:	00031080 	sll	v0,v1,0x2
a080a064:	00622021 	addu	a0,v1,v0
a080a068:	8fc30028 	lw	v1,40(s8)
a080a06c:	3c02a081 	lui	v0,0xa081
a080a070:	2442f988 	addiu	v0,v0,-1656
a080a074:	00621021 	addu	v0,v1,v0
a080a078:	80420000 	lb	v0,0(v0)
a080a07c:	00821021 	addu	v0,a0,v0
a080a080:	2442ffd0 	addiu	v0,v0,-48
a080a084:	afc2002c 	sw	v0,44(s8)
a080a088:	8fc20028 	lw	v0,40(s8)
a080a08c:	24420001 	addiu	v0,v0,1
a080a090:	afc20028 	sw	v0,40(s8)
a080a094:	8fc30028 	lw	v1,40(s8)
a080a098:	3c02a081 	lui	v0,0xa081
a080a09c:	2442f988 	addiu	v0,v0,-1656
a080a0a0:	00621021 	addu	v0,v1,v0
a080a0a4:	80420000 	lb	v0,0(v0)
a080a0a8:	28420030 	slti	v0,v0,48
a080a0ac:	14400009 	bnez	v0,a080a0d4 <test_shell+0x414>
a080a0b0:	00000000 	nop
a080a0b4:	8fc30028 	lw	v1,40(s8)
a080a0b8:	3c02a081 	lui	v0,0xa081
a080a0bc:	2442f988 	addiu	v0,v0,-1656
a080a0c0:	00621021 	addu	v0,v1,v0
a080a0c4:	80420000 	lb	v0,0(v0)
a080a0c8:	2842003a 	slti	v0,v0,58
a080a0cc:	1440ffe2 	bnez	v0,a080a058 <test_shell+0x398>
a080a0d0:	00000000 	nop
a080a0d4:	2402000a 	li	v0,10
a080a0d8:	afc20024 	sw	v0,36(s8)
a080a0dc:	08202842 	j	a080a108 <test_shell+0x448>
a080a0e0:	00000000 	nop
a080a0e4:	8fc20024 	lw	v0,36(s8)
a080a0e8:	2442ffff 	addiu	v0,v0,-1
a080a0ec:	00021080 	sll	v0,v0,0x2
a080a0f0:	27c30010 	addiu	v1,s8,16
a080a0f4:	00621021 	addu	v0,v1,v0
a080a0f8:	ac400028 	sw	zero,40(v0)
a080a0fc:	8fc20024 	lw	v0,36(s8)
a080a100:	2442ffff 	addiu	v0,v0,-1
a080a104:	afc20024 	sw	v0,36(s8)
a080a108:	8fc20024 	lw	v0,36(s8)
a080a10c:	1c40fff5 	bgtz	v0,a080a0e4 <test_shell+0x424>
a080a110:	00000000 	nop
a080a114:	08202895 	j	a080a254 <test_shell+0x594>
a080a118:	00000000 	nop
a080a11c:	8fc30028 	lw	v1,40(s8)
a080a120:	3c02a081 	lui	v0,0xa081
a080a124:	2442f988 	addiu	v0,v0,-1656
a080a128:	00621021 	addu	v0,v1,v0
a080a12c:	80420000 	lb	v0,0(v0)
a080a130:	2842003a 	slti	v0,v0,58
a080a134:	1040000a 	beqz	v0,a080a160 <test_shell+0x4a0>
a080a138:	00000000 	nop
a080a13c:	8fc30028 	lw	v1,40(s8)
a080a140:	3c02a081 	lui	v0,0xa081
a080a144:	2442f988 	addiu	v0,v0,-1656
a080a148:	00621021 	addu	v0,v1,v0
a080a14c:	80420000 	lb	v0,0(v0)
a080a150:	2442ffd0 	addiu	v0,v0,-48
a080a154:	afc20020 	sw	v0,32(s8)
a080a158:	08202867 	j	a080a19c <test_shell+0x4dc>
a080a15c:	00000000 	nop
a080a160:	8fc30028 	lw	v1,40(s8)
a080a164:	3c02a081 	lui	v0,0xa081
a080a168:	2442f988 	addiu	v0,v0,-1656
a080a16c:	00621021 	addu	v0,v1,v0
a080a170:	80420000 	lb	v0,0(v0)
a080a174:	28420061 	slti	v0,v0,97
a080a178:	14400008 	bnez	v0,a080a19c <test_shell+0x4dc>
a080a17c:	00000000 	nop
a080a180:	8fc30028 	lw	v1,40(s8)
a080a184:	3c02a081 	lui	v0,0xa081
a080a188:	2442f988 	addiu	v0,v0,-1656
a080a18c:	00621021 	addu	v0,v1,v0
a080a190:	80420000 	lb	v0,0(v0)
a080a194:	2442ffa9 	addiu	v0,v0,-87
a080a198:	afc20020 	sw	v0,32(s8)
a080a19c:	8fc50024 	lw	a1,36(s8)
a080a1a0:	8fc20024 	lw	v0,36(s8)
a080a1a4:	00021080 	sll	v0,v0,0x2
a080a1a8:	27c30010 	addiu	v1,s8,16
a080a1ac:	00621021 	addu	v0,v1,v0
a080a1b0:	8c420028 	lw	v0,40(v0)
a080a1b4:	00021900 	sll	v1,v0,0x4
a080a1b8:	8fc20020 	lw	v0,32(s8)
a080a1bc:	00622021 	addu	a0,v1,v0
a080a1c0:	00051080 	sll	v0,a1,0x2
a080a1c4:	27c30010 	addiu	v1,s8,16
a080a1c8:	00621021 	addu	v0,v1,v0
a080a1cc:	ac440028 	sw	a0,40(v0)
a080a1d0:	8fc20028 	lw	v0,40(s8)
a080a1d4:	24420001 	addiu	v0,v0,1
a080a1d8:	afc20028 	sw	v0,40(s8)
a080a1dc:	8fc30028 	lw	v1,40(s8)
a080a1e0:	3c02a081 	lui	v0,0xa081
a080a1e4:	2442f988 	addiu	v0,v0,-1656
a080a1e8:	00621021 	addu	v0,v1,v0
a080a1ec:	80420000 	lb	v0,0(v0)
a080a1f0:	28420030 	slti	v0,v0,48
a080a1f4:	14400009 	bnez	v0,a080a21c <test_shell+0x55c>
a080a1f8:	00000000 	nop
a080a1fc:	8fc30028 	lw	v1,40(s8)
a080a200:	3c02a081 	lui	v0,0xa081
a080a204:	2442f988 	addiu	v0,v0,-1656
a080a208:	00621021 	addu	v0,v1,v0
a080a20c:	80420000 	lb	v0,0(v0)
a080a210:	28420067 	slti	v0,v0,103
a080a214:	1440ffc1 	bnez	v0,a080a11c <test_shell+0x45c>
a080a218:	00000000 	nop
a080a21c:	8fc50024 	lw	a1,36(s8)
a080a220:	8fc20024 	lw	v0,36(s8)
a080a224:	00021080 	sll	v0,v0,0x2
a080a228:	27c30010 	addiu	v1,s8,16
a080a22c:	00621021 	addu	v0,v1,v0
a080a230:	8c440028 	lw	a0,40(v0)
a080a234:	3c02a081 	lui	v0,0xa081
a080a238:	00051880 	sll	v1,a1,0x2
a080a23c:	2442cd70 	addiu	v0,v0,-12944
a080a240:	00621021 	addu	v0,v1,v0
a080a244:	ac440000 	sw	a0,0(v0)
a080a248:	8fc20024 	lw	v0,36(s8)
a080a24c:	24420001 	addiu	v0,v0,1
a080a250:	afc20024 	sw	v0,36(s8)
a080a254:	8fc30028 	lw	v1,40(s8)
a080a258:	3c02a081 	lui	v0,0xa081
a080a25c:	2442f988 	addiu	v0,v0,-1656
a080a260:	00621021 	addu	v0,v1,v0
a080a264:	80420000 	lb	v0,0(v0)
a080a268:	38420020 	xori	v0,v0,0x20
a080a26c:	2c420001 	sltiu	v0,v0,1
a080a270:	304300ff 	andi	v1,v0,0xff
a080a274:	8fc20028 	lw	v0,40(s8)
a080a278:	24420001 	addiu	v0,v0,1
a080a27c:	afc20028 	sw	v0,40(s8)
a080a280:	1460ffd6 	bnez	v1,a080a1dc <test_shell+0x51c>
a080a284:	00000000 	nop
a080a288:	8fc2002c 	lw	v0,44(s8)
a080a28c:	0440002e 	bltz	v0,a080a348 <test_shell+0x688>
a080a290:	00000000 	nop
a080a294:	3c02a081 	lui	v0,0xa081
a080a298:	8c43b458 	lw	v1,-19368(v0)
a080a29c:	8fc2002c 	lw	v0,44(s8)
a080a2a0:	0043102a 	slt	v0,v0,v1
a080a2a4:	10400028 	beqz	v0,a080a348 <test_shell+0x688>
a080a2a8:	00000000 	nop
a080a2ac:	8fc2002c 	lw	v0,44(s8)
a080a2b0:	3c03a081 	lui	v1,0xa081
a080a2b4:	00022080 	sll	a0,v0,0x2
a080a2b8:	2462b450 	addiu	v0,v1,-19376
a080a2bc:	00821021 	addu	v0,a0,v0
a080a2c0:	8c420000 	lw	v0,0(v0)
a080a2c4:	00402021 	move	a0,v0
a080a2c8:	0c201509 	jal	a0805424 <sys_spawn>
a080a2cc:	00000000 	nop
a080a2d0:	3c02a081 	lui	v0,0xa081
a080a2d4:	8c45c780 	lw	a1,-14464(v0)
a080a2d8:	8fc2002c 	lw	v0,44(s8)
a080a2dc:	3c03a081 	lui	v1,0xa081
a080a2e0:	00022080 	sll	a0,v0,0x2
a080a2e4:	2462b450 	addiu	v0,v1,-19376
a080a2e8:	00821021 	addu	v0,a0,v0
a080a2ec:	8c420000 	lw	v0,0(v0)
a080a2f0:	8c430000 	lw	v1,0(v0)
a080a2f4:	3c02a081 	lui	v0,0xa081
a080a2f8:	2444b338 	addiu	a0,v0,-19656
a080a2fc:	00603021 	move	a2,v1
a080a300:	0c201903 	jal	a080640c <printf>
a080a304:	00000000 	nop
a080a308:	3c02a081 	lui	v0,0xa081
a080a30c:	2442cd88 	addiu	v0,v0,-12920
a080a310:	8c42016c 	lw	v0,364(v0)
a080a314:	24430001 	addiu	v1,v0,1
a080a318:	3c02a081 	lui	v0,0xa081
a080a31c:	2442cd88 	addiu	v0,v0,-12920
a080a320:	ac43016c 	sw	v1,364(v0)
a080a324:	3c02a081 	lui	v0,0xa081
a080a328:	2442cd88 	addiu	v0,v0,-12920
a080a32c:	8c42016c 	lw	v0,364(v0)
a080a330:	24040001 	li	a0,1
a080a334:	00402821 	move	a1,v0
a080a338:	0c2013b7 	jal	a0804edc <sys_move_cursor>
a080a33c:	00000000 	nop
a080a340:	08202b2c 	j	a080acb0 <test_shell+0xff0>
a080a344:	00000000 	nop
a080a348:	3c02a081 	lui	v0,0xa081
a080a34c:	2444b350 	addiu	a0,v0,-19632
a080a350:	0c201903 	jal	a080640c <printf>
a080a354:	00000000 	nop
a080a358:	3c02a081 	lui	v0,0xa081
a080a35c:	2442cd88 	addiu	v0,v0,-12920
a080a360:	8c42016c 	lw	v0,364(v0)
a080a364:	24430001 	addiu	v1,v0,1
a080a368:	3c02a081 	lui	v0,0xa081
a080a36c:	2442cd88 	addiu	v0,v0,-12920
a080a370:	ac43016c 	sw	v1,364(v0)
a080a374:	08202b2c 	j	a080acb0 <test_shell+0xff0>
a080a378:	00000000 	nop
a080a37c:	3c02a081 	lui	v0,0xa081
a080a380:	8043f988 	lb	v1,-1656(v0)
a080a384:	2402006b 	li	v0,107
a080a388:	14620058 	bne	v1,v0,a080a4ec <test_shell+0x82c>
a080a38c:	00000000 	nop
a080a390:	3c02a081 	lui	v0,0xa081
a080a394:	2442f988 	addiu	v0,v0,-1656
a080a398:	80430001 	lb	v1,1(v0)
a080a39c:	24020069 	li	v0,105
a080a3a0:	14620052 	bne	v1,v0,a080a4ec <test_shell+0x82c>
a080a3a4:	00000000 	nop
a080a3a8:	3c02a081 	lui	v0,0xa081
a080a3ac:	2442f988 	addiu	v0,v0,-1656
a080a3b0:	80430002 	lb	v1,2(v0)
a080a3b4:	2402006c 	li	v0,108
a080a3b8:	1462004c 	bne	v1,v0,a080a4ec <test_shell+0x82c>
a080a3bc:	00000000 	nop
a080a3c0:	3c02a081 	lui	v0,0xa081
a080a3c4:	2442f988 	addiu	v0,v0,-1656
a080a3c8:	80430003 	lb	v1,3(v0)
a080a3cc:	2402006c 	li	v0,108
a080a3d0:	14620046 	bne	v1,v0,a080a4ec <test_shell+0x82c>
a080a3d4:	00000000 	nop
a080a3d8:	3c02a081 	lui	v0,0xa081
a080a3dc:	2442f988 	addiu	v0,v0,-1656
a080a3e0:	80430004 	lb	v1,4(v0)
a080a3e4:	24020020 	li	v0,32
a080a3e8:	14620040 	bne	v1,v0,a080a4ec <test_shell+0x82c>
a080a3ec:	00000000 	nop
a080a3f0:	3c02a081 	lui	v0,0xa081
a080a3f4:	2442cd88 	addiu	v0,v0,-12920
a080a3f8:	8c42016c 	lw	v0,364(v0)
a080a3fc:	24430001 	addiu	v1,v0,1
a080a400:	3c02a081 	lui	v0,0xa081
a080a404:	2442cd88 	addiu	v0,v0,-12920
a080a408:	ac43016c 	sw	v1,364(v0)
a080a40c:	3c02a081 	lui	v0,0xa081
a080a410:	2442cd88 	addiu	v0,v0,-12920
a080a414:	8c42016c 	lw	v0,364(v0)
a080a418:	24040001 	li	a0,1
a080a41c:	00402821 	move	a1,v0
a080a420:	0c2013b7 	jal	a0804edc <sys_move_cursor>
a080a424:	00000000 	nop
a080a428:	afc0001c 	sw	zero,28(s8)
a080a42c:	24020005 	li	v0,5
a080a430:	afc20018 	sw	v0,24(s8)
a080a434:	0820291e 	j	a080a478 <test_shell+0x7b8>
a080a438:	00000000 	nop
a080a43c:	8fc2001c 	lw	v0,28(s8)
a080a440:	00021840 	sll	v1,v0,0x1
a080a444:	00031080 	sll	v0,v1,0x2
a080a448:	00622021 	addu	a0,v1,v0
a080a44c:	8fc30018 	lw	v1,24(s8)
a080a450:	3c02a081 	lui	v0,0xa081
a080a454:	2442f988 	addiu	v0,v0,-1656
a080a458:	00621021 	addu	v0,v1,v0
a080a45c:	80420000 	lb	v0,0(v0)
a080a460:	00821021 	addu	v0,a0,v0
a080a464:	2442ffd0 	addiu	v0,v0,-48
a080a468:	afc2001c 	sw	v0,28(s8)
a080a46c:	8fc20018 	lw	v0,24(s8)
a080a470:	24420001 	addiu	v0,v0,1
a080a474:	afc20018 	sw	v0,24(s8)
a080a478:	8fc20018 	lw	v0,24(s8)
a080a47c:	8fc30034 	lw	v1,52(s8)
a080a480:	0043102a 	slt	v0,v0,v1
a080a484:	1440ffed 	bnez	v0,a080a43c <test_shell+0x77c>
a080a488:	00000000 	nop
a080a48c:	8fc4001c 	lw	a0,28(s8)
a080a490:	0c2014f8 	jal	a08053e0 <sys_kill>
a080a494:	00000000 	nop
a080a498:	3c02a081 	lui	v0,0xa081
a080a49c:	2444b368 	addiu	a0,v0,-19608
a080a4a0:	8fc5001c 	lw	a1,28(s8)
a080a4a4:	0c201903 	jal	a080640c <printf>
a080a4a8:	00000000 	nop
a080a4ac:	3c02a081 	lui	v0,0xa081
a080a4b0:	2442cd88 	addiu	v0,v0,-12920
a080a4b4:	8c42016c 	lw	v0,364(v0)
a080a4b8:	24430001 	addiu	v1,v0,1
a080a4bc:	3c02a081 	lui	v0,0xa081
a080a4c0:	2442cd88 	addiu	v0,v0,-12920
a080a4c4:	ac43016c 	sw	v1,364(v0)
a080a4c8:	3c02a081 	lui	v0,0xa081
a080a4cc:	2442cd88 	addiu	v0,v0,-12920
a080a4d0:	8c42016c 	lw	v0,364(v0)
a080a4d4:	24040001 	li	a0,1
a080a4d8:	00402821 	move	a1,v0
a080a4dc:	0c2013b7 	jal	a0804edc <sys_move_cursor>
a080a4e0:	00000000 	nop
a080a4e4:	08202b2c 	j	a080acb0 <test_shell+0xff0>
a080a4e8:	00000000 	nop
a080a4ec:	3c02a081 	lui	v0,0xa081
a080a4f0:	8043f988 	lb	v1,-1656(v0)
a080a4f4:	2402006d 	li	v0,109
a080a4f8:	14620025 	bne	v1,v0,a080a590 <test_shell+0x8d0>
a080a4fc:	00000000 	nop
a080a500:	3c02a081 	lui	v0,0xa081
a080a504:	2442f988 	addiu	v0,v0,-1656
a080a508:	80430001 	lb	v1,1(v0)
a080a50c:	2402006b 	li	v0,107
a080a510:	1462001f 	bne	v1,v0,a080a590 <test_shell+0x8d0>
a080a514:	00000000 	nop
a080a518:	3c02a081 	lui	v0,0xa081
a080a51c:	2442f988 	addiu	v0,v0,-1656
a080a520:	80430002 	lb	v1,2(v0)
a080a524:	24020066 	li	v0,102
a080a528:	14620019 	bne	v1,v0,a080a590 <test_shell+0x8d0>
a080a52c:	00000000 	nop
a080a530:	3c02a081 	lui	v0,0xa081
a080a534:	2442f988 	addiu	v0,v0,-1656
a080a538:	80430003 	lb	v1,3(v0)
a080a53c:	24020073 	li	v0,115
a080a540:	14620013 	bne	v1,v0,a080a590 <test_shell+0x8d0>
a080a544:	00000000 	nop
a080a548:	3c02a081 	lui	v0,0xa081
a080a54c:	2442cd88 	addiu	v0,v0,-12920
a080a550:	8c42016c 	lw	v0,364(v0)
a080a554:	24430001 	addiu	v1,v0,1
a080a558:	3c02a081 	lui	v0,0xa081
a080a55c:	2442cd88 	addiu	v0,v0,-12920
a080a560:	ac43016c 	sw	v1,364(v0)
a080a564:	3c02a081 	lui	v0,0xa081
a080a568:	2442cd88 	addiu	v0,v0,-12920
a080a56c:	8c42016c 	lw	v0,364(v0)
a080a570:	24040001 	li	a0,1
a080a574:	00402821 	move	a1,v0
a080a578:	0c2013b7 	jal	a0804edc <sys_move_cursor>
a080a57c:	00000000 	nop
a080a580:	0c20151b 	jal	a080546c <sys_mkfs>
a080a584:	00000000 	nop
a080a588:	08202b2c 	j	a080acb0 <test_shell+0xff0>
a080a58c:	00000000 	nop
a080a590:	3c02a081 	lui	v0,0xa081
a080a594:	8043f988 	lb	v1,-1656(v0)
a080a598:	24020073 	li	v0,115
a080a59c:	14620031 	bne	v1,v0,a080a664 <test_shell+0x9a4>
a080a5a0:	00000000 	nop
a080a5a4:	3c02a081 	lui	v0,0xa081
a080a5a8:	2442f988 	addiu	v0,v0,-1656
a080a5ac:	80430001 	lb	v1,1(v0)
a080a5b0:	24020074 	li	v0,116
a080a5b4:	1462002b 	bne	v1,v0,a080a664 <test_shell+0x9a4>
a080a5b8:	00000000 	nop
a080a5bc:	3c02a081 	lui	v0,0xa081
a080a5c0:	2442f988 	addiu	v0,v0,-1656
a080a5c4:	80430002 	lb	v1,2(v0)
a080a5c8:	24020061 	li	v0,97
a080a5cc:	14620025 	bne	v1,v0,a080a664 <test_shell+0x9a4>
a080a5d0:	00000000 	nop
a080a5d4:	3c02a081 	lui	v0,0xa081
a080a5d8:	2442f988 	addiu	v0,v0,-1656
a080a5dc:	80430003 	lb	v1,3(v0)
a080a5e0:	24020074 	li	v0,116
a080a5e4:	1462001f 	bne	v1,v0,a080a664 <test_shell+0x9a4>
a080a5e8:	00000000 	nop
a080a5ec:	3c02a081 	lui	v0,0xa081
a080a5f0:	2442f988 	addiu	v0,v0,-1656
a080a5f4:	80430004 	lb	v1,4(v0)
a080a5f8:	24020066 	li	v0,102
a080a5fc:	14620019 	bne	v1,v0,a080a664 <test_shell+0x9a4>
a080a600:	00000000 	nop
a080a604:	3c02a081 	lui	v0,0xa081
a080a608:	2442f988 	addiu	v0,v0,-1656
a080a60c:	80430005 	lb	v1,5(v0)
a080a610:	24020073 	li	v0,115
a080a614:	14620013 	bne	v1,v0,a080a664 <test_shell+0x9a4>
a080a618:	00000000 	nop
a080a61c:	3c02a081 	lui	v0,0xa081
a080a620:	2442cd88 	addiu	v0,v0,-12920
a080a624:	8c42016c 	lw	v0,364(v0)
a080a628:	24430001 	addiu	v1,v0,1
a080a62c:	3c02a081 	lui	v0,0xa081
a080a630:	2442cd88 	addiu	v0,v0,-12920
a080a634:	ac43016c 	sw	v1,364(v0)
a080a638:	3c02a081 	lui	v0,0xa081
a080a63c:	2442cd88 	addiu	v0,v0,-12920
a080a640:	8c42016c 	lw	v0,364(v0)
a080a644:	24040001 	li	a0,1
a080a648:	00402821 	move	a1,v0
a080a64c:	0c2013b7 	jal	a0804edc <sys_move_cursor>
a080a650:	00000000 	nop
a080a654:	0c20152b 	jal	a08054ac <sys_statfs>
a080a658:	00000000 	nop
a080a65c:	08202b2c 	j	a080acb0 <test_shell+0xff0>
a080a660:	00000000 	nop
a080a664:	3c02a081 	lui	v0,0xa081
a080a668:	8043f988 	lb	v1,-1656(v0)
a080a66c:	2402006c 	li	v0,108
a080a670:	1462002a 	bne	v1,v0,a080a71c <test_shell+0xa5c>
a080a674:	00000000 	nop
a080a678:	3c02a081 	lui	v0,0xa081
a080a67c:	2442f988 	addiu	v0,v0,-1656
a080a680:	80430001 	lb	v1,1(v0)
a080a684:	24020073 	li	v0,115
a080a688:	14620024 	bne	v1,v0,a080a71c <test_shell+0xa5c>
a080a68c:	00000000 	nop
a080a690:	3c02a081 	lui	v0,0xa081
a080a694:	2442cd88 	addiu	v0,v0,-12920
a080a698:	8c42016c 	lw	v0,364(v0)
a080a69c:	24430001 	addiu	v1,v0,1
a080a6a0:	3c02a081 	lui	v0,0xa081
a080a6a4:	2442cd88 	addiu	v0,v0,-12920
a080a6a8:	ac43016c 	sw	v1,364(v0)
a080a6ac:	3c02a081 	lui	v0,0xa081
a080a6b0:	2442cd88 	addiu	v0,v0,-12920
a080a6b4:	8c42016c 	lw	v0,364(v0)
a080a6b8:	24040001 	li	a0,1
a080a6bc:	00402821 	move	a1,v0
a080a6c0:	0c2013b7 	jal	a0804edc <sys_move_cursor>
a080a6c4:	00000000 	nop
a080a6c8:	3c02a081 	lui	v0,0xa081
a080a6cc:	2442f988 	addiu	v0,v0,-1656
a080a6d0:	80420002 	lb	v0,2(v0)
a080a6d4:	14400007 	bnez	v0,a080a6f4 <test_shell+0xa34>
a080a6d8:	00000000 	nop
a080a6dc:	3c02a081 	lui	v0,0xa081
a080a6e0:	ac40b400 	sw	zero,-19456(v0)
a080a6e4:	3c02a081 	lui	v0,0xa081
a080a6e8:	ac40c7a4 	sw	zero,-14428(v0)
a080a6ec:	082029c3 	j	a080a70c <test_shell+0xa4c>
a080a6f0:	00000000 	nop
a080a6f4:	24040003 	li	a0,3
a080a6f8:	0c2026be 	jal	a0809af8 <path_analyse>
a080a6fc:	00000000 	nop
a080a700:	00401821 	move	v1,v0
a080a704:	3c02a081 	lui	v0,0xa081
a080a708:	ac43b400 	sw	v1,-19456(v0)
a080a70c:	0c20153b 	jal	a08054ec <sys_ls>
a080a710:	00000000 	nop
a080a714:	08202b2c 	j	a080acb0 <test_shell+0xff0>
a080a718:	00000000 	nop
a080a71c:	3c02a081 	lui	v0,0xa081
a080a720:	8043f988 	lb	v1,-1656(v0)
a080a724:	24020063 	li	v0,99
a080a728:	1462002a 	bne	v1,v0,a080a7d4 <test_shell+0xb14>
a080a72c:	00000000 	nop
a080a730:	3c02a081 	lui	v0,0xa081
a080a734:	2442f988 	addiu	v0,v0,-1656
a080a738:	80430001 	lb	v1,1(v0)
a080a73c:	24020064 	li	v0,100
a080a740:	14620024 	bne	v1,v0,a080a7d4 <test_shell+0xb14>
a080a744:	00000000 	nop
a080a748:	3c02a081 	lui	v0,0xa081
a080a74c:	2442cd88 	addiu	v0,v0,-12920
a080a750:	8c42016c 	lw	v0,364(v0)
a080a754:	24430001 	addiu	v1,v0,1
a080a758:	3c02a081 	lui	v0,0xa081
a080a75c:	2442cd88 	addiu	v0,v0,-12920
a080a760:	ac43016c 	sw	v1,364(v0)
a080a764:	3c02a081 	lui	v0,0xa081
a080a768:	2442cd88 	addiu	v0,v0,-12920
a080a76c:	8c42016c 	lw	v0,364(v0)
a080a770:	24040001 	li	a0,1
a080a774:	00402821 	move	a1,v0
a080a778:	0c2013b7 	jal	a0804edc <sys_move_cursor>
a080a77c:	00000000 	nop
a080a780:	3c02a081 	lui	v0,0xa081
a080a784:	2442f988 	addiu	v0,v0,-1656
a080a788:	80420002 	lb	v0,2(v0)
a080a78c:	14400007 	bnez	v0,a080a7ac <test_shell+0xaec>
a080a790:	00000000 	nop
a080a794:	3c02a081 	lui	v0,0xa081
a080a798:	ac40b400 	sw	zero,-19456(v0)
a080a79c:	3c02a081 	lui	v0,0xa081
a080a7a0:	ac40c7a4 	sw	zero,-14428(v0)
a080a7a4:	082029f1 	j	a080a7c4 <test_shell+0xb04>
a080a7a8:	00000000 	nop
a080a7ac:	24040003 	li	a0,3
a080a7b0:	0c2026be 	jal	a0809af8 <path_analyse>
a080a7b4:	00000000 	nop
a080a7b8:	00401821 	move	v1,v0
a080a7bc:	3c02a081 	lui	v0,0xa081
a080a7c0:	ac43b400 	sw	v1,-19456(v0)
a080a7c4:	0c20154b 	jal	a080552c <sys_cd>
a080a7c8:	00000000 	nop
a080a7cc:	08202b2c 	j	a080acb0 <test_shell+0xff0>
a080a7d0:	00000000 	nop
a080a7d4:	3c02a081 	lui	v0,0xa081
a080a7d8:	8043f988 	lb	v1,-1656(v0)
a080a7dc:	2402006d 	li	v0,109
a080a7e0:	1462002e 	bne	v1,v0,a080a89c <test_shell+0xbdc>
a080a7e4:	00000000 	nop
a080a7e8:	3c02a081 	lui	v0,0xa081
a080a7ec:	2442f988 	addiu	v0,v0,-1656
a080a7f0:	80430001 	lb	v1,1(v0)
a080a7f4:	2402006b 	li	v0,107
a080a7f8:	14620028 	bne	v1,v0,a080a89c <test_shell+0xbdc>
a080a7fc:	00000000 	nop
a080a800:	3c02a081 	lui	v0,0xa081
a080a804:	2442f988 	addiu	v0,v0,-1656
a080a808:	80430002 	lb	v1,2(v0)
a080a80c:	24020064 	li	v0,100
a080a810:	14620022 	bne	v1,v0,a080a89c <test_shell+0xbdc>
a080a814:	00000000 	nop
a080a818:	3c02a081 	lui	v0,0xa081
a080a81c:	2442f988 	addiu	v0,v0,-1656
a080a820:	80430003 	lb	v1,3(v0)
a080a824:	24020069 	li	v0,105
a080a828:	1462001c 	bne	v1,v0,a080a89c <test_shell+0xbdc>
a080a82c:	00000000 	nop
a080a830:	3c02a081 	lui	v0,0xa081
a080a834:	2442f988 	addiu	v0,v0,-1656
a080a838:	80430004 	lb	v1,4(v0)
a080a83c:	24020072 	li	v0,114
a080a840:	14620016 	bne	v1,v0,a080a89c <test_shell+0xbdc>
a080a844:	00000000 	nop
a080a848:	3c02a081 	lui	v0,0xa081
a080a84c:	2442cd88 	addiu	v0,v0,-12920
a080a850:	8c42016c 	lw	v0,364(v0)
a080a854:	24430001 	addiu	v1,v0,1
a080a858:	3c02a081 	lui	v0,0xa081
a080a85c:	2442cd88 	addiu	v0,v0,-12920
a080a860:	ac43016c 	sw	v1,364(v0)
a080a864:	3c02a081 	lui	v0,0xa081
a080a868:	2442cd88 	addiu	v0,v0,-12920
a080a86c:	8c42016c 	lw	v0,364(v0)
a080a870:	24040001 	li	a0,1
a080a874:	00402821 	move	a1,v0
a080a878:	0c2013b7 	jal	a0804edc <sys_move_cursor>
a080a87c:	00000000 	nop
a080a880:	24040006 	li	a0,6
a080a884:	0c2026be 	jal	a0809af8 <path_analyse>
a080a888:	00000000 	nop
a080a88c:	0c20155b 	jal	a080556c <sys_mkdir>
a080a890:	00000000 	nop
a080a894:	08202b2c 	j	a080acb0 <test_shell+0xff0>
a080a898:	00000000 	nop
a080a89c:	3c02a081 	lui	v0,0xa081
a080a8a0:	8043f988 	lb	v1,-1656(v0)
a080a8a4:	24020072 	li	v0,114
a080a8a8:	1462004d 	bne	v1,v0,a080a9e0 <test_shell+0xd20>
a080a8ac:	00000000 	nop
a080a8b0:	3c02a081 	lui	v0,0xa081
a080a8b4:	2442f988 	addiu	v0,v0,-1656
a080a8b8:	80430001 	lb	v1,1(v0)
a080a8bc:	2402006d 	li	v0,109
a080a8c0:	14620047 	bne	v1,v0,a080a9e0 <test_shell+0xd20>
a080a8c4:	00000000 	nop
a080a8c8:	3c02a081 	lui	v0,0xa081
a080a8cc:	2442f988 	addiu	v0,v0,-1656
a080a8d0:	80430002 	lb	v1,2(v0)
a080a8d4:	24020064 	li	v0,100
a080a8d8:	14620041 	bne	v1,v0,a080a9e0 <test_shell+0xd20>
a080a8dc:	00000000 	nop
a080a8e0:	3c02a081 	lui	v0,0xa081
a080a8e4:	2442f988 	addiu	v0,v0,-1656
a080a8e8:	80430003 	lb	v1,3(v0)
a080a8ec:	24020069 	li	v0,105
a080a8f0:	1462003b 	bne	v1,v0,a080a9e0 <test_shell+0xd20>
a080a8f4:	00000000 	nop
a080a8f8:	3c02a081 	lui	v0,0xa081
a080a8fc:	2442f988 	addiu	v0,v0,-1656
a080a900:	80430004 	lb	v1,4(v0)
a080a904:	24020072 	li	v0,114
a080a908:	14620035 	bne	v1,v0,a080a9e0 <test_shell+0xd20>
a080a90c:	00000000 	nop
a080a910:	3c02a081 	lui	v0,0xa081
a080a914:	2442cd88 	addiu	v0,v0,-12920
a080a918:	8c42016c 	lw	v0,364(v0)
a080a91c:	24430001 	addiu	v1,v0,1
a080a920:	3c02a081 	lui	v0,0xa081
a080a924:	2442cd88 	addiu	v0,v0,-12920
a080a928:	ac43016c 	sw	v1,364(v0)
a080a92c:	3c02a081 	lui	v0,0xa081
a080a930:	2442cd88 	addiu	v0,v0,-12920
a080a934:	8c42016c 	lw	v0,364(v0)
a080a938:	24040001 	li	a0,1
a080a93c:	00402821 	move	a1,v0
a080a940:	0c2013b7 	jal	a0804edc <sys_move_cursor>
a080a944:	00000000 	nop
a080a948:	24040006 	li	a0,6
a080a94c:	0c2026be 	jal	a0809af8 <path_analyse>
a080a950:	00000000 	nop
a080a954:	00401821 	move	v1,v0
a080a958:	3c02a081 	lui	v0,0xa081
a080a95c:	ac43b400 	sw	v1,-19456(v0)
a080a960:	0c20156b 	jal	a08055ac <sys_rmdir>
a080a964:	00000000 	nop
a080a968:	afc20014 	sw	v0,20(s8)
a080a96c:	8fc20014 	lw	v0,20(s8)
a080a970:	10400007 	beqz	v0,a080a990 <test_shell+0xcd0>
a080a974:	00000000 	nop
a080a978:	3c02a081 	lui	v0,0xa081
a080a97c:	2444b388 	addiu	a0,v0,-19576
a080a980:	0c201903 	jal	a080640c <printf>
a080a984:	00000000 	nop
a080a988:	08202a68 	j	a080a9a0 <test_shell+0xce0>
a080a98c:	00000000 	nop
a080a990:	3c02a081 	lui	v0,0xa081
a080a994:	2444b39c 	addiu	a0,v0,-19556
a080a998:	0c201903 	jal	a080640c <printf>
a080a99c:	00000000 	nop
a080a9a0:	3c02a081 	lui	v0,0xa081
a080a9a4:	2442cd88 	addiu	v0,v0,-12920
a080a9a8:	8c42016c 	lw	v0,364(v0)
a080a9ac:	24430001 	addiu	v1,v0,1
a080a9b0:	3c02a081 	lui	v0,0xa081
a080a9b4:	2442cd88 	addiu	v0,v0,-12920
a080a9b8:	ac43016c 	sw	v1,364(v0)
a080a9bc:	3c02a081 	lui	v0,0xa081
a080a9c0:	2442cd88 	addiu	v0,v0,-12920
a080a9c4:	8c42016c 	lw	v0,364(v0)
a080a9c8:	24040001 	li	a0,1
a080a9cc:	00402821 	move	a1,v0
a080a9d0:	0c2013b7 	jal	a0804edc <sys_move_cursor>
a080a9d4:	00000000 	nop
a080a9d8:	08202b2c 	j	a080acb0 <test_shell+0xff0>
a080a9dc:	00000000 	nop
a080a9e0:	3c02a081 	lui	v0,0xa081
a080a9e4:	8043f988 	lb	v1,-1656(v0)
a080a9e8:	24020074 	li	v0,116
a080a9ec:	1462002e 	bne	v1,v0,a080aaa8 <test_shell+0xde8>
a080a9f0:	00000000 	nop
a080a9f4:	3c02a081 	lui	v0,0xa081
a080a9f8:	2442f988 	addiu	v0,v0,-1656
a080a9fc:	80430001 	lb	v1,1(v0)
a080aa00:	2402006f 	li	v0,111
a080aa04:	14620028 	bne	v1,v0,a080aaa8 <test_shell+0xde8>
a080aa08:	00000000 	nop
a080aa0c:	3c02a081 	lui	v0,0xa081
a080aa10:	2442f988 	addiu	v0,v0,-1656
a080aa14:	80430002 	lb	v1,2(v0)
a080aa18:	24020075 	li	v0,117
a080aa1c:	14620022 	bne	v1,v0,a080aaa8 <test_shell+0xde8>
a080aa20:	00000000 	nop
a080aa24:	3c02a081 	lui	v0,0xa081
a080aa28:	2442f988 	addiu	v0,v0,-1656
a080aa2c:	80430003 	lb	v1,3(v0)
a080aa30:	24020063 	li	v0,99
a080aa34:	1462001c 	bne	v1,v0,a080aaa8 <test_shell+0xde8>
a080aa38:	00000000 	nop
a080aa3c:	3c02a081 	lui	v0,0xa081
a080aa40:	2442f988 	addiu	v0,v0,-1656
a080aa44:	80430004 	lb	v1,4(v0)
a080aa48:	24020068 	li	v0,104
a080aa4c:	14620016 	bne	v1,v0,a080aaa8 <test_shell+0xde8>
a080aa50:	00000000 	nop
a080aa54:	3c02a081 	lui	v0,0xa081
a080aa58:	2442cd88 	addiu	v0,v0,-12920
a080aa5c:	8c42016c 	lw	v0,364(v0)
a080aa60:	24430001 	addiu	v1,v0,1
a080aa64:	3c02a081 	lui	v0,0xa081
a080aa68:	2442cd88 	addiu	v0,v0,-12920
a080aa6c:	ac43016c 	sw	v1,364(v0)
a080aa70:	3c02a081 	lui	v0,0xa081
a080aa74:	2442cd88 	addiu	v0,v0,-12920
a080aa78:	8c42016c 	lw	v0,364(v0)
a080aa7c:	24040001 	li	a0,1
a080aa80:	00402821 	move	a1,v0
a080aa84:	0c2013b7 	jal	a0804edc <sys_move_cursor>
a080aa88:	00000000 	nop
a080aa8c:	24040006 	li	a0,6
a080aa90:	0c2026be 	jal	a0809af8 <path_analyse>
a080aa94:	00000000 	nop
a080aa98:	0c20157b 	jal	a08055ec <sys_touch>
a080aa9c:	00000000 	nop
a080aaa0:	08202b2c 	j	a080acb0 <test_shell+0xff0>
a080aaa4:	00000000 	nop
a080aaa8:	3c02a081 	lui	v0,0xa081
a080aaac:	8043f988 	lb	v1,-1656(v0)
a080aab0:	24020063 	li	v0,99
a080aab4:	14620022 	bne	v1,v0,a080ab40 <test_shell+0xe80>
a080aab8:	00000000 	nop
a080aabc:	3c02a081 	lui	v0,0xa081
a080aac0:	2442f988 	addiu	v0,v0,-1656
a080aac4:	80430001 	lb	v1,1(v0)
a080aac8:	24020061 	li	v0,97
a080aacc:	1462001c 	bne	v1,v0,a080ab40 <test_shell+0xe80>
a080aad0:	00000000 	nop
a080aad4:	3c02a081 	lui	v0,0xa081
a080aad8:	2442f988 	addiu	v0,v0,-1656
a080aadc:	80430002 	lb	v1,2(v0)
a080aae0:	24020074 	li	v0,116
a080aae4:	14620016 	bne	v1,v0,a080ab40 <test_shell+0xe80>
a080aae8:	00000000 	nop
a080aaec:	3c02a081 	lui	v0,0xa081
a080aaf0:	2442cd88 	addiu	v0,v0,-12920
a080aaf4:	8c42016c 	lw	v0,364(v0)
a080aaf8:	24430001 	addiu	v1,v0,1
a080aafc:	3c02a081 	lui	v0,0xa081
a080ab00:	2442cd88 	addiu	v0,v0,-12920
a080ab04:	ac43016c 	sw	v1,364(v0)
a080ab08:	3c02a081 	lui	v0,0xa081
a080ab0c:	2442cd88 	addiu	v0,v0,-12920
a080ab10:	8c42016c 	lw	v0,364(v0)
a080ab14:	24040001 	li	a0,1
a080ab18:	00402821 	move	a1,v0
a080ab1c:	0c2013b7 	jal	a0804edc <sys_move_cursor>
a080ab20:	00000000 	nop
a080ab24:	24040004 	li	a0,4
a080ab28:	0c2026be 	jal	a0809af8 <path_analyse>
a080ab2c:	00000000 	nop
a080ab30:	0c20158b 	jal	a080562c <sys_cat>
a080ab34:	00000000 	nop
a080ab38:	08202b2c 	j	a080acb0 <test_shell+0xff0>
a080ab3c:	00000000 	nop
a080ab40:	3c02a081 	lui	v0,0xa081
a080ab44:	8043f988 	lb	v1,-1656(v0)
a080ab48:	2402002e 	li	v0,46
a080ab4c:	1462004a 	bne	v1,v0,a080ac78 <test_shell+0xfb8>
a080ab50:	00000000 	nop
a080ab54:	3c02a081 	lui	v0,0xa081
a080ab58:	2442f988 	addiu	v0,v0,-1656
a080ab5c:	80430001 	lb	v1,1(v0)
a080ab60:	2402002f 	li	v0,47
a080ab64:	14620044 	bne	v1,v0,a080ac78 <test_shell+0xfb8>
a080ab68:	00000000 	nop
a080ab6c:	3c02a081 	lui	v0,0xa081
a080ab70:	2442cd88 	addiu	v0,v0,-12920
a080ab74:	8c42016c 	lw	v0,364(v0)
a080ab78:	24430001 	addiu	v1,v0,1
a080ab7c:	3c02a081 	lui	v0,0xa081
a080ab80:	2442cd88 	addiu	v0,v0,-12920
a080ab84:	ac43016c 	sw	v1,364(v0)
a080ab88:	3c02a081 	lui	v0,0xa081
a080ab8c:	2442cd88 	addiu	v0,v0,-12920
a080ab90:	8c42016c 	lw	v0,364(v0)
a080ab94:	24040001 	li	a0,1
a080ab98:	00402821 	move	a1,v0
a080ab9c:	0c2013b7 	jal	a0804edc <sys_move_cursor>
a080aba0:	00000000 	nop
a080aba4:	24020001 	li	v0,1
a080aba8:	afc20010 	sw	v0,16(s8)
a080abac:	8fc20010 	lw	v0,16(s8)
a080abb0:	24420001 	addiu	v0,v0,1
a080abb4:	afc20010 	sw	v0,16(s8)
a080abb8:	8fc30010 	lw	v1,16(s8)
a080abbc:	3c02a081 	lui	v0,0xa081
a080abc0:	2442f988 	addiu	v0,v0,-1656
a080abc4:	00621021 	addu	v0,v1,v0
a080abc8:	80430000 	lb	v1,0(v0)
a080abcc:	24020020 	li	v0,32
a080abd0:	1462fff6 	bne	v1,v0,a080abac <test_shell+0xeec>
a080abd4:	00000000 	nop
a080abd8:	8fc30010 	lw	v1,16(s8)
a080abdc:	3c02a081 	lui	v0,0xa081
a080abe0:	2442f988 	addiu	v0,v0,-1656
a080abe4:	00621021 	addu	v0,v1,v0
a080abe8:	a0400000 	sb	zero,0(v0)
a080abec:	24040002 	li	a0,2
a080abf0:	0c2026be 	jal	a0809af8 <path_analyse>
a080abf4:	00000000 	nop
a080abf8:	3c02a081 	lui	v0,0xa081
a080abfc:	ac40cd70 	sw	zero,-12944(v0)
a080ac00:	08202b10 	j	a080ac40 <test_shell+0xf80>
a080ac04:	00000000 	nop
a080ac08:	3c02a081 	lui	v0,0xa081
a080ac0c:	8c42cd70 	lw	v0,-12944(v0)
a080ac10:	00021840 	sll	v1,v0,0x1
a080ac14:	00031080 	sll	v0,v1,0x2
a080ac18:	00622021 	addu	a0,v1,v0
a080ac1c:	8fc30010 	lw	v1,16(s8)
a080ac20:	3c02a081 	lui	v0,0xa081
a080ac24:	2442f988 	addiu	v0,v0,-1656
a080ac28:	00621021 	addu	v0,v1,v0
a080ac2c:	80420000 	lb	v0,0(v0)
a080ac30:	00821021 	addu	v0,a0,v0
a080ac34:	2443ffd0 	addiu	v1,v0,-48
a080ac38:	3c02a081 	lui	v0,0xa081
a080ac3c:	ac43cd70 	sw	v1,-12944(v0)
a080ac40:	8fc20010 	lw	v0,16(s8)
a080ac44:	24420001 	addiu	v0,v0,1
a080ac48:	afc20010 	sw	v0,16(s8)
a080ac4c:	8fc30010 	lw	v1,16(s8)
a080ac50:	3c02a081 	lui	v0,0xa081
a080ac54:	2442f988 	addiu	v0,v0,-1656
a080ac58:	00621021 	addu	v0,v1,v0
a080ac5c:	80420000 	lb	v0,0(v0)
a080ac60:	1440ffe9 	bnez	v0,a080ac08 <test_shell+0xf48>
a080ac64:	00000000 	nop
a080ac68:	0c2015e7 	jal	a080579c <sys_launch>
a080ac6c:	00000000 	nop
a080ac70:	08202b2c 	j	a080acb0 <test_shell+0xff0>
a080ac74:	00000000 	nop
a080ac78:	3c02a081 	lui	v0,0xa081
a080ac7c:	2442cd88 	addiu	v0,v0,-12920
a080ac80:	8c42016c 	lw	v0,364(v0)
a080ac84:	24430001 	addiu	v1,v0,1
a080ac88:	3c02a081 	lui	v0,0xa081
a080ac8c:	2442cd88 	addiu	v0,v0,-12920
a080ac90:	ac43016c 	sw	v1,364(v0)
a080ac94:	3c02a081 	lui	v0,0xa081
a080ac98:	2442cd88 	addiu	v0,v0,-12920
a080ac9c:	8c42016c 	lw	v0,364(v0)
a080aca0:	24040001 	li	a0,1
a080aca4:	00402821 	move	a1,v0
a080aca8:	0c2013b7 	jal	a0804edc <sys_move_cursor>
a080acac:	00000000 	nop
a080acb0:	afc00034 	sw	zero,52(s8)
a080acb4:	3c02a081 	lui	v0,0xa081
a080acb8:	2442cd88 	addiu	v0,v0,-12920
a080acbc:	8c42016c 	lw	v0,364(v0)
a080acc0:	24040001 	li	a0,1
a080acc4:	00402821 	move	a1,v0
a080acc8:	0c2013b7 	jal	a0804edc <sys_move_cursor>
a080accc:	00000000 	nop
a080acd0:	0c202672 	jal	a08099c8 <print_localhost>
a080acd4:	00000000 	nop
a080acd8:	08202754 	j	a0809d50 <test_shell+0x90>
a080acdc:	00000000 	nop
	...

a080ace8 <.pic.sdwrite>:
a080ace8:	3c19a081 	lui	t9,0xa081
a080acec:	2739acf0 	addiu	t9,t9,-21264

a080acf0 <sdwrite>:
a080acf0:	27bdffd8 	addiu	sp,sp,-40
a080acf4:	afbf0024 	sw	ra,36(sp)
a080acf8:	afbe0020 	sw	s8,32(sp)
a080acfc:	03a0f021 	move	s8,sp
a080ad00:	afbc0010 	sw	gp,16(sp)
a080ad04:	afc40028 	sw	a0,40(s8)
a080ad08:	afc5002c 	sw	a1,44(s8)
a080ad0c:	afc60030 	sw	a2,48(s8)
a080ad10:	3c028001 	lui	v0,0x8001
a080ad14:	34421080 	ori	v0,v0,0x1080
a080ad18:	afc20018 	sw	v0,24(s8)
a080ad1c:	8fc20028 	lw	v0,40(s8)
a080ad20:	8fc3002c 	lw	v1,44(s8)
a080ad24:	8fc60030 	lw	a2,48(s8)
a080ad28:	8fd90018 	lw	t9,24(s8)
a080ad2c:	00402021 	move	a0,v0
a080ad30:	00602821 	move	a1,v1
a080ad34:	0320f809 	jalr	t9
a080ad38:	00000000 	nop
a080ad3c:	8fdc0010 	lw	gp,16(s8)
a080ad40:	8fc20030 	lw	v0,48(s8)
a080ad44:	03c0e821 	move	sp,s8
a080ad48:	8fbf0024 	lw	ra,36(sp)
a080ad4c:	8fbe0020 	lw	s8,32(sp)
a080ad50:	27bd0028 	addiu	sp,sp,40
a080ad54:	03e00008 	jr	ra
a080ad58:	00000000 	nop
	...

a080ad68 <.pic.sdread>:
a080ad68:	3c19a081 	lui	t9,0xa081
a080ad6c:	2739ad70 	addiu	t9,t9,-21136

a080ad70 <sdread>:
a080ad70:	27bdffd8 	addiu	sp,sp,-40
a080ad74:	afbf0024 	sw	ra,36(sp)
a080ad78:	afbe0020 	sw	s8,32(sp)
a080ad7c:	03a0f021 	move	s8,sp
a080ad80:	afbc0010 	sw	gp,16(sp)
a080ad84:	afc40028 	sw	a0,40(s8)
a080ad88:	afc5002c 	sw	a1,44(s8)
a080ad8c:	afc60030 	sw	a2,48(s8)
a080ad90:	3c028001 	lui	v0,0x8001
a080ad94:	34421000 	ori	v0,v0,0x1000
a080ad98:	afc20018 	sw	v0,24(s8)
a080ad9c:	8fd90018 	lw	t9,24(s8)
a080ada0:	8fc40028 	lw	a0,40(s8)
a080ada4:	8fc5002c 	lw	a1,44(s8)
a080ada8:	8fc60030 	lw	a2,48(s8)
a080adac:	0320f809 	jalr	t9
a080adb0:	00000000 	nop
a080adb4:	8fdc0010 	lw	gp,16(s8)
a080adb8:	8fc20030 	lw	v0,48(s8)
a080adbc:	03c0e821 	move	sp,s8
a080adc0:	8fbf0024 	lw	ra,36(sp)
a080adc4:	8fbe0020 	lw	s8,32(sp)
a080adc8:	27bd0028 	addiu	sp,sp,40
a080adcc:	03e00008 	jr	ra
a080add0:	00000000 	nop
	...
a080ade0:	255b6325 	addiu	k1,t2,25381
a080ade4:	64253b64 	daddiu	a1,at,15204
a080ade8:	00000048 	0x48
a080adec:	325b6325 	andi	k1,s2,0x6325
a080adf0:	0000004a 	0x4a
a080adf4:	3f5b6325 	0x3f5b6325
a080adf8:	006c3532 	tlt	v1,t4,0xd4
a080adfc:	00000000 	nop
a080ae00:	69636572 	ldl	v1,25970(t3)
a080ae04:	20657665 	addi	a1,v1,30309
a080ae08:	66667562 	daddiu	a2,s3,30050
a080ae0c:	61207265 	daddi	zero,t1,29285
a080ae10:	6d206464 	ldr	zero,25700(t1)
a080ae14:	3e2d6361 	0x3e2d6361
a080ae18:	64646164 	daddiu	a0,v1,24932
a080ae1c:	78303d72 	0x78303d72
a080ae20:	00207825 	move	t7,at
a080ae24:	2d63616d 	sltiu	v1,t3,24941
a080ae28:	6461643e 	daddiu	at,v1,25662
a080ae2c:	705f7264 	0x705f7264
a080ae30:	303d7968 	andi	sp,at,0x7968
a080ae34:	20782578 	addi	t8,v1,9592
a080ae38:	00000000 	nop
a080ae3c:	69636572 	ldl	v1,25970(t3)
a080ae40:	20657665 	addi	a1,v1,30309
a080ae44:	63736964 	daddi	s3,k1,26980
a080ae48:	61206272 	daddi	zero,t1,25202
a080ae4c:	6d206464 	ldr	zero,25700(t1)
a080ae50:	3e2d6361 	0x3e2d6361
a080ae54:	705f6472 	0x705f6472
a080ae58:	303d7968 	andi	sp,at,0x7968
a080ae5c:	0a782578 	j	a9e095e0 <_gp+0x95f6160>
a080ae60:	00000000 	nop

a080ae64 <C.9.1201>:
a080ae64:	b57b5500 0000f77d 00000000 495b203e     .U{.}.......> [I
a080ae74:	5d54494e 746e4920 75727265 70207470     NIT] Interrupt p
a080ae84:	65636f72 6e697373 6e692067 61697469     rocessing initia
a080ae94:	617a696c 6e6f6974 63757320 64656563     lization succeed
a080aea4:	0a2e6465 00000000 495b203e 5d54494e     ed......> [INIT]
a080aeb4:	72695620 6c617574 6d656d20 2079726f      Virtual memory 
a080aec4:	74696e69 696c6169 6974617a 73206e6f     initialization s
a080aed4:	65636375 64656465 00000a2e 495b203e     ucceeded....> [I
a080aee4:	5d54494e 73795320 206d6574 6c6c6163     NIT] System call
a080aef4:	696e6920 6c616974 64657a69 63757320      initialized suc
a080af04:	73736563 6c6c7566 000a2e79 495b203e     cessfully...> [I
a080af14:	5d54494e 42435020 696e6920 6c616974     NIT] PCB initial
a080af24:	74617a69 206e6f69 63637573 65646565     ization succeede
a080af34:	000a2e64 00000000 00000000 6f6d656d     d...........memo
a080af44:	63207972 6c666e6f 21746369 00002121     ry conflict!!!..
a080af54:	21212121 21212121 00000021 4f52505b     !!!!!!!!!...[PRO
a080af64:	53534543 42415420 005d454c 5d64255b     CESS TABLE].[%d]
a080af74:	44495020 25203a20 53202064 75746174      PID : %d  Statu
a080af84:	203a2073 434f4c42 0044454b 5d64255b     s : BLOCKED.[%d]
a080af94:	44495020 25203a20 53202064 75746174      PID : %d  Statu
a080afa4:	203a2073 4e4e5552 00474e49 5d64255b     s : RUNNING.[%d]
a080afb4:	44495020 25203a20 53202064 75746174      PID : %d  Statu
a080afc4:	203a2073 44414552 00000059 656c6946     s : READY...File
a080afd4:	73795320 206d6574 20736168 65726c61      System has alre
a080afe4:	20796461 73697865 21646574 00000000     ady existed!....
a080aff4:	5d53465b 61745320 69207472 6974696e     [FS] Start initi
a080b004:	7a696c61 20676e69 656c6966 73797320     alizing file sys
a080b014:	216d6574 00000000 5d53465b 74655320     tem!....[FS] Set
a080b024:	676e6974 70757320 6c627265 2e6b636f     ting superblock.
a080b034:	00002e2e 5d53465b 74655320 676e6974     ....[FS] Setting
a080b044:	6f6e6920 6d2d6564 2e2e7061 0000002e      inode-map......
a080b054:	5d53465b 74655320 676e6974 6f6c6220     [FS] Setting blo
a080b064:	6d2d6b63 2e2e7061 0000002e 5d53465b     ck-map......[FS]
a080b074:	74655320 676e6974 6f6f7220 2e2e2e74      Setting root...
a080b084:	00000000 5d53465b 696e4920 6c616974     ....[FS] Initial
a080b094:	6e697a69 69662067 7320656c 65747379     izing file syste
a080b0a4:	6966206d 6873696e 00216465 6967614d     m finished!.Magi
a080b0b4:	756e2063 7265626d 7830203a 00007825     c number: 0x%x..
a080b0c4:	64657355 6f6c6220 3a736b63 2f642520     Used blocks: %d/
a080b0d4:	202e6425 72617453 6c622074 3a6b636f     %d. Start block:
a080b0e4:	00642520 646f6e49 616d2065 666f2070      %d.Inode map of
a080b0f4:	74657366 6425203a 634f202e 69707563     fset: %d. Occupi
a080b104:	62206465 6b636f6c 6425203a 7355202e     ed block: %d. Us
a080b114:	203a6465 252f6425 00000064 636f6c42     ed: %d/%d...Bloc
a080b124:	616d206b 666f2070 74657366 6425203a     k map offset: %d
a080b134:	634f202e 69707563 62206465 6b636f6c     . Occupied block
a080b144:	6425203a 00000000 646f6e49 666f2065     : %d....Inode of
a080b154:	74657366 6425203a 634f202e 69707563     fset: %d. Occupi
a080b164:	62206465 6b636f6c 6425203a 00000000     ed block: %d....
a080b174:	61746144 66666f20 3a746573 2e642520     Data offset: %d.
a080b184:	63634f20 65697075 6c622064 3a6b636f      Occupied block:
a080b194:	00642520 646f6e49 6e652065 20797274      %d.Inode entry 
a080b1a4:	657a6973 6425203a 44202e42 63657269     size: %dB. Direc
a080b1b4:	79726f74 746e6520 73207972 3a657a69     tory entry size:
a080b1c4:	42642520 0000002e 73206f4e 20686375      %dB....No such 
a080b1d4:	65726964 726f7463 00002179 00006325     directory!..%c..
a080b1e4:	00202020 61657243 53206574 65636375        .Create Succe
a080b1f4:	00217373 73206f4e 20686375 656c6966     ss!.No such file
a080b204:	00000021 00000000 00000000 4345525b     !...........[REC
a080b214:	41542056 205d4b53 72617473 65722074     V TASK] start re
a080b224:	203a7663 20202020 20202020 20202020     cv:             
a080b234:	20202020 00202020 6e616c70 00000065            .plane...
a080b244:	4d5b203e 49204341 2054494e 4b534154     > [MAC INIT TASK
a080b254:	6157205d 6e697469 6f662067 414d2072     ] Waiting for MA
a080b264:	6e692043 61697469 617a696c 6e6f6974     C initialization
a080b274:	000a2e20 4d5b203e 49204341 2054494e      ...> [MAC INIT 
a080b284:	4b534154 414d205d 6e692043 61697469     TASK] MAC initia
a080b294:	617a696c 6e6f6974 63757320 64656563     lization succeed
a080b2a4:	202e6465 20202020 20202020 000a2020     ed.           ..
	...
a080b2c0:	6c656873 0000006c 6e776f64 64616f6c     shell...download
a080b2d0:	7361745f 0000006b 5f63616d 74696e69     _task...mac_init
a080b2e0:	7361745f 0000006b 6f72203e 5540746f     _task...> root@U
a080b2f0:	5f534143 003a534f 0000002f 00006325     CAS_OS:./...%c..
a080b300:	00002024 2d2d2d2d 2d2d2d2d 2d2d2d2d     $ ..------------
a080b310:	2d2d2d2d 2043202d 204d204f 2041204d     ----- C O M M A 
a080b320:	2044204e 2d2d2d2d 2d2d2d2d 2d2d2d2d     N D ------------
a080b330:	2d2d2d2d 0000002d 63657845 6f727020     -----...Exec pro
a080b340:	73736563 5d64255b 2e732520 00000000     cess[%d] %s.....
a080b350:	5252455b 205d524f 61766e49 2064696c     [ERROR] Invalid 
a080b360:	6b736154 00000021 636f7270 5b737365     Task!...process[
a080b370:	205d6425 20736168 6e656562 6c696b20     %d] has been kil
a080b380:	2e64656c 00000000 73206f4e 20686375     led.....No such 
a080b390:	65726964 726f7463 00002179 656c6544     directory!..Dele
a080b3a0:	53206574 65636375 00217373 00000000     te Success!.....
a080b3b0:	fffffffe 00000000 00000000 00000000     ................
	...
