
plane:     file format elf32-tradlittlemips


Disassembly of section .text:

40000000 <_start>:
40000000:	27bdffe0 	addiu	sp,sp,-32
40000004:	afbf001c 	sw	ra,28(sp)
40000008:	afbe0018 	sw	s8,24(sp)
4000000c:	03a0f021 	move	s8,sp
40000010:	afc40020 	sw	a0,32(s8)
40000014:	24020016 	li	v0,22
40000018:	afc20014 	sw	v0,20(s8)
4000001c:	8fc20020 	lw	v0,32(s8)
40000020:	afc20010 	sw	v0,16(s8)
40000024:	2402003c 	li	v0,60
40000028:	afc20014 	sw	v0,20(s8)
4000002c:	0800003e 	j	400000f8 <_start+0xf8>
40000030:	00000000 	nop
40000034:	8fc40014 	lw	a0,20(s8)
40000038:	8fc50010 	lw	a1,16(s8)
4000003c:	0c0002aa 	jal	40000aa8 <sys_move_cursor>
40000040:	00000000 	nop
40000044:	3c024000 	lui	v0,0x4000
40000048:	24440af0 	addiu	a0,v0,2800
4000004c:	3c024000 	lui	v0,0x4000
40000050:	24450b34 	addiu	a1,v0,2868
40000054:	0c000275 	jal	400009d4 <printf>
40000058:	00000000 	nop
4000005c:	8fc20010 	lw	v0,16(s8)
40000060:	24420001 	addiu	v0,v0,1
40000064:	8fc40014 	lw	a0,20(s8)
40000068:	00402821 	move	a1,v0
4000006c:	0c0002aa 	jal	40000aa8 <sys_move_cursor>
40000070:	00000000 	nop
40000074:	3c024000 	lui	v0,0x4000
40000078:	24440af0 	addiu	a0,v0,2800
4000007c:	3c024000 	lui	v0,0x4000
40000080:	24450b48 	addiu	a1,v0,2888
40000084:	0c000275 	jal	400009d4 <printf>
40000088:	00000000 	nop
4000008c:	8fc20010 	lw	v0,16(s8)
40000090:	24420002 	addiu	v0,v0,2
40000094:	8fc40014 	lw	a0,20(s8)
40000098:	00402821 	move	a1,v0
4000009c:	0c0002aa 	jal	40000aa8 <sys_move_cursor>
400000a0:	00000000 	nop
400000a4:	3c024000 	lui	v0,0x4000
400000a8:	24440af0 	addiu	a0,v0,2800
400000ac:	3c024000 	lui	v0,0x4000
400000b0:	24450b5c 	addiu	a1,v0,2908
400000b4:	0c000275 	jal	400009d4 <printf>
400000b8:	00000000 	nop
400000bc:	8fc20010 	lw	v0,16(s8)
400000c0:	24420003 	addiu	v0,v0,3
400000c4:	8fc40014 	lw	a0,20(s8)
400000c8:	00402821 	move	a1,v0
400000cc:	0c0002aa 	jal	40000aa8 <sys_move_cursor>
400000d0:	00000000 	nop
400000d4:	3c024000 	lui	v0,0x4000
400000d8:	24440af0 	addiu	a0,v0,2800
400000dc:	3c024000 	lui	v0,0x4000
400000e0:	24450b70 	addiu	a1,v0,2928
400000e4:	0c000275 	jal	400009d4 <printf>
400000e8:	00000000 	nop
400000ec:	8fc20014 	lw	v0,20(s8)
400000f0:	2442ffff 	addiu	v0,v0,-1
400000f4:	afc20014 	sw	v0,20(s8)
400000f8:	8fc20014 	lw	v0,20(s8)
400000fc:	1c40ffcd 	bgtz	v0,40000034 <_start+0x34>
40000100:	00000000 	nop
40000104:	24040001 	li	a0,1
40000108:	8fc50010 	lw	a1,16(s8)
4000010c:	0c0002aa 	jal	40000aa8 <sys_move_cursor>
40000110:	00000000 	nop
40000114:	3c024000 	lui	v0,0x4000
40000118:	24440af0 	addiu	a0,v0,2800
4000011c:	3c024000 	lui	v0,0x4000
40000120:	24450b20 	addiu	a1,v0,2848
40000124:	0c000275 	jal	400009d4 <printf>
40000128:	00000000 	nop
4000012c:	8fc20010 	lw	v0,16(s8)
40000130:	24420001 	addiu	v0,v0,1
40000134:	24040001 	li	a0,1
40000138:	00402821 	move	a1,v0
4000013c:	0c0002aa 	jal	40000aa8 <sys_move_cursor>
40000140:	00000000 	nop
40000144:	3c024000 	lui	v0,0x4000
40000148:	24440af0 	addiu	a0,v0,2800
4000014c:	3c024000 	lui	v0,0x4000
40000150:	24450b20 	addiu	a1,v0,2848
40000154:	0c000275 	jal	400009d4 <printf>
40000158:	00000000 	nop
4000015c:	8fc20010 	lw	v0,16(s8)
40000160:	24420002 	addiu	v0,v0,2
40000164:	24040001 	li	a0,1
40000168:	00402821 	move	a1,v0
4000016c:	0c0002aa 	jal	40000aa8 <sys_move_cursor>
40000170:	00000000 	nop
40000174:	3c024000 	lui	v0,0x4000
40000178:	24440af0 	addiu	a0,v0,2800
4000017c:	3c024000 	lui	v0,0x4000
40000180:	24450b20 	addiu	a1,v0,2848
40000184:	0c000275 	jal	400009d4 <printf>
40000188:	00000000 	nop
4000018c:	8fc20010 	lw	v0,16(s8)
40000190:	24420003 	addiu	v0,v0,3
40000194:	24040001 	li	a0,1
40000198:	00402821 	move	a1,v0
4000019c:	0c0002aa 	jal	40000aa8 <sys_move_cursor>
400001a0:	00000000 	nop
400001a4:	3c024000 	lui	v0,0x4000
400001a8:	24440af0 	addiu	a0,v0,2800
400001ac:	3c024000 	lui	v0,0x4000
400001b0:	24450b20 	addiu	a1,v0,2848
400001b4:	0c000275 	jal	400009d4 <printf>
400001b8:	00000000 	nop
400001bc:	08000009 	j	40000024 <_start+0x24>
400001c0:	00000000 	nop
	...

400001d0 <invoke_syscall>:
400001d0:	0000000c 	syscall
400001d4:	03e00008 	jr	ra
400001d8:	00000000 	nop
400001dc:	00000000 	nop

400001e0 <mini_strlen>:
400001e0:	27bdfff0 	addiu	sp,sp,-16
400001e4:	afbe000c 	sw	s8,12(sp)
400001e8:	03a0f021 	move	s8,sp
400001ec:	afc40010 	sw	a0,16(s8)
400001f0:	afc00000 	sw	zero,0(s8)
400001f4:	08000082 	j	40000208 <mini_strlen+0x28>
400001f8:	00000000 	nop
400001fc:	8fc20000 	lw	v0,0(s8)
40000200:	24420001 	addiu	v0,v0,1
40000204:	afc20000 	sw	v0,0(s8)
40000208:	8fc30010 	lw	v1,16(s8)
4000020c:	8fc20000 	lw	v0,0(s8)
40000210:	00621021 	addu	v0,v1,v0
40000214:	80420000 	lb	v0,0(v0)
40000218:	1440fff8 	bnez	v0,400001fc <mini_strlen+0x1c>
4000021c:	00000000 	nop
40000220:	8fc20000 	lw	v0,0(s8)
40000224:	03c0e821 	move	sp,s8
40000228:	8fbe000c 	lw	s8,12(sp)
4000022c:	27bd0010 	addiu	sp,sp,16
40000230:	03e00008 	jr	ra
40000234:	00000000 	nop

40000238 <mini_itoa>:
40000238:	27bdffc8 	addiu	sp,sp,-56
4000023c:	afbe0034 	sw	s8,52(sp)
40000240:	03a0f021 	move	s8,sp
40000244:	afc40038 	sw	a0,56(s8)
40000248:	afc5003c 	sw	a1,60(s8)
4000024c:	afc60040 	sw	a2,64(s8)
40000250:	afc70044 	sw	a3,68(s8)
40000254:	8fc20048 	lw	v0,72(s8)
40000258:	afc20014 	sw	v0,20(s8)
4000025c:	afc00010 	sw	zero,16(s8)
40000260:	8fc2003c 	lw	v0,60(s8)
40000264:	2c420011 	sltiu	v0,v0,17
40000268:	14400004 	bnez	v0,4000027c <mini_itoa+0x44>
4000026c:	00000000 	nop
40000270:	afc00020 	sw	zero,32(s8)
40000274:	08000128 	j	400004a0 <mini_itoa+0x268>
40000278:	00000000 	nop
4000027c:	8fc20038 	lw	v0,56(s8)
40000280:	04410009 	bgez	v0,400002a8 <mini_itoa+0x70>
40000284:	00000000 	nop
40000288:	8fc20044 	lw	v0,68(s8)
4000028c:	14400006 	bnez	v0,400002a8 <mini_itoa+0x70>
40000290:	00000000 	nop
40000294:	24020001 	li	v0,1
40000298:	afc20010 	sw	v0,16(s8)
4000029c:	8fc20038 	lw	v0,56(s8)
400002a0:	00021023 	negu	v0,v0
400002a4:	afc20038 	sw	v0,56(s8)
400002a8:	8fc30038 	lw	v1,56(s8)
400002ac:	8fc2003c 	lw	v0,60(s8)
400002b0:	0062001b 	divu	zero,v1,v0
400002b4:	004001f4 	teq	v0,zero,0x7
400002b8:	00001010 	mfhi	v0
400002bc:	afc20004 	sw	v0,4(s8)
400002c0:	8fc20004 	lw	v0,4(s8)
400002c4:	2842000a 	slti	v0,v0,10
400002c8:	1040000a 	beqz	v0,400002f4 <mini_itoa+0xbc>
400002cc:	00000000 	nop
400002d0:	8fc20004 	lw	v0,4(s8)
400002d4:	304200ff 	andi	v0,v0,0xff
400002d8:	24420030 	addiu	v0,v0,48
400002dc:	304200ff 	andi	v0,v0,0xff
400002e0:	00021600 	sll	v0,v0,0x18
400002e4:	00021603 	sra	v0,v0,0x18
400002e8:	afc2001c 	sw	v0,28(s8)
400002ec:	080000d0 	j	40000340 <mini_itoa+0x108>
400002f0:	00000000 	nop
400002f4:	8fc20040 	lw	v0,64(s8)
400002f8:	10400005 	beqz	v0,40000310 <mini_itoa+0xd8>
400002fc:	00000000 	nop
40000300:	24020041 	li	v0,65
40000304:	afc20018 	sw	v0,24(s8)
40000308:	080000c6 	j	40000318 <mini_itoa+0xe0>
4000030c:	00000000 	nop
40000310:	24030061 	li	v1,97
40000314:	afc30018 	sw	v1,24(s8)
40000318:	8fc20004 	lw	v0,4(s8)
4000031c:	304200ff 	andi	v0,v0,0xff
40000320:	8fc40018 	lw	a0,24(s8)
40000324:	00821021 	addu	v0,a0,v0
40000328:	304200ff 	andi	v0,v0,0xff
4000032c:	2442fff6 	addiu	v0,v0,-10
40000330:	304200ff 	andi	v0,v0,0xff
40000334:	00021600 	sll	v0,v0,0x18
40000338:	00021603 	sra	v0,v0,0x18
4000033c:	afc2001c 	sw	v0,28(s8)
40000340:	8fc20014 	lw	v0,20(s8)
40000344:	8fc3001c 	lw	v1,28(s8)
40000348:	a0430000 	sb	v1,0(v0)
4000034c:	8fc20014 	lw	v0,20(s8)
40000350:	24420001 	addiu	v0,v0,1
40000354:	afc20014 	sw	v0,20(s8)
40000358:	8fc30038 	lw	v1,56(s8)
4000035c:	8fc2003c 	lw	v0,60(s8)
40000360:	0062001b 	divu	zero,v1,v0
40000364:	004001f4 	teq	v0,zero,0x7
40000368:	00001012 	mflo	v0
4000036c:	afc20038 	sw	v0,56(s8)
40000370:	8fc20038 	lw	v0,56(s8)
40000374:	1c40ffcc 	bgtz	v0,400002a8 <mini_itoa+0x70>
40000378:	00000000 	nop
4000037c:	8fc20014 	lw	v0,20(s8)
40000380:	8fc30048 	lw	v1,72(s8)
40000384:	00431023 	subu	v0,v0,v1
40000388:	afc2000c 	sw	v0,12(s8)
4000038c:	080000ee 	j	400003b8 <mini_itoa+0x180>
40000390:	00000000 	nop
40000394:	8fc30014 	lw	v1,20(s8)
40000398:	24020030 	li	v0,48
4000039c:	a0620000 	sb	v0,0(v1)
400003a0:	8fc20014 	lw	v0,20(s8)
400003a4:	24420001 	addiu	v0,v0,1
400003a8:	afc20014 	sw	v0,20(s8)
400003ac:	8fc2000c 	lw	v0,12(s8)
400003b0:	24420001 	addiu	v0,v0,1
400003b4:	afc2000c 	sw	v0,12(s8)
400003b8:	8fc2000c 	lw	v0,12(s8)
400003bc:	8fc3004c 	lw	v1,76(s8)
400003c0:	0043102b 	sltu	v0,v0,v1
400003c4:	1440fff3 	bnez	v0,40000394 <mini_itoa+0x15c>
400003c8:	00000000 	nop
400003cc:	8fc20010 	lw	v0,16(s8)
400003d0:	10400007 	beqz	v0,400003f0 <mini_itoa+0x1b8>
400003d4:	00000000 	nop
400003d8:	8fc30014 	lw	v1,20(s8)
400003dc:	2402002d 	li	v0,45
400003e0:	a0620000 	sb	v0,0(v1)
400003e4:	8fc20014 	lw	v0,20(s8)
400003e8:	24420001 	addiu	v0,v0,1
400003ec:	afc20014 	sw	v0,20(s8)
400003f0:	8fc20014 	lw	v0,20(s8)
400003f4:	a0400000 	sb	zero,0(v0)
400003f8:	8fc30014 	lw	v1,20(s8)
400003fc:	8fc20048 	lw	v0,72(s8)
40000400:	00621023 	subu	v0,v1,v0
40000404:	afc20008 	sw	v0,8(s8)
40000408:	afc0000c 	sw	zero,12(s8)
4000040c:	08000120 	j	40000480 <mini_itoa+0x248>
40000410:	00000000 	nop
40000414:	8fc30048 	lw	v1,72(s8)
40000418:	8fc2000c 	lw	v0,12(s8)
4000041c:	00621021 	addu	v0,v1,v0
40000420:	90420000 	lbu	v0,0(v0)
40000424:	a3c20000 	sb	v0,0(s8)
40000428:	8fc30048 	lw	v1,72(s8)
4000042c:	8fc2000c 	lw	v0,12(s8)
40000430:	00622021 	addu	a0,v1,v0
40000434:	8fc30008 	lw	v1,8(s8)
40000438:	8fc2000c 	lw	v0,12(s8)
4000043c:	00621023 	subu	v0,v1,v0
40000440:	2443ffff 	addiu	v1,v0,-1
40000444:	8fc20048 	lw	v0,72(s8)
40000448:	00431021 	addu	v0,v0,v1
4000044c:	80420000 	lb	v0,0(v0)
40000450:	a0820000 	sb	v0,0(a0)
40000454:	8fc30008 	lw	v1,8(s8)
40000458:	8fc2000c 	lw	v0,12(s8)
4000045c:	00621023 	subu	v0,v1,v0
40000460:	2443ffff 	addiu	v1,v0,-1
40000464:	8fc20048 	lw	v0,72(s8)
40000468:	00431821 	addu	v1,v0,v1
4000046c:	93c20000 	lbu	v0,0(s8)
40000470:	a0620000 	sb	v0,0(v1)
40000474:	8fc2000c 	lw	v0,12(s8)
40000478:	24420001 	addiu	v0,v0,1
4000047c:	afc2000c 	sw	v0,12(s8)
40000480:	8fc20008 	lw	v0,8(s8)
40000484:	00021842 	srl	v1,v0,0x1
40000488:	8fc2000c 	lw	v0,12(s8)
4000048c:	0043102b 	sltu	v0,v0,v1
40000490:	1440ffe0 	bnez	v0,40000414 <mini_itoa+0x1dc>
40000494:	00000000 	nop
40000498:	8fc20008 	lw	v0,8(s8)
4000049c:	afc20020 	sw	v0,32(s8)
400004a0:	8fc20020 	lw	v0,32(s8)
400004a4:	03c0e821 	move	sp,s8
400004a8:	8fbe0034 	lw	s8,52(sp)
400004ac:	27bd0038 	addiu	sp,sp,56
400004b0:	03e00008 	jr	ra
400004b4:	00000000 	nop

400004b8 <_putc>:
400004b8:	27bdfff0 	addiu	sp,sp,-16
400004bc:	afbe000c 	sw	s8,12(sp)
400004c0:	03a0f021 	move	s8,sp
400004c4:	afc40010 	sw	a0,16(s8)
400004c8:	afc50014 	sw	a1,20(s8)
400004cc:	8fc20014 	lw	v0,20(s8)
400004d0:	8c420004 	lw	v0,4(v0)
400004d4:	00401821 	move	v1,v0
400004d8:	8fc20014 	lw	v0,20(s8)
400004dc:	8c420000 	lw	v0,0(v0)
400004e0:	00621023 	subu	v0,v1,v0
400004e4:	24420001 	addiu	v0,v0,1
400004e8:	00401821 	move	v1,v0
400004ec:	8fc20014 	lw	v0,20(s8)
400004f0:	8c420008 	lw	v0,8(v0)
400004f4:	0062102b 	sltu	v0,v1,v0
400004f8:	14400004 	bnez	v0,4000050c <_putc+0x54>
400004fc:	00000000 	nop
40000500:	afc00000 	sw	zero,0(s8)
40000504:	08000151 	j	40000544 <_putc+0x8c>
40000508:	00000000 	nop
4000050c:	8fc20014 	lw	v0,20(s8)
40000510:	8c430004 	lw	v1,4(v0)
40000514:	8fc20010 	lw	v0,16(s8)
40000518:	00021600 	sll	v0,v0,0x18
4000051c:	00021603 	sra	v0,v0,0x18
40000520:	a0620000 	sb	v0,0(v1)
40000524:	24630001 	addiu	v1,v1,1
40000528:	8fc20014 	lw	v0,20(s8)
4000052c:	ac430004 	sw	v1,4(v0)
40000530:	8fc20014 	lw	v0,20(s8)
40000534:	8c420004 	lw	v0,4(v0)
40000538:	a0400000 	sb	zero,0(v0)
4000053c:	24020001 	li	v0,1
40000540:	afc20000 	sw	v0,0(s8)
40000544:	8fc20000 	lw	v0,0(s8)
40000548:	03c0e821 	move	sp,s8
4000054c:	8fbe000c 	lw	s8,12(sp)
40000550:	27bd0010 	addiu	sp,sp,16
40000554:	03e00008 	jr	ra
40000558:	00000000 	nop

4000055c <_puts>:
4000055c:	27bdfff0 	addiu	sp,sp,-16
40000560:	afbe000c 	sw	s8,12(sp)
40000564:	03a0f021 	move	s8,sp
40000568:	afc40010 	sw	a0,16(s8)
4000056c:	afc50014 	sw	a1,20(s8)
40000570:	afc60018 	sw	a2,24(s8)
40000574:	8fc20018 	lw	v0,24(s8)
40000578:	8c440008 	lw	a0,8(v0)
4000057c:	8fc20018 	lw	v0,24(s8)
40000580:	8c420000 	lw	v0,0(v0)
40000584:	00401821 	move	v1,v0
40000588:	8fc20018 	lw	v0,24(s8)
4000058c:	8c420004 	lw	v0,4(v0)
40000590:	00621023 	subu	v0,v1,v0
40000594:	00821021 	addu	v0,a0,v0
40000598:	2443ffff 	addiu	v1,v0,-1
4000059c:	8fc20014 	lw	v0,20(s8)
400005a0:	0062102b 	sltu	v0,v1,v0
400005a4:	1040000c 	beqz	v0,400005d8 <_puts+0x7c>
400005a8:	00000000 	nop
400005ac:	8fc20018 	lw	v0,24(s8)
400005b0:	8c440008 	lw	a0,8(v0)
400005b4:	8fc20018 	lw	v0,24(s8)
400005b8:	8c420000 	lw	v0,0(v0)
400005bc:	00401821 	move	v1,v0
400005c0:	8fc20018 	lw	v0,24(s8)
400005c4:	8c420004 	lw	v0,4(v0)
400005c8:	00621023 	subu	v0,v1,v0
400005cc:	00821021 	addu	v0,a0,v0
400005d0:	2442ffff 	addiu	v0,v0,-1
400005d4:	afc20014 	sw	v0,20(s8)
400005d8:	afc00000 	sw	zero,0(s8)
400005dc:	08000186 	j	40000618 <_puts+0xbc>
400005e0:	00000000 	nop
400005e4:	8fc20018 	lw	v0,24(s8)
400005e8:	8c440004 	lw	a0,4(v0)
400005ec:	8fc30010 	lw	v1,16(s8)
400005f0:	8fc20000 	lw	v0,0(s8)
400005f4:	00621021 	addu	v0,v1,v0
400005f8:	80420000 	lb	v0,0(v0)
400005fc:	a0820000 	sb	v0,0(a0)
40000600:	24830001 	addiu	v1,a0,1
40000604:	8fc20018 	lw	v0,24(s8)
40000608:	ac430004 	sw	v1,4(v0)
4000060c:	8fc20000 	lw	v0,0(s8)
40000610:	24420001 	addiu	v0,v0,1
40000614:	afc20000 	sw	v0,0(s8)
40000618:	8fc20000 	lw	v0,0(s8)
4000061c:	8fc30014 	lw	v1,20(s8)
40000620:	0043102b 	sltu	v0,v0,v1
40000624:	1440ffef 	bnez	v0,400005e4 <_puts+0x88>
40000628:	00000000 	nop
4000062c:	8fc20018 	lw	v0,24(s8)
40000630:	8c420004 	lw	v0,4(v0)
40000634:	a0400000 	sb	zero,0(v0)
40000638:	8fc20014 	lw	v0,20(s8)
4000063c:	03c0e821 	move	sp,s8
40000640:	8fbe000c 	lw	s8,12(sp)
40000644:	27bd0010 	addiu	sp,sp,16
40000648:	03e00008 	jr	ra
4000064c:	00000000 	nop

40000650 <mini_vsnprintf>:
40000650:	27bdffa8 	addiu	sp,sp,-88
40000654:	afbf0054 	sw	ra,84(sp)
40000658:	afbe0050 	sw	s8,80(sp)
4000065c:	03a0f021 	move	s8,sp
40000660:	afc40058 	sw	a0,88(s8)
40000664:	afc5005c 	sw	a1,92(s8)
40000668:	afc60060 	sw	a2,96(s8)
4000066c:	afc70064 	sw	a3,100(s8)
40000670:	8fc20058 	lw	v0,88(s8)
40000674:	afc20024 	sw	v0,36(s8)
40000678:	8fc20058 	lw	v0,88(s8)
4000067c:	afc20028 	sw	v0,40(s8)
40000680:	8fc2005c 	lw	v0,92(s8)
40000684:	afc2002c 	sw	v0,44(s8)
40000688:	08000260 	j	40000980 <mini_vsnprintf+0x330>
4000068c:	00000000 	nop
40000690:	8fc20028 	lw	v0,40(s8)
40000694:	00401821 	move	v1,v0
40000698:	8fc20024 	lw	v0,36(s8)
4000069c:	00621023 	subu	v0,v1,v0
400006a0:	24420001 	addiu	v0,v0,1
400006a4:	00401821 	move	v1,v0
400006a8:	8fc2002c 	lw	v0,44(s8)
400006ac:	0062102b 	sltu	v0,v1,v0
400006b0:	104000be 	beqz	v0,400009ac <mini_vsnprintf+0x35c>
400006b4:	00000000 	nop
400006b8:	83c30021 	lb	v1,33(s8)
400006bc:	24020025 	li	v0,37
400006c0:	10620009 	beq	v1,v0,400006e8 <mini_vsnprintf+0x98>
400006c4:	00000000 	nop
400006c8:	83c20021 	lb	v0,33(s8)
400006cc:	27c30024 	addiu	v1,s8,36
400006d0:	00402021 	move	a0,v0
400006d4:	00602821 	move	a1,v1
400006d8:	0c00012e 	jal	400004b8 <_putc>
400006dc:	00000000 	nop
400006e0:	08000260 	j	40000980 <mini_vsnprintf+0x330>
400006e4:	00000000 	nop
400006e8:	a3c00020 	sb	zero,32(s8)
400006ec:	8fc20060 	lw	v0,96(s8)
400006f0:	90420000 	lbu	v0,0(v0)
400006f4:	a3c20021 	sb	v0,33(s8)
400006f8:	8fc20060 	lw	v0,96(s8)
400006fc:	24420001 	addiu	v0,v0,1
40000700:	afc20060 	sw	v0,96(s8)
40000704:	83c30021 	lb	v1,33(s8)
40000708:	24020030 	li	v0,48
4000070c:	1462001c 	bne	v1,v0,40000780 <mini_vsnprintf+0x130>
40000710:	00000000 	nop
40000714:	8fc20060 	lw	v0,96(s8)
40000718:	90420000 	lbu	v0,0(v0)
4000071c:	a3c20021 	sb	v0,33(s8)
40000720:	8fc20060 	lw	v0,96(s8)
40000724:	24420001 	addiu	v0,v0,1
40000728:	afc20060 	sw	v0,96(s8)
4000072c:	83c20021 	lb	v0,33(s8)
40000730:	1040009e 	beqz	v0,400009ac <mini_vsnprintf+0x35c>
40000734:	00000000 	nop
40000738:	83c20021 	lb	v0,33(s8)
4000073c:	28420030 	slti	v0,v0,48
40000740:	14400009 	bnez	v0,40000768 <mini_vsnprintf+0x118>
40000744:	00000000 	nop
40000748:	83c20021 	lb	v0,33(s8)
4000074c:	2842003a 	slti	v0,v0,58
40000750:	10400005 	beqz	v0,40000768 <mini_vsnprintf+0x118>
40000754:	00000000 	nop
40000758:	93c20021 	lbu	v0,33(s8)
4000075c:	2442ffd0 	addiu	v0,v0,-48
40000760:	304200ff 	andi	v0,v0,0xff
40000764:	a3c20020 	sb	v0,32(s8)
40000768:	8fc20060 	lw	v0,96(s8)
4000076c:	90420000 	lbu	v0,0(v0)
40000770:	a3c20021 	sb	v0,33(s8)
40000774:	8fc20060 	lw	v0,96(s8)
40000778:	24420001 	addiu	v0,v0,1
4000077c:	afc20060 	sw	v0,96(s8)
40000780:	83c20021 	lb	v0,33(s8)
40000784:	afc20048 	sw	v0,72(s8)
40000788:	24020064 	li	v0,100
4000078c:	8fc30048 	lw	v1,72(s8)
40000790:	10620020 	beq	v1,v0,40000814 <mini_vsnprintf+0x1c4>
40000794:	00000000 	nop
40000798:	8fc30048 	lw	v1,72(s8)
4000079c:	28620065 	slti	v0,v1,101
400007a0:	1040000e 	beqz	v0,400007dc <mini_vsnprintf+0x18c>
400007a4:	00000000 	nop
400007a8:	24020058 	li	v0,88
400007ac:	8fc30048 	lw	v1,72(s8)
400007b0:	10620033 	beq	v1,v0,40000880 <mini_vsnprintf+0x230>
400007b4:	00000000 	nop
400007b8:	24020063 	li	v0,99
400007bc:	8fc30048 	lw	v1,72(s8)
400007c0:	1062004a 	beq	v1,v0,400008ec <mini_vsnprintf+0x29c>
400007c4:	00000000 	nop
400007c8:	8fc20048 	lw	v0,72(s8)
400007cc:	10400077 	beqz	v0,400009ac <mini_vsnprintf+0x35c>
400007d0:	00000000 	nop
400007d4:	0800025a 	j	40000968 <mini_vsnprintf+0x318>
400007d8:	00000000 	nop
400007dc:	24020075 	li	v0,117
400007e0:	8fc30048 	lw	v1,72(s8)
400007e4:	1062000b 	beq	v1,v0,40000814 <mini_vsnprintf+0x1c4>
400007e8:	00000000 	nop
400007ec:	24020078 	li	v0,120
400007f0:	8fc30048 	lw	v1,72(s8)
400007f4:	10620022 	beq	v1,v0,40000880 <mini_vsnprintf+0x230>
400007f8:	00000000 	nop
400007fc:	24020073 	li	v0,115
40000800:	8fc30048 	lw	v1,72(s8)
40000804:	10620047 	beq	v1,v0,40000924 <mini_vsnprintf+0x2d4>
40000808:	00000000 	nop
4000080c:	0800025a 	j	40000968 <mini_vsnprintf+0x318>
40000810:	00000000 	nop
40000814:	8fc30064 	lw	v1,100(s8)
40000818:	24620004 	addiu	v0,v1,4
4000081c:	afc20064 	sw	v0,100(s8)
40000820:	00601021 	move	v0,v1
40000824:	8c420000 	lw	v0,0(v0)
40000828:	00402021 	move	a0,v0
4000082c:	83c20021 	lb	v0,33(s8)
40000830:	38420075 	xori	v0,v0,0x75
40000834:	2c470001 	sltiu	a3,v0,1
40000838:	83c30020 	lb	v1,32(s8)
4000083c:	27c20030 	addiu	v0,s8,48
40000840:	afa20010 	sw	v0,16(sp)
40000844:	afa30014 	sw	v1,20(sp)
40000848:	2405000a 	li	a1,10
4000084c:	00003021 	move	a2,zero
40000850:	0c00008e 	jal	40000238 <mini_itoa>
40000854:	00000000 	nop
40000858:	afc20018 	sw	v0,24(s8)
4000085c:	27c20030 	addiu	v0,s8,48
40000860:	27c30024 	addiu	v1,s8,36
40000864:	00402021 	move	a0,v0
40000868:	8fc50018 	lw	a1,24(s8)
4000086c:	00603021 	move	a2,v1
40000870:	0c000157 	jal	4000055c <_puts>
40000874:	00000000 	nop
40000878:	08000260 	j	40000980 <mini_vsnprintf+0x330>
4000087c:	00000000 	nop
40000880:	8fc30064 	lw	v1,100(s8)
40000884:	24620004 	addiu	v0,v1,4
40000888:	afc20064 	sw	v0,100(s8)
4000088c:	00601021 	move	v0,v1
40000890:	8c420000 	lw	v0,0(v0)
40000894:	00402021 	move	a0,v0
40000898:	83c20021 	lb	v0,33(s8)
4000089c:	38420058 	xori	v0,v0,0x58
400008a0:	2c460001 	sltiu	a2,v0,1
400008a4:	83c30020 	lb	v1,32(s8)
400008a8:	27c20030 	addiu	v0,s8,48
400008ac:	afa20010 	sw	v0,16(sp)
400008b0:	afa30014 	sw	v1,20(sp)
400008b4:	24050010 	li	a1,16
400008b8:	24070001 	li	a3,1
400008bc:	0c00008e 	jal	40000238 <mini_itoa>
400008c0:	00000000 	nop
400008c4:	afc20018 	sw	v0,24(s8)
400008c8:	27c20030 	addiu	v0,s8,48
400008cc:	27c30024 	addiu	v1,s8,36
400008d0:	00402021 	move	a0,v0
400008d4:	8fc50018 	lw	a1,24(s8)
400008d8:	00603021 	move	a2,v1
400008dc:	0c000157 	jal	4000055c <_puts>
400008e0:	00000000 	nop
400008e4:	08000260 	j	40000980 <mini_vsnprintf+0x330>
400008e8:	00000000 	nop
400008ec:	8fc30064 	lw	v1,100(s8)
400008f0:	24620004 	addiu	v0,v1,4
400008f4:	afc20064 	sw	v0,100(s8)
400008f8:	00601021 	move	v0,v1
400008fc:	8c420000 	lw	v0,0(v0)
40000900:	00021600 	sll	v0,v0,0x18
40000904:	00021603 	sra	v0,v0,0x18
40000908:	27c30024 	addiu	v1,s8,36
4000090c:	00402021 	move	a0,v0
40000910:	00602821 	move	a1,v1
40000914:	0c00012e 	jal	400004b8 <_putc>
40000918:	00000000 	nop
4000091c:	08000260 	j	40000980 <mini_vsnprintf+0x330>
40000920:	00000000 	nop
40000924:	8fc30064 	lw	v1,100(s8)
40000928:	24620004 	addiu	v0,v1,4
4000092c:	afc20064 	sw	v0,100(s8)
40000930:	00601021 	move	v0,v1
40000934:	8c420000 	lw	v0,0(v0)
40000938:	afc2001c 	sw	v0,28(s8)
4000093c:	8fc4001c 	lw	a0,28(s8)
40000940:	0c000078 	jal	400001e0 <mini_strlen>
40000944:	00000000 	nop
40000948:	27c30024 	addiu	v1,s8,36
4000094c:	8fc4001c 	lw	a0,28(s8)
40000950:	00402821 	move	a1,v0
40000954:	00603021 	move	a2,v1
40000958:	0c000157 	jal	4000055c <_puts>
4000095c:	00000000 	nop
40000960:	08000260 	j	40000980 <mini_vsnprintf+0x330>
40000964:	00000000 	nop
40000968:	83c20021 	lb	v0,33(s8)
4000096c:	27c30024 	addiu	v1,s8,36
40000970:	00402021 	move	a0,v0
40000974:	00602821 	move	a1,v1
40000978:	0c00012e 	jal	400004b8 <_putc>
4000097c:	00000000 	nop
40000980:	8fc20060 	lw	v0,96(s8)
40000984:	90420000 	lbu	v0,0(v0)
40000988:	a3c20021 	sb	v0,33(s8)
4000098c:	83c20021 	lb	v0,33(s8)
40000990:	0002102b 	sltu	v0,zero,v0
40000994:	304300ff 	andi	v1,v0,0xff
40000998:	8fc20060 	lw	v0,96(s8)
4000099c:	24420001 	addiu	v0,v0,1
400009a0:	afc20060 	sw	v0,96(s8)
400009a4:	1460ff3a 	bnez	v1,40000690 <mini_vsnprintf+0x40>
400009a8:	00000000 	nop
400009ac:	8fc20028 	lw	v0,40(s8)
400009b0:	00401821 	move	v1,v0
400009b4:	8fc20024 	lw	v0,36(s8)
400009b8:	00621023 	subu	v0,v1,v0
400009bc:	03c0e821 	move	sp,s8
400009c0:	8fbf0054 	lw	ra,84(sp)
400009c4:	8fbe0050 	lw	s8,80(sp)
400009c8:	27bd0058 	addiu	sp,sp,88
400009cc:	03e00008 	jr	ra
400009d0:	00000000 	nop

400009d4 <printf>:
400009d4:	27bdff60 	addiu	sp,sp,-160
400009d8:	afbf009c 	sw	ra,156(sp)
400009dc:	afbe0098 	sw	s8,152(sp)
400009e0:	03a0f021 	move	s8,sp
400009e4:	afc500a4 	sw	a1,164(s8)
400009e8:	afc600a8 	sw	a2,168(s8)
400009ec:	afc700ac 	sw	a3,172(s8)
400009f0:	afc400a0 	sw	a0,160(s8)
400009f4:	27c200a4 	addiu	v0,s8,164
400009f8:	afc20014 	sw	v0,20(s8)
400009fc:	8fc30014 	lw	v1,20(s8)
40000a00:	27c20018 	addiu	v0,s8,24
40000a04:	00402021 	move	a0,v0
40000a08:	24050080 	li	a1,128
40000a0c:	8fc600a0 	lw	a2,160(s8)
40000a10:	00603821 	move	a3,v1
40000a14:	0c000194 	jal	40000650 <mini_vsnprintf>
40000a18:	00000000 	nop
40000a1c:	afc20010 	sw	v0,16(s8)
40000a20:	8fc30010 	lw	v1,16(s8)
40000a24:	27c20010 	addiu	v0,s8,16
40000a28:	00431021 	addu	v0,v0,v1
40000a2c:	a0400008 	sb	zero,8(v0)
40000a30:	27c20018 	addiu	v0,s8,24
40000a34:	00402021 	move	a0,v0
40000a38:	0c000298 	jal	40000a60 <sys_write>
40000a3c:	00000000 	nop
40000a40:	8fc20010 	lw	v0,16(s8)
40000a44:	03c0e821 	move	sp,s8
40000a48:	8fbf009c 	lw	ra,156(sp)
40000a4c:	8fbe0098 	lw	s8,152(sp)
40000a50:	27bd00a0 	addiu	sp,sp,160
40000a54:	03e00008 	jr	ra
40000a58:	00000000 	nop
40000a5c:	00000000 	nop

40000a60 <sys_write>:
40000a60:	27bdffe8 	addiu	sp,sp,-24
40000a64:	afbf0014 	sw	ra,20(sp)
40000a68:	afbe0010 	sw	s8,16(sp)
40000a6c:	03a0f021 	move	s8,sp
40000a70:	afc40018 	sw	a0,24(s8)
40000a74:	8fc20018 	lw	v0,24(s8)
40000a78:	24040014 	li	a0,20
40000a7c:	00402821 	move	a1,v0
40000a80:	00003021 	move	a2,zero
40000a84:	00003821 	move	a3,zero
40000a88:	0c000074 	jal	400001d0 <invoke_syscall>
40000a8c:	00000000 	nop
40000a90:	03c0e821 	move	sp,s8
40000a94:	8fbf0014 	lw	ra,20(sp)
40000a98:	8fbe0010 	lw	s8,16(sp)
40000a9c:	27bd0018 	addiu	sp,sp,24
40000aa0:	03e00008 	jr	ra
40000aa4:	00000000 	nop

40000aa8 <sys_move_cursor>:
40000aa8:	27bdffe8 	addiu	sp,sp,-24
40000aac:	afbf0014 	sw	ra,20(sp)
40000ab0:	afbe0010 	sw	s8,16(sp)
40000ab4:	03a0f021 	move	s8,sp
40000ab8:	afc40018 	sw	a0,24(s8)
40000abc:	afc5001c 	sw	a1,28(s8)
40000ac0:	24040016 	li	a0,22
40000ac4:	8fc50018 	lw	a1,24(s8)
40000ac8:	8fc6001c 	lw	a2,28(s8)
40000acc:	00003821 	move	a3,zero
40000ad0:	0c000074 	jal	400001d0 <invoke_syscall>
40000ad4:	00000000 	nop
40000ad8:	03c0e821 	move	sp,s8
40000adc:	8fbf0014 	lw	ra,20(sp)
40000ae0:	8fbe0010 	lw	s8,16(sp)
40000ae4:	27bd0018 	addiu	sp,sp,24
40000ae8:	03e00008 	jr	ra
40000aec:	00000000 	nop
40000af0:	00007325 	0x7325
	...
40000b00:	80000000 	lb	zero,0(zero)
	...
